   1              		.syntax unified
   2              		.cpu cortex-m0
   3              		.fpu softvfp
   4              		.eabi_attribute 20, 1
   5              		.eabi_attribute 21, 1
   6              		.eabi_attribute 23, 3
   7              		.eabi_attribute 24, 1
   8              		.eabi_attribute 25, 1
   9              		.eabi_attribute 26, 1
  10              		.eabi_attribute 30, 4
  11              		.eabi_attribute 34, 0
  12              		.eabi_attribute 18, 4
  13              		.thumb
  14              		.syntax unified
  15              		.file	"nuc_uart0.c"
  16              		.text
  17              	.Ltext0:
  18              		.cfi_sections	.debug_frame
  19              		.section	.text.U1_Isr,"ax",%progbits
  20              		.align	1
  21              		.weak	U1_Isr
  22              		.code	16
  23              		.thumb_func
  25              	U1_Isr:
  26              	.LFB59:
  27              		.file 1 "./drive/nuc_uart0.c"
   1:./drive/nuc_uart0.c **** 
   2:./drive/nuc_uart0.c **** 
   3:./drive/nuc_uart0.c **** #define UART_GLOBAL
   4:./drive/nuc_uart0.c **** #include "mytype.h"
   5:./drive/nuc_uart0.c **** #include "bsp.h"
   6:./drive/nuc_uart0.c **** #include "nuc_uart0.h"
   7:./drive/nuc_uart0.c **** 
   8:./drive/nuc_uart0.c **** 
   9:./drive/nuc_uart0.c **** #include "myFifo.h"
  10:./drive/nuc_uart0.c **** 
  11:./drive/nuc_uart0.c **** typedef uint8 Tser;
  12:./drive/nuc_uart0.c **** TFIFO_TYPE( Tser, 64 );
  13:./drive/nuc_uart0.c **** typedef FIFO_TYPE( Tser ) Tserial;
  14:./drive/nuc_uart0.c **** 
  15:./drive/nuc_uart0.c **** static Tserial UartList_Rx,UartList_Tx;
  16:./drive/nuc_uart0.c **** static int TxEn;
  17:./drive/nuc_uart0.c **** 
  18:./drive/nuc_uart0.c **** 
  19:./drive/nuc_uart0.c **** /*-------------------------------------------------------------------------------------------------
  20:./drive/nuc_uart0.c **** /* UART Callback function                                                                          
  21:./drive/nuc_uart0.c **** /*-------------------------------------------------------------------------------------------------
  22:./drive/nuc_uart0.c **** __WEAK__
  23:./drive/nuc_uart0.c **** void U1_Isr()
  24:./drive/nuc_uart0.c **** {
  28              		.loc 1 24 0
  29              		.cfi_startproc
  30              		@ args = 0, pretend = 0, frame = 0
  31              		@ frame_needed = 0, uses_anonymous_args = 0
  32              		@ link register save eliminated.
  25:./drive/nuc_uart0.c **** }
  33              		.loc 1 25 0
  34              		@ sp needed
  35 0000 7047     		bx	lr
  36              		.cfi_endproc
  37              	.LFE59:
  39              		.section	.text.U0_Isr,"ax",%progbits
  40              		.align	1
  41              		.weak	U0_Isr
  42              		.code	16
  43              		.thumb_func
  45              	U0_Isr:
  46              	.LFB60:
  26:./drive/nuc_uart0.c **** __WEAK__
  27:./drive/nuc_uart0.c **** void U0_Isr()
  28:./drive/nuc_uart0.c **** {
  47              		.loc 1 28 0
  48              		.cfi_startproc
  49              		@ args = 0, pretend = 0, frame = 0
  50              		@ frame_needed = 0, uses_anonymous_args = 0
  51 0000 F8B5     		push	{r3, r4, r5, r6, r7, lr}
  52              	.LCFI0:
  53              		.cfi_def_cfa_offset 24
  54              		.cfi_offset 3, -24
  55              		.cfi_offset 4, -20
  56              		.cfi_offset 5, -16
  57              		.cfi_offset 6, -12
  58              		.cfi_offset 7, -8
  59              		.cfi_offset 14, -4
  29:./drive/nuc_uart0.c ****     uint32_t u32IntSts = UART0->ISR;
  60              		.loc 1 29 0
  61 0002 224C     		ldr	r4, .L19
  62 0004 E569     		ldr	r5, [r4, #28]
  63              	.LVL0:
  30:./drive/nuc_uart0.c ****     if(u32IntSts & UART_ISR_RDA_INT_Msk)
  64              		.loc 1 30 0
  65 0006 EB05     		lsls	r3, r5, #23
  66 0008 02D4     		bmi	.L3
  67              	.L10:
  31:./drive/nuc_uart0.c ****     {
  32:./drive/nuc_uart0.c ****         /* Get all the input characters */
  33:./drive/nuc_uart0.c ****         while(UART0->ISR & UART_ISR_RDA_IF_Msk)
  34:./drive/nuc_uart0.c ****         {
  35:./drive/nuc_uart0.c ****             /* Get the character from UART Buffer */
  36:./drive/nuc_uart0.c ****             FIFO_PUT( UartList_Rx, UART0->RBR);
  37:./drive/nuc_uart0.c ****         }
  38:./drive/nuc_uart0.c ****     }
  39:./drive/nuc_uart0.c **** 
  40:./drive/nuc_uart0.c ****     if(u32IntSts & UART_ISR_THRE_INT_Msk)
  68              		.loc 1 40 0
  69 000a AB05     		lsls	r3, r5, #22
  70 000c 3CD5     		bpl	.L2
  71 000e 1AE0     		b	.L18
  72              	.L3:
  33:./drive/nuc_uart0.c ****         {
  73              		.loc 1 33 0
  74 0010 0126     		movs	r6, #1
  75              	.L16:
  76 0012 E369     		ldr	r3, [r4, #28]
  77 0014 3342     		tst	r3, r6
  78 0016 F8D0     		beq	.L10
  79              	.LVL1:
  80              	.LBB13:
  36:./drive/nuc_uart0.c ****         }
  81              		.loc 1 36 0
  82 0018 FFF7FEFF 		bl	OS_CPU_SR_Save
  83              	.LVL2:
  84 001c 1C4B     		ldr	r3, .L19+4
  85 001e 9A88     		ldrh	r2, [r3, #4]
  86 0020 3F2A     		cmp	r2, #63
  87 0022 0DD8     		bhi	.L7
  36:./drive/nuc_uart0.c ****         }
  88              		.loc 1 36 0 is_stmt 0 discriminator 1
  89 0024 1988     		ldrh	r1, [r3]
  90 0026 0132     		adds	r2, r2, #1
  91 0028 9A80     		strh	r2, [r3, #4]
  92 002a 4A1C     		adds	r2, r1, #1
  93 002c 92B2     		uxth	r2, r2
  94 002e 174F     		ldr	r7, .L19
  95 0030 1A80     		strh	r2, [r3]
  96 0032 3F68     		ldr	r7, [r7]
  97 0034 5918     		adds	r1, r3, r1
  98 0036 8F71     		strb	r7, [r1, #6]
  99 0038 3F2A     		cmp	r2, #63
 100 003a 01D9     		bls	.L7
  36:./drive/nuc_uart0.c ****         }
 101              		.loc 1 36 0 discriminator 3
 102 003c 0022     		movs	r2, #0
 103 003e 1A80     		strh	r2, [r3]
 104              	.L7:
 105              	.LVL3:
  36:./drive/nuc_uart0.c ****         }
 106              		.loc 1 36 0 discriminator 6
 107 0040 FFF7FEFF 		bl	OS_CPU_SR_Restore
 108              	.LVL4:
 109 0044 E5E7     		b	.L16
 110              	.L18:
 111              	.LVL5:
 112              	.LBE13:
 113              	.LBB14:
 114              	.LBB15:
 115              	.LBB16:
  41:./drive/nuc_uart0.c ****     {
  42:./drive/nuc_uart0.c **** 		if (!FIFO_Get(UartList_Tx, UART0->THR)) {
 116              		.loc 1 42 0 is_stmt 1
 117 0046 0025     		movs	r5, #0
 118              	.LVL6:
 119 0048 FFF7FEFF 		bl	OS_CPU_SR_Save
 120              	.LVL7:
 121 004c 104B     		ldr	r3, .L19+4
 122 004e 4633     		adds	r3, r3, #70
 123 0050 9A88     		ldrh	r2, [r3, #4]
 124 0052 AA42     		cmp	r2, r5
 125 0054 0DD0     		beq	.L12
 126 0056 5988     		ldrh	r1, [r3, #2]
 127 0058 013A     		subs	r2, r2, #1
 128 005a 9A80     		strh	r2, [r3, #4]
 129 005c 4A1C     		adds	r2, r1, #1
 130 005e 92B2     		uxth	r2, r2
 131 0060 5A80     		strh	r2, [r3, #2]
 132 0062 5918     		adds	r1, r3, r1
 133 0064 8979     		ldrb	r1, [r1, #6]
 134 0066 0135     		adds	r5, r5, #1
 135 0068 2160     		str	r1, [r4]
 136 006a 3F2A     		cmp	r2, #63
 137 006c 01D9     		bls	.L12
 138 006e 0022     		movs	r2, #0
 139 0070 5A80     		strh	r2, [r3, #2]
 140              	.L12:
 141              	.LVL8:
 142 0072 FFF7FEFF 		bl	OS_CPU_SR_Restore
 143              	.LVL9:
 144              	.LBE16:
 145 0076 002D     		cmp	r5, #0
 146 0078 06D1     		bne	.L2
 147              	.LVL10:
  43:./drive/nuc_uart0.c **** 		    UART0->IER &= ~UART_IER_THRE_IEN_Msk;
 148              		.loc 1 43 0
 149 007a 0222     		movs	r2, #2
 150 007c 6368     		ldr	r3, [r4, #4]
 151 007e 9343     		bics	r3, r2
 152 0080 6360     		str	r3, [r4, #4]
  44:./drive/nuc_uart0.c **** 			TxEn = 1;
 153              		.loc 1 44 0
 154 0082 044B     		ldr	r3, .L19+8
 155 0084 013A     		subs	r2, r2, #1
 156 0086 DA60     		str	r2, [r3, #12]
 157              	.LVL11:
 158              	.L2:
 159              	.LBE15:
 160              	.LBE14:
  45:./drive/nuc_uart0.c **** 		}
  46:./drive/nuc_uart0.c ****     }
  47:./drive/nuc_uart0.c **** }
 161              		.loc 1 47 0
 162              		@ sp needed
 163 0088 F8BD     		pop	{r3, r4, r5, r6, r7, pc}
 164              	.L20:
 165 008a C046     		.align	2
 166              	.L19:
 167 008c 00000540 		.word	1074069504
 168 0090 00000000 		.word	.LANCHOR0
 169 0094 80000000 		.word	.LANCHOR1
 170              		.cfi_endproc
 171              	.LFE60:
 173              		.section	.text.UART02_IRQHandler,"ax",%progbits
 174              		.align	1
 175              		.global	UART02_IRQHandler
 176              		.code	16
 177              		.thumb_func
 179              	UART02_IRQHandler:
 180              	.LFB61:
  48:./drive/nuc_uart0.c **** 
  49:./drive/nuc_uart0.c **** 
  50:./drive/nuc_uart0.c **** void UART02_IRQHandler(void)
  51:./drive/nuc_uart0.c **** {
 181              		.loc 1 51 0
 182              		.cfi_startproc
 183              		@ args = 0, pretend = 0, frame = 0
 184              		@ frame_needed = 0, uses_anonymous_args = 0
 185 0000 10B5     		push	{r4, lr}
 186              	.LCFI1:
 187              		.cfi_def_cfa_offset 8
 188              		.cfi_offset 4, -8
 189              		.cfi_offset 14, -4
  52:./drive/nuc_uart0.c ****     U0_Isr();
 190              		.loc 1 52 0
 191 0002 FFF7FEFF 		bl	U0_Isr
 192              	.LVL12:
  53:./drive/nuc_uart0.c ****     U1_Isr();
  54:./drive/nuc_uart0.c **** }
 193              		.loc 1 54 0
 194              		@ sp needed
  53:./drive/nuc_uart0.c ****     U1_Isr();
 195              		.loc 1 53 0
 196 0006 FFF7FEFF 		bl	U1_Isr
 197              	.LVL13:
 198              		.loc 1 54 0
 199 000a 10BD     		pop	{r4, pc}
 200              		.cfi_endproc
 201              	.LFE61:
 203              		.global	__aeabi_uidiv
 204              		.section	.text.Uart_Init,"ax",%progbits
 205              		.align	1
 206              		.global	Uart_Init
 207              		.code	16
 208              		.thumb_func
 210              	Uart_Init:
 211              	.LFB62:
  55:./drive/nuc_uart0.c **** 
  56:./drive/nuc_uart0.c **** void Uart_Init (uint32 baudrate )
  57:./drive/nuc_uart0.c **** {
 212              		.loc 1 57 0
 213              		.cfi_startproc
 214              		@ args = 0, pretend = 0, frame = 0
 215              		@ frame_needed = 0, uses_anonymous_args = 0
 216              	.LVL14:
  58:./drive/nuc_uart0.c ****     FIFO_CLEAN( UartList_Rx );
 217              		.loc 1 58 0
 218 0000 0022     		movs	r2, #0
  57:./drive/nuc_uart0.c ****     FIFO_CLEAN( UartList_Rx );
 219              		.loc 1 57 0
 220 0002 F8B5     		push	{r3, r4, r5, r6, r7, lr}
 221              	.LCFI2:
 222              		.cfi_def_cfa_offset 24
 223              		.cfi_offset 3, -24
 224              		.cfi_offset 4, -20
 225              		.cfi_offset 5, -16
 226              		.cfi_offset 6, -12
 227              		.cfi_offset 7, -8
 228              		.cfi_offset 14, -4
 229              		.loc 1 58 0
 230 0004 214B     		ldr	r3, .L26
  57:./drive/nuc_uart0.c ****     FIFO_CLEAN( UartList_Rx );
 231              		.loc 1 57 0
 232 0006 0100     		movs	r1, r0
 233              		.loc 1 58 0
 234 0008 9A80     		strh	r2, [r3, #4]
 235 000a 5A80     		strh	r2, [r3, #2]
 236 000c 1A80     		strh	r2, [r3]
  59:./drive/nuc_uart0.c ****     FIFO_CLEAN( UartList_Tx );
 237              		.loc 1 59 0
 238 000e 4633     		adds	r3, r3, #70
 239 0010 9A80     		strh	r2, [r3, #4]
 240 0012 5A80     		strh	r2, [r3, #2]
 241 0014 1A80     		strh	r2, [r3]
 242              	.LBB23:
 243              	.LBB24:
 244              		.file 2 "./bsp/inc/SYS.h"
   1:./bsp/inc/SYS.h **** /**************************************************************************//**
   2:./bsp/inc/SYS.h ****  * @file     sys.h
   3:./bsp/inc/SYS.h ****  * @version  V3.00
   4:./bsp/inc/SYS.h ****  * $Revision: 16 $
   5:./bsp/inc/SYS.h ****  * $Date: 14/07/25 8:55a $
   6:./bsp/inc/SYS.h ****  * @brief    NUC131 Series SYS Driver Header File
   7:./bsp/inc/SYS.h ****  *
   8:./bsp/inc/SYS.h ****  * @note
   9:./bsp/inc/SYS.h ****  * Copyright (C) 2014 Nuvoton Technology Corp. All rights reserved.
  10:./bsp/inc/SYS.h ****  *
  11:./bsp/inc/SYS.h ****  ******************************************************************************/
  12:./bsp/inc/SYS.h **** #ifndef __SYS_H__
  13:./bsp/inc/SYS.h **** #define __SYS_H__
  14:./bsp/inc/SYS.h **** 
  15:./bsp/inc/SYS.h **** #ifdef __cplusplus
  16:./bsp/inc/SYS.h **** extern "C"
  17:./bsp/inc/SYS.h **** {
  18:./bsp/inc/SYS.h **** #endif
  19:./bsp/inc/SYS.h **** 
  20:./bsp/inc/SYS.h **** /** @addtogroup NUC131_Device_Driver NUC131 Device Driver
  21:./bsp/inc/SYS.h ****   @{
  22:./bsp/inc/SYS.h **** */
  23:./bsp/inc/SYS.h **** 
  24:./bsp/inc/SYS.h **** /** @addtogroup NUC131_SYS_Driver SYS Driver
  25:./bsp/inc/SYS.h ****   @{
  26:./bsp/inc/SYS.h **** */
  27:./bsp/inc/SYS.h **** 
  28:./bsp/inc/SYS.h **** /** @addtogroup NUC131_SYS_EXPORTED_CONSTANTS SYS Exported Constants
  29:./bsp/inc/SYS.h ****   @{
  30:./bsp/inc/SYS.h **** */
  31:./bsp/inc/SYS.h **** 
  32:./bsp/inc/SYS.h **** 
  33:./bsp/inc/SYS.h **** /*-------------------------------------------------------------------------------------------------
  34:./bsp/inc/SYS.h **** /*  Module Reset Control Resister constant definitions.                                            
  35:./bsp/inc/SYS.h **** /*-------------------------------------------------------------------------------------------------
  36:./bsp/inc/SYS.h **** #define GPIO_RST    ((0x4<<24) | SYS_IPRSTC2_GPIO_RST_Pos  ) /*!< GPIO reset is one of the SYS_Rese
  37:./bsp/inc/SYS.h **** #define TMR0_RST    ((0x4<<24) | SYS_IPRSTC2_TMR0_RST_Pos  ) /*!< TMR0 reset is one of the SYS_Rese
  38:./bsp/inc/SYS.h **** #define TMR1_RST    ((0x4<<24) | SYS_IPRSTC2_TMR1_RST_Pos  ) /*!< TMR1 reset is one of the SYS_Rese
  39:./bsp/inc/SYS.h **** #define TMR2_RST    ((0x4<<24) | SYS_IPRSTC2_TMR2_RST_Pos  ) /*!< TMR2 reset is one of the SYS_Rese
  40:./bsp/inc/SYS.h **** #define TMR3_RST    ((0x4<<24) | SYS_IPRSTC2_TMR3_RST_Pos  ) /*!< TMR3 reset is one of the SYS_Rese
  41:./bsp/inc/SYS.h **** #define I2C0_RST    ((0x4<<24) | SYS_IPRSTC2_I2C0_RST_Pos  ) /*!< I2C0 reset is one of the SYS_Rese
  42:./bsp/inc/SYS.h **** #define I2C1_RST    ((0x4<<24) | SYS_IPRSTC2_I2C1_RST_Pos  ) /*!< I2C1 reset is one of the SYS_Rese
  43:./bsp/inc/SYS.h **** #define SPI0_RST    ((0x4<<24) | SYS_IPRSTC2_SPI0_RST_Pos  ) /*!< SPI0 reset is one of the SYS_Rese
  44:./bsp/inc/SYS.h **** #define UART0_RST   ((0x4<<24) | SYS_IPRSTC2_UART0_RST_Pos ) /*!< UART0 reset is one of the SYS_Res
  45:./bsp/inc/SYS.h **** #define UART1_RST   ((0x4<<24) | SYS_IPRSTC2_UART1_RST_Pos ) /*!< UART1 reset is one of the SYS_Res
  46:./bsp/inc/SYS.h **** #define UART2_RST   ((0x4<<24) | SYS_IPRSTC2_UART2_RST_Pos ) /*!< UART2 reset is one of the SYS_Res
  47:./bsp/inc/SYS.h **** #define CAN0_RST    ((0x4<<24) | SYS_IPRSTC2_CAN0_RST_Pos  ) /*!< CAN0 reset is one of the SYS_Rese
  48:./bsp/inc/SYS.h **** #define ADC_RST     ((0x4<<24) | SYS_IPRSTC2_ADC_RST_Pos   ) /*!< ADC reset is one of the SYS_Reset
  49:./bsp/inc/SYS.h **** #define UART3_RST   ((0x8<<24) | SYS_IPRSTC3_UART3_RST_Pos ) /*!< UART3 reset is one of the SYS_Res
  50:./bsp/inc/SYS.h **** #define UART4_RST   ((0x8<<24) | SYS_IPRSTC3_UART4_RST_Pos ) /*!< UART4 reset is one of the SYS_Res
  51:./bsp/inc/SYS.h **** #define UART5_RST   ((0x8<<24) | SYS_IPRSTC3_UART5_RST_Pos ) /*!< UART5 reset is one of the SYS_Res
  52:./bsp/inc/SYS.h **** #define PWM0_RST    ((0x8<<24) | SYS_IPRSTC3_PWM0_RST_Pos )  /*!< PWM0 reset is one of the SYS_Rese
  53:./bsp/inc/SYS.h **** #define PWM1_RST    ((0x8<<24) | SYS_IPRSTC3_PWM1_RST_Pos )  /*!< PWM1 reset is one of the SYS_Rese
  54:./bsp/inc/SYS.h **** #define BPWM0_RST   ((0x8<<24) | SYS_IPRSTC3_BPWM0_RST_Pos ) /*!< BPWM0 reset is one of the SYS_Res
  55:./bsp/inc/SYS.h **** #define BPWM1_RST   ((0x8<<24) | SYS_IPRSTC3_BPWM1_RST_Pos ) /*!< BPWM1 reset is one of the SYS_Res
  56:./bsp/inc/SYS.h **** 
  57:./bsp/inc/SYS.h **** 
  58:./bsp/inc/SYS.h **** /*-------------------------------------------------------------------------------------------------
  59:./bsp/inc/SYS.h **** /*  Brown Out Detector Threshold Voltage Selection constant definitions.                           
  60:./bsp/inc/SYS.h **** /*-------------------------------------------------------------------------------------------------
  61:./bsp/inc/SYS.h **** #define SYS_BODCR_BOD_RST_EN            (1UL<<SYS_BODCR_BOD_RSTEN_Pos)    /*!< Brown-out Reset Enab
  62:./bsp/inc/SYS.h **** #define SYS_BODCR_BOD_INTERRUPT_EN      (0UL<<SYS_BODCR_BOD_RSTEN_Pos)    /*!< Brown-out Interrupt 
  63:./bsp/inc/SYS.h **** #define SYS_BODCR_BOD_VL_4_4V           (3UL<<SYS_BODCR_BOD_VL_Pos)       /*!< Setting Brown Out De
  64:./bsp/inc/SYS.h **** #define SYS_BODCR_BOD_VL_3_7V           (2UL<<SYS_BODCR_BOD_VL_Pos)       /*!< Setting Brown Out De
  65:./bsp/inc/SYS.h **** #define SYS_BODCR_BOD_VL_2_7V           (1UL<<SYS_BODCR_BOD_VL_Pos)       /*!< Setting Brown Out De
  66:./bsp/inc/SYS.h **** #define SYS_BODCR_BOD_VL_2_2V           (0UL<<SYS_BODCR_BOD_VL_Pos)       /*!< Setting Brown Out De
  67:./bsp/inc/SYS.h **** 
  68:./bsp/inc/SYS.h **** 
  69:./bsp/inc/SYS.h **** /*-------------------------------------------------------------------------------------------------
  70:./bsp/inc/SYS.h **** /*  Multi-Function constant definitions.                                                           
  71:./bsp/inc/SYS.h **** /*-------------------------------------------------------------------------------------------------
  72:./bsp/inc/SYS.h **** 
  73:./bsp/inc/SYS.h **** /* How to use below #define?
  74:./bsp/inc/SYS.h **** Example: If user want to set PA.0 as ADC0 and PA.1 as ADC1 in initial function,
  75:./bsp/inc/SYS.h ****          user can issue following command to achieve it.
  76:./bsp/inc/SYS.h **** 
  77:./bsp/inc/SYS.h ****          SYS->GPA_MFP  = SYS_GPA_MFP_PA0_ADC0  | SYS_GPA_MFP_PA1_ADC1;
  78:./bsp/inc/SYS.h ****          SYS->ALT_MFP3 = SYS_ALT_MFP3_PA0_ADC0 | SYS_ALT_MFP3_PA1_ADC1;
  79:./bsp/inc/SYS.h ****          SYS->ALT_MFP4 = SYS_ALT_MFP4_PA0_ADC0 | SYS_ALT_MFP4_PA1_ADC1;
  80:./bsp/inc/SYS.h **** */
  81:./bsp/inc/SYS.h **** 
  82:./bsp/inc/SYS.h **** //PA.0
  83:./bsp/inc/SYS.h **** #define SYS_GPA_MFP_PA0_GPIO        0x00000000UL        /*!< GPA_MFP PA.0 setting for GPIO */
  84:./bsp/inc/SYS.h **** #define SYS_ALT_MFP_PA0_GPIO        NULL                /*!< No ALT_MFP setting for PA.0 */
  85:./bsp/inc/SYS.h **** #define SYS_ALT_MFP1_PA0_GPIO       NULL                /*!< No ALT_MFP1 setting for PA.0 */
  86:./bsp/inc/SYS.h **** #define SYS_ALT_MFP2_PA0_GPIO       NULL                /*!< No ALT_MFP2 setting for PA.0 */
  87:./bsp/inc/SYS.h **** #define SYS_ALT_MFP3_PA0_GPIO       0x00000000UL        /*!< ALT_MFP3 PA.0 setting for GPIO */
  88:./bsp/inc/SYS.h **** #define SYS_ALT_MFP4_PA0_GPIO       0x00000000UL        /*!< ALT_MFP4 PA.0 setting for GPIO */
  89:./bsp/inc/SYS.h **** 
  90:./bsp/inc/SYS.h **** #define SYS_GPA_MFP_PA0_ADC0        (1UL<<0)            /*!< GPA_MFP PA.0 setting for ADC0 */
  91:./bsp/inc/SYS.h **** #define SYS_ALT_MFP_PA0_ADC0        NULL                /*!< No ALT_MFP setting for PA.0 */
  92:./bsp/inc/SYS.h **** #define SYS_ALT_MFP1_PA0_ADC0       NULL                /*!< No ALT_MFP1 setting for PA.0 */
  93:./bsp/inc/SYS.h **** #define SYS_ALT_MFP2_PA0_ADC0       NULL                /*!< No ALT_MFP2 setting for PA.0 */
  94:./bsp/inc/SYS.h **** #define SYS_ALT_MFP3_PA0_ADC0       0x00000000UL        /*!< ALT_MFP3 PA.0 setting for ADC0 */
  95:./bsp/inc/SYS.h **** #define SYS_ALT_MFP4_PA0_ADC0       0x00000000UL        /*!< ALT_MFP4 PA.0 setting for ADC0 */
  96:./bsp/inc/SYS.h **** 
  97:./bsp/inc/SYS.h **** #define SYS_GPA_MFP_PA0_I2C1_SCL    (1UL<<0)            /*!< GPA_MFP PA.0 setting for I2C1_SCL */
  98:./bsp/inc/SYS.h **** #define SYS_ALT_MFP_PA0_I2C1_SCL    NULL                /*!< No ALT_MFP setting for PA.0 */
  99:./bsp/inc/SYS.h **** #define SYS_ALT_MFP1_PA0_I2C1_SCL   NULL                /*!< No ALT_MFP1 setting for PA.0 */
 100:./bsp/inc/SYS.h **** #define SYS_ALT_MFP2_PA0_I2C1_SCL   NULL                /*!< No ALT_MFP2 setting for PA.0 */
 101:./bsp/inc/SYS.h **** #define SYS_ALT_MFP3_PA0_I2C1_SCL   0x00000000UL        /*!< ALT_MFP3 PA.0 setting for I2C1_SCL */
 102:./bsp/inc/SYS.h **** #define SYS_ALT_MFP4_PA0_I2C1_SCL   (1UL<<12)           /*!< ALT_MFP4 PA.0 setting for I2C1_SCL */
 103:./bsp/inc/SYS.h **** 
 104:./bsp/inc/SYS.h **** #define SYS_GPA_MFP_PA0_UART5_TXD   (1UL<<0)            /*!< GPA_MFP PA.0 setting for UART5_TXD */
 105:./bsp/inc/SYS.h **** #define SYS_ALT_MFP_PA0_UART5_TXD   NULL                /*!< No ALT_MFP setting for PA.0 */
 106:./bsp/inc/SYS.h **** #define SYS_ALT_MFP1_PA0_UART5_TXD  NULL                /*!< No ALT_MFP1 setting for PA.0 */
 107:./bsp/inc/SYS.h **** #define SYS_ALT_MFP2_PA0_UART5_TXD  NULL                /*!< No ALT_MFP2 setting for PA.0 */
 108:./bsp/inc/SYS.h **** #define SYS_ALT_MFP3_PA0_UART5_TXD  0x00000000UL        /*!< ALT_MFP3 PA.0 setting for UART5_TXD */
 109:./bsp/inc/SYS.h **** #define SYS_ALT_MFP4_PA0_UART5_TXD  (1UL<<7)            /*!< ALT_MFP4 PA.0 setting for UART5_TXD */
 110:./bsp/inc/SYS.h **** 
 111:./bsp/inc/SYS.h **** #define SYS_GPA_MFP_PA0_PWM0_CH4    (1UL<<0)            /*!< GPA_MFP PA.0 setting for PWM0_CH4 */
 112:./bsp/inc/SYS.h **** #define SYS_ALT_MFP_PA0_PWM0_CH4    NULL                /*!< No ALT_MFP setting for PA.0 */
 113:./bsp/inc/SYS.h **** #define SYS_ALT_MFP1_PA0_PWM0_CH4   NULL                /*!< No ALT_MFP1 setting for PA.0 */
 114:./bsp/inc/SYS.h **** #define SYS_ALT_MFP2_PA0_PWM0_CH4   NULL                /*!< No ALT_MFP2 setting for PA.0 */
 115:./bsp/inc/SYS.h **** #define SYS_ALT_MFP3_PA0_PWM0_CH4   (1UL<<4)            /*!< ALT_MFP3 PA.0 setting for PWM0_CH4 */
 116:./bsp/inc/SYS.h **** #define SYS_ALT_MFP4_PA0_PWM0_CH4   0x00000000UL        /*!< ALT_MFP4 PA.0 setting for PWM0_CH4 */
 117:./bsp/inc/SYS.h **** 
 118:./bsp/inc/SYS.h **** #define SYS_GPA_MFP_PA0_Msk         (1UL<<0)            /*!< GPA_MFP PA.0 mask */
 119:./bsp/inc/SYS.h **** #define SYS_ALT_MFP_PA0_Msk         NULL                /*!< No ALT_MFP PA.0 mask */
 120:./bsp/inc/SYS.h **** #define SYS_ALT_MFP1_PA0_Msk        NULL                /*!< No ALT_MFP1 PA.0 mask */
 121:./bsp/inc/SYS.h **** #define SYS_ALT_MFP2_PA0_Msk        NULL                /*!< No ALT_MFP2 PA.0 mask */
 122:./bsp/inc/SYS.h **** #define SYS_ALT_MFP3_PA0_Msk        (1UL<<4)            /*!< ALT_MFP3 PA.0 mask */
 123:./bsp/inc/SYS.h **** #define SYS_ALT_MFP4_PA0_Msk        (1UL<<12)|(1UL<<7)  /*!< ALT_MFP4 PA.0 mask */
 124:./bsp/inc/SYS.h **** 
 125:./bsp/inc/SYS.h **** //PA.1
 126:./bsp/inc/SYS.h **** #define SYS_GPA_MFP_PA1_GPIO        0x00000000UL        /*!< GPA_MFP PA.1 setting for GPIO */
 127:./bsp/inc/SYS.h **** #define SYS_ALT_MFP_PA1_GPIO        NULL                /*!< No ALT_MFP setting for PA.1 */
 128:./bsp/inc/SYS.h **** #define SYS_ALT_MFP1_PA1_GPIO       NULL                /*!< No ALT_MFP1 setting for PA.1 */
 129:./bsp/inc/SYS.h **** #define SYS_ALT_MFP2_PA1_GPIO       NULL                /*!< No ALT_MFP2 setting for PA.1 */
 130:./bsp/inc/SYS.h **** #define SYS_ALT_MFP3_PA1_GPIO       0x00000000UL        /*!< ALT_MFP3 PA.1 setting for GPIO */
 131:./bsp/inc/SYS.h **** #define SYS_ALT_MFP4_PA1_GPIO       0x00000000UL        /*!< ALT_MFP4 PA.1 setting for GPIO */
 132:./bsp/inc/SYS.h **** 
 133:./bsp/inc/SYS.h **** #define SYS_GPA_MFP_PA1_ADC1        (1UL<<1)            /*!< GPA_MFP PA.1 setting for ADC1 */
 134:./bsp/inc/SYS.h **** #define SYS_ALT_MFP_PA1_ADC1        NULL                /*!< No ALT_MFP setting for PA.1 */
 135:./bsp/inc/SYS.h **** #define SYS_ALT_MFP1_PA1_ADC1       NULL                /*!< No ALT_MFP1 setting for PA.1 */
 136:./bsp/inc/SYS.h **** #define SYS_ALT_MFP2_PA1_ADC1       NULL                /*!< No ALT_MFP2 setting for PA.1 */
 137:./bsp/inc/SYS.h **** #define SYS_ALT_MFP3_PA1_ADC1       0x00000000UL        /*!< ALT_MFP3 PA.1 setting for ADC1 */
 138:./bsp/inc/SYS.h **** #define SYS_ALT_MFP4_PA1_ADC1       0x00000000UL        /*!< ALT_MFP4 PA.1 setting for ADC1 */
 139:./bsp/inc/SYS.h **** 
 140:./bsp/inc/SYS.h **** #define SYS_GPA_MFP_PA1_I2C1_SDA    (1UL<<1)            /*!< GPA_MFP PA.1 setting for I2C1_SDA */
 141:./bsp/inc/SYS.h **** #define SYS_ALT_MFP_PA1_I2C1_SDA    NULL                /*!< No ALT_MFP setting for PA.1 */
 142:./bsp/inc/SYS.h **** #define SYS_ALT_MFP1_PA1_I2C1_SDA   NULL                /*!< No ALT_MFP1 setting for PA.1 */
 143:./bsp/inc/SYS.h **** #define SYS_ALT_MFP2_PA1_I2C1_SDA   NULL                /*!< No ALT_MFP2 setting for PA.1 */
 144:./bsp/inc/SYS.h **** #define SYS_ALT_MFP3_PA1_I2C1_SDA   0x00000000UL        /*!< ALT_MFP3 PA.1 setting for I2C1_SDA */
 145:./bsp/inc/SYS.h **** #define SYS_ALT_MFP4_PA1_I2C1_SDA   (1UL<<13)           /*!< ALT_MFP4 PA.1 setting for I2C1_SDA */
 146:./bsp/inc/SYS.h **** 
 147:./bsp/inc/SYS.h **** #define SYS_GPA_MFP_PA1_UART5_RXD   (1UL<<1)            /*!< GPA_MFP PA.1 setting for UART5_RXD */
 148:./bsp/inc/SYS.h **** #define SYS_ALT_MFP_PA1_UART5_RXD   NULL                /*!< No ALT_MFP setting for PA.1 */
 149:./bsp/inc/SYS.h **** #define SYS_ALT_MFP1_PA1_UART5_RXD  NULL                /*!< No ALT_MFP1 setting for PA.1 */
 150:./bsp/inc/SYS.h **** #define SYS_ALT_MFP2_PA1_UART5_RXD  NULL                /*!< No ALT_MFP2 setting for PA.1 */
 151:./bsp/inc/SYS.h **** #define SYS_ALT_MFP3_PA1_UART5_RXD  0x00000000UL        /*!< ALT_MFP3 PA.1 setting for UART5_RXD */
 152:./bsp/inc/SYS.h **** #define SYS_ALT_MFP4_PA1_UART5_RXD  (1UL<<6)            /*!< ALT_MFP4 PA.1 setting for UART5_RXD */
 153:./bsp/inc/SYS.h **** 
 154:./bsp/inc/SYS.h **** #define SYS_GPA_MFP_PA1_PWM0_CH5    (1UL<<1)            /*!< GPA_MFP PA.1 setting for PWM0_CH5 */
 155:./bsp/inc/SYS.h **** #define SYS_ALT_MFP_PA1_PWM0_CH5    NULL                /*!< No ALT_MFP setting for PA.1 */
 156:./bsp/inc/SYS.h **** #define SYS_ALT_MFP1_PA1_PWM0_CH5   NULL                /*!< No ALT_MFP1 setting for PA.1 */
 157:./bsp/inc/SYS.h **** #define SYS_ALT_MFP2_PA1_PWM0_CH5   NULL                /*!< No ALT_MFP2 setting for PA.1 */
 158:./bsp/inc/SYS.h **** #define SYS_ALT_MFP3_PA1_PWM0_CH5   (1UL<<5)            /*!< ALT_MFP3 PA.1 setting for PWM0_CH5 */
 159:./bsp/inc/SYS.h **** #define SYS_ALT_MFP4_PA1_PWM0_CH5   0x00000000UL        /*!< ALT_MFP4 PA.1 setting for PWM0_CH5 */
 160:./bsp/inc/SYS.h **** 
 161:./bsp/inc/SYS.h **** #define SYS_GPA_MFP_PA1_Msk         (1UL<<1)            /*!< GPA_MFP PA.1 mask */
 162:./bsp/inc/SYS.h **** #define SYS_ALT_MFP_PA1_Msk         NULL                /*!< No ALT_MFP PA.1 mask */
 163:./bsp/inc/SYS.h **** #define SYS_ALT_MFP1_PA1_Msk        NULL                /*!< No ALT_MFP1 PA.1 mask */
 164:./bsp/inc/SYS.h **** #define SYS_ALT_MFP2_PA1_Msk        NULL                /*!< No ALT_MFP2 PA.1 mask */
 165:./bsp/inc/SYS.h **** #define SYS_ALT_MFP3_PA1_Msk        (1UL<<5)            /*!< ALT_MFP3 PA.1 mask */
 166:./bsp/inc/SYS.h **** #define SYS_ALT_MFP4_PA1_Msk        (1UL<<13)|(1UL<<6)  /*!< ALT_MFP4 PA.1 mask */
 167:./bsp/inc/SYS.h **** 
 168:./bsp/inc/SYS.h **** //PA.2
 169:./bsp/inc/SYS.h **** #define SYS_GPA_MFP_PA2_GPIO        0x00000000UL        /*!< GPA_MFP PA.2 setting for GPIO */
 170:./bsp/inc/SYS.h **** #define SYS_ALT_MFP_PA2_GPIO        NULL                /*!< No ALT_MFP setting for PA.2 */
 171:./bsp/inc/SYS.h **** #define SYS_ALT_MFP1_PA2_GPIO       NULL                /*!< No ALT_MFP1 setting for PA.2 */
 172:./bsp/inc/SYS.h **** #define SYS_ALT_MFP2_PA2_GPIO       NULL                /*!< No ALT_MFP2 setting for PA.2 */
 173:./bsp/inc/SYS.h **** #define SYS_ALT_MFP3_PA2_GPIO       0x00000000UL        /*!< ALT_MFP3 PA.2 setting for GPIO */
 174:./bsp/inc/SYS.h **** #define SYS_ALT_MFP4_PA2_GPIO       0x00000000UL        /*!< ALT_MFP4 PA.2 setting for GPIO */
 175:./bsp/inc/SYS.h **** 
 176:./bsp/inc/SYS.h **** #define SYS_GPA_MFP_PA2_ADC2        (1UL<<2)            /*!< GPA_MFP PA.2 setting for ADC2 */
 177:./bsp/inc/SYS.h **** #define SYS_ALT_MFP_PA2_ADC2        NULL                /*!< No ALT_MFP setting for PA.2 */
 178:./bsp/inc/SYS.h **** #define SYS_ALT_MFP1_PA2_ADC2       NULL                /*!< No ALT_MFP1 setting for PA.2 */
 179:./bsp/inc/SYS.h **** #define SYS_ALT_MFP2_PA2_ADC2       NULL                /*!< No ALT_MFP2 setting for PA.2 */
 180:./bsp/inc/SYS.h **** #define SYS_ALT_MFP3_PA2_ADC2       0x00000000UL        /*!< ALT_MFP3 PA.2 setting for ADC2 */
 181:./bsp/inc/SYS.h **** #define SYS_ALT_MFP4_PA2_ADC2       0x00000000UL        /*!< ALT_MFP4 PA.2 setting for ADC2 */
 182:./bsp/inc/SYS.h **** 
 183:./bsp/inc/SYS.h **** #define SYS_GPA_MFP_PA2_UART3_TXD   (1UL<<2)            /*!< GPA_MFP PA.2 setting for UART3_TXD */
 184:./bsp/inc/SYS.h **** #define SYS_ALT_MFP_PA2_UART3_TXD   NULL                /*!< No ALT_MFP setting for PA.2 */
 185:./bsp/inc/SYS.h **** #define SYS_ALT_MFP1_PA2_UART3_TXD  NULL                /*!< No ALT_MFP1 setting for PA.2 */
 186:./bsp/inc/SYS.h **** #define SYS_ALT_MFP2_PA2_UART3_TXD  NULL                /*!< No ALT_MFP2 setting for PA.2 */
 187:./bsp/inc/SYS.h **** #define SYS_ALT_MFP3_PA2_UART3_TXD  0x00000000UL        /*!< ALT_MFP3 PA.2 setting for UART3_TXD */
 188:./bsp/inc/SYS.h **** #define SYS_ALT_MFP4_PA2_UART3_TXD  (1UL<<3)            /*!< ALT_MFP4 PA.2 setting for UART3_TXD */
 189:./bsp/inc/SYS.h **** 
 190:./bsp/inc/SYS.h **** #define SYS_GPA_MFP_PA2_PWM1_CH0    (1UL<<2)            /*!< GPA_MFP PA.2 setting for PWM1_CH0 */
 191:./bsp/inc/SYS.h **** #define SYS_ALT_MFP_PA2_PWM1_CH0    NULL                /*!< No ALT_MFP setting for PA.2 */
 192:./bsp/inc/SYS.h **** #define SYS_ALT_MFP1_PA2_PWM1_CH0   NULL                /*!< No ALT_MFP1 setting for PA.2 */
 193:./bsp/inc/SYS.h **** #define SYS_ALT_MFP2_PA2_PWM1_CH0   NULL                /*!< No ALT_MFP2 setting for PA.2 */
 194:./bsp/inc/SYS.h **** #define SYS_ALT_MFP3_PA2_PWM1_CH0   (1UL<<6)            /*!< ALT_MFP3 PA.2 setting for PWM1_CH0 */
 195:./bsp/inc/SYS.h **** #define SYS_ALT_MFP4_PA2_PWM1_CH0   0x00000000UL        /*!< ALT_MFP4 PA.2 setting for PWM1_CH0 */
 196:./bsp/inc/SYS.h **** 
 197:./bsp/inc/SYS.h **** #define SYS_GPA_MFP_PA2_Msk         (1UL<<2)            /*!< GPA_MFP PA.2 mask */
 198:./bsp/inc/SYS.h **** #define SYS_ALT_MFP_PA2_Msk         NULL                /*!< No ALT_MFP PA.2 mask */
 199:./bsp/inc/SYS.h **** #define SYS_ALT_MFP1_PA2_Msk        NULL                /*!< No ALT_MFP1 PA.2 mask */
 200:./bsp/inc/SYS.h **** #define SYS_ALT_MFP2_PA2_Msk        NULL                /*!< No ALT_MFP2 PA.2 mask */
 201:./bsp/inc/SYS.h **** #define SYS_ALT_MFP3_PA2_Msk        (1UL<<6)            /*!< ALT_MFP3 PA.2 mask */
 202:./bsp/inc/SYS.h **** #define SYS_ALT_MFP4_PA2_Msk        (1UL<<3)            /*!< ALT_MFP4 PA.2 mask */
 203:./bsp/inc/SYS.h **** 
 204:./bsp/inc/SYS.h **** //PA.3
 205:./bsp/inc/SYS.h **** #define SYS_GPA_MFP_PA3_GPIO        0x00000000UL        /*!< GPA_MFP PA.3 setting for GPIO */
 206:./bsp/inc/SYS.h **** #define SYS_ALT_MFP_PA3_GPIO        NULL                /*!< No ALT_MFP setting for PA.3 */
 207:./bsp/inc/SYS.h **** #define SYS_ALT_MFP1_PA3_GPIO       NULL                /*!< No ALT_MFP1 setting for PA.3 */
 208:./bsp/inc/SYS.h **** #define SYS_ALT_MFP2_PA3_GPIO       NULL                /*!< No ALT_MFP2 setting for PA.3 */
 209:./bsp/inc/SYS.h **** #define SYS_ALT_MFP3_PA3_GPIO       0x00000000UL        /*!< ALT_MFP3 PA.3 setting for GPIO */
 210:./bsp/inc/SYS.h **** #define SYS_ALT_MFP4_PA3_GPIO       0x00000000UL        /*!< ALT_MFP4 PA.3 setting for GPIO */
 211:./bsp/inc/SYS.h **** 
 212:./bsp/inc/SYS.h **** #define SYS_GPA_MFP_PA3_ADC3        (1UL<<3)            /*!< GPA_MFP PA.3 setting for ADC3 */
 213:./bsp/inc/SYS.h **** #define SYS_ALT_MFP_PA3_ADC3        NULL                /*!< No ALT_MFP setting for PA.3 */
 214:./bsp/inc/SYS.h **** #define SYS_ALT_MFP1_PA3_ADC3       NULL                /*!< No ALT_MFP1 setting for PA.3 */
 215:./bsp/inc/SYS.h **** #define SYS_ALT_MFP2_PA3_ADC3       NULL                /*!< No ALT_MFP2 setting for PA.3 */
 216:./bsp/inc/SYS.h **** #define SYS_ALT_MFP3_PA3_ADC3       0x00000000UL        /*!< ALT_MFP3 PA.3 setting for ADC3 */
 217:./bsp/inc/SYS.h **** #define SYS_ALT_MFP4_PA3_ADC3       0x00000000UL        /*!< ALT_MFP4 PA.3 setting for ADC3 */
 218:./bsp/inc/SYS.h **** 
 219:./bsp/inc/SYS.h **** #define SYS_GPA_MFP_PA3_UART3_TXD   (1UL<<3)            /*!< GPA_MFP PA.3 setting for UART3_TXD */
 220:./bsp/inc/SYS.h **** #define SYS_ALT_MFP_PA3_UART3_TXD   NULL                /*!< No ALT_MFP setting for PA.3 */
 221:./bsp/inc/SYS.h **** #define SYS_ALT_MFP1_PA3_UART3_TXD  NULL                /*!< No ALT_MFP1 setting for PA.3 */
 222:./bsp/inc/SYS.h **** #define SYS_ALT_MFP2_PA3_UART3_TXD  NULL                /*!< No ALT_MFP2 setting for PA.3 */
 223:./bsp/inc/SYS.h **** #define SYS_ALT_MFP3_PA3_UART3_TXD  0x00000000UL        /*!< ALT_MFP3 PA.3 setting for UART3_TXD */
 224:./bsp/inc/SYS.h **** #define SYS_ALT_MFP4_PA3_UART3_TXD  (1UL<<2)            /*!< ALT_MFP4 PA.3 setting for UART3_TXD */
 225:./bsp/inc/SYS.h **** 
 226:./bsp/inc/SYS.h **** #define SYS_GPA_MFP_PA3_PWM1_CH1    (1UL<<3)            /*!< GPA_MFP PA.3 setting for PWM1_CH1 */
 227:./bsp/inc/SYS.h **** #define SYS_ALT_MFP_PA3_PWM1_CH1    NULL                /*!< No ALT_MFP setting for PA.3 */
 228:./bsp/inc/SYS.h **** #define SYS_ALT_MFP1_PA3_PWM1_CH1   NULL                /*!< No ALT_MFP1 setting for PA.3 */
 229:./bsp/inc/SYS.h **** #define SYS_ALT_MFP2_PA3_PWM1_CH1   NULL                /*!< No ALT_MFP2 setting for PA.3 */
 230:./bsp/inc/SYS.h **** #define SYS_ALT_MFP3_PA3_PWM1_CH1   (1UL<<7)            /*!< ALT_MFP3 PA.3 setting for PWM1_CH1 */
 231:./bsp/inc/SYS.h **** #define SYS_ALT_MFP4_PA3_PWM1_CH1   0x00000000UL        /*!< ALT_MFP4 PA.3 setting for PWM1_CH1 */
 232:./bsp/inc/SYS.h **** 
 233:./bsp/inc/SYS.h **** #define SYS_GPA_MFP_PA3_Msk         (1UL<<3)            /*!< GPA_MFP PA.3 mask */
 234:./bsp/inc/SYS.h **** #define SYS_ALT_MFP_PA3_Msk         NULL                /*!< No ALT_MFP PA.3 mask */
 235:./bsp/inc/SYS.h **** #define SYS_ALT_MFP1_PA3_Msk        NULL                /*!< No ALT_MFP1 PA.3 mask */
 236:./bsp/inc/SYS.h **** #define SYS_ALT_MFP2_PA3_Msk        NULL                /*!< No ALT_MFP2 PA.3 mask */
 237:./bsp/inc/SYS.h **** #define SYS_ALT_MFP3_PA3_Msk        (1UL<<7)            /*!< ALT_MFP3 PA.3 mask */
 238:./bsp/inc/SYS.h **** #define SYS_ALT_MFP4_PA3_Msk        (1UL<<2)            /*!< ALT_MFP4 PA.3 mask */
 239:./bsp/inc/SYS.h **** 
 240:./bsp/inc/SYS.h **** //PA.4
 241:./bsp/inc/SYS.h **** #define SYS_GPA_MFP_PA4_GPIO        0x00000000UL        /*!< GPA_MFP PA.4 setting for GPIO */
 242:./bsp/inc/SYS.h **** #define SYS_ALT_MFP_PA4_GPIO        NULL                /*!< No ALT_MFP setting for PA.4 */
 243:./bsp/inc/SYS.h **** #define SYS_ALT_MFP1_PA4_GPIO       NULL                /*!< No ALT_MFP1 setting for PA.4 */
 244:./bsp/inc/SYS.h **** #define SYS_ALT_MFP2_PA4_GPIO       NULL                /*!< No ALT_MFP2 setting for PA.4 */
 245:./bsp/inc/SYS.h **** #define SYS_ALT_MFP3_PA4_GPIO       NULL                /*!< No ALT_MFP3 setting for PA.4 */
 246:./bsp/inc/SYS.h **** #define SYS_ALT_MFP4_PA4_GPIO       NULL                /*!< No ALT_MFP4 setting for PA.4 */
 247:./bsp/inc/SYS.h **** 
 248:./bsp/inc/SYS.h **** #define SYS_GPA_MFP_PA4_ADC4        (1UL<<4)            /*!< GPA_MFP PA.4 setting for ADC4 */
 249:./bsp/inc/SYS.h **** #define SYS_ALT_MFP_PA4_ADC4        NULL                /*!< No ALT_MFP setting for PA.4 */
 250:./bsp/inc/SYS.h **** #define SYS_ALT_MFP1_PA4_ADC4       NULL                /*!< No ALT_MFP1 setting for PA.4 */
 251:./bsp/inc/SYS.h **** #define SYS_ALT_MFP2_PA4_ADC4       NULL                /*!< No ALT_MFP2 setting for PA.4 */
 252:./bsp/inc/SYS.h **** #define SYS_ALT_MFP3_PA4_ADC4       NULL                /*!< No ALT_MFP3 setting for PA.4 */
 253:./bsp/inc/SYS.h **** #define SYS_ALT_MFP4_PA4_ADC4       NULL                /*!< No ALT_MFP4 setting for PA.4 */
 254:./bsp/inc/SYS.h **** 
 255:./bsp/inc/SYS.h **** #define SYS_GPA_MFP_PA4_Msk         (1UL<<4)            /*!< GPA_MFP PA.4 mask */
 256:./bsp/inc/SYS.h **** #define SYS_ALT_MFP_PA4_Msk         NULL                /*!< No ALT_MFP PA.4 mask */
 257:./bsp/inc/SYS.h **** #define SYS_ALT_MFP1_PA4_Msk        NULL                /*!< No ALT_MFP1 PA.4 mask */
 258:./bsp/inc/SYS.h **** #define SYS_ALT_MFP2_PA4_Msk        NULL                /*!< No ALT_MFP2 PA.4 mask */
 259:./bsp/inc/SYS.h **** #define SYS_ALT_MFP3_PA4_Msk        NULL                /*!< No ALT_MFP3 PA.4 mask */
 260:./bsp/inc/SYS.h **** #define SYS_ALT_MFP4_PA4_Msk        NULL                /*!< No ALT_MFP4 PA.4 mask */
 261:./bsp/inc/SYS.h **** 
 262:./bsp/inc/SYS.h **** //PA.5
 263:./bsp/inc/SYS.h **** #define SYS_GPA_MFP_PA5_GPIO        0x00000000UL        /*!< GPA_MFP PA.5 setting for GPIO */
 264:./bsp/inc/SYS.h **** #define SYS_ALT_MFP_PA5_GPIO        NULL                /*!< No ALT_MFP setting for PA.5 */
 265:./bsp/inc/SYS.h **** #define SYS_ALT_MFP1_PA5_GPIO       NULL                /*!< No ALT_MFP1 setting for PA.5 */
 266:./bsp/inc/SYS.h **** #define SYS_ALT_MFP2_PA5_GPIO       NULL                /*!< No ALT_MFP2 setting for PA.5 */
 267:./bsp/inc/SYS.h **** #define SYS_ALT_MFP3_PA5_GPIO       NULL                /*!< No ALT_MFP3 setting for PA.5 */
 268:./bsp/inc/SYS.h **** #define SYS_ALT_MFP4_PA5_GPIO       0x00000000UL        /*!< ALT_MFP4 PA.5 setting for GPIO */
 269:./bsp/inc/SYS.h **** 
 270:./bsp/inc/SYS.h **** #define SYS_GPA_MFP_PA5_ADC5        (1UL<<5)            /*!< GPA_MFP PA.5 setting for ADC5 */
 271:./bsp/inc/SYS.h **** #define SYS_ALT_MFP_PA5_ADC5        NULL                /*!< No ALT_MFP setting for PA.5 */
 272:./bsp/inc/SYS.h **** #define SYS_ALT_MFP1_PA5_ADC5       NULL                /*!< No ALT_MFP1 setting for PA.5 */
 273:./bsp/inc/SYS.h **** #define SYS_ALT_MFP2_PA5_ADC5       NULL                /*!< No ALT_MFP2 setting for PA.5 */
 274:./bsp/inc/SYS.h **** #define SYS_ALT_MFP3_PA5_ADC5       NULL                /*!< No ALT_MFP3 setting for PA.5 */
 275:./bsp/inc/SYS.h **** #define SYS_ALT_MFP4_PA5_ADC5       0x00000000UL        /*!< ALT_MFP4 PA.5 setting for ADC5 */
 276:./bsp/inc/SYS.h **** 
 277:./bsp/inc/SYS.h **** #define SYS_GPA_MFP_PA5_UART3_RXD   (1UL<<5)            /*!< GPA_MFP PA.5 setting for UART3_RXD */
 278:./bsp/inc/SYS.h **** #define SYS_ALT_MFP_PA5_UART3_RXD   NULL                /*!< No ALT_MFP setting for PA.5 */
 279:./bsp/inc/SYS.h **** #define SYS_ALT_MFP1_PA5_UART3_RXD  NULL                /*!< No ALT_MFP1 setting for PA.5 */
 280:./bsp/inc/SYS.h **** #define SYS_ALT_MFP2_PA5_UART3_RXD  NULL                /*!< No ALT_MFP2 setting for PA.5 */
 281:./bsp/inc/SYS.h **** #define SYS_ALT_MFP3_PA5_UART3_RXD  NULL                /*!< No ALT_MFP3 setting for PA.5 */
 282:./bsp/inc/SYS.h **** #define SYS_ALT_MFP4_PA5_UART3_RXD  (1UL<<4)            /*!< ALT_MFP4 PA.5 setting for UART3_RXD */
 283:./bsp/inc/SYS.h **** 
 284:./bsp/inc/SYS.h **** #define SYS_GPA_MFP_PA5_Msk         (1UL<<5)            /*!< GPA_MFP PA.5 mask */
 285:./bsp/inc/SYS.h **** #define SYS_ALT_MFP_PA5_Msk         NULL                /*!< No ALT_MFP PA.5 mask */
 286:./bsp/inc/SYS.h **** #define SYS_ALT_MFP1_PA5_Msk        NULL                /*!< No ALT_MFP1 PA.5 mask */
 287:./bsp/inc/SYS.h **** #define SYS_ALT_MFP2_PA5_Msk        NULL                /*!< No ALT_MFP2 PA.5 mask */
 288:./bsp/inc/SYS.h **** #define SYS_ALT_MFP3_PA5_Msk        NULL                /*!< No ALT_MFP3 PA.5 mask */
 289:./bsp/inc/SYS.h **** #define SYS_ALT_MFP4_PA5_Msk        (1UL<<4)            /*!< ALT_MFP4 PA.5 mask */
 290:./bsp/inc/SYS.h **** 
 291:./bsp/inc/SYS.h **** //PA.6
 292:./bsp/inc/SYS.h **** #define SYS_GPA_MFP_PA6_GPIO        0x00000000UL        /*!< GPA_MFP PA.6 setting for GPIO */
 293:./bsp/inc/SYS.h **** #define SYS_ALT_MFP_PA6_GPIO        NULL                /*!< No ALT_MFP setting for PA.6 */
 294:./bsp/inc/SYS.h **** #define SYS_ALT_MFP1_PA6_GPIO       NULL                /*!< No ALT_MFP1 setting for PA.6 */
 295:./bsp/inc/SYS.h **** #define SYS_ALT_MFP2_PA6_GPIO       NULL                /*!< No ALT_MFP2 setting for PA.6 */
 296:./bsp/inc/SYS.h **** #define SYS_ALT_MFP3_PA6_GPIO       NULL                /*!< No ALT_MFP3 setting for PA.6 */
 297:./bsp/inc/SYS.h **** #define SYS_ALT_MFP4_PA6_GPIO       0x00000000UL        /*!< ALT_MFP4 PA.6 setting for GPIO */
 298:./bsp/inc/SYS.h **** 
 299:./bsp/inc/SYS.h **** #define SYS_GPA_MFP_PA6_ADC6        (1UL<<6)            /*!< GPA_MFP PA.6 setting for ADC6 */
 300:./bsp/inc/SYS.h **** #define SYS_ALT_MFP_PA6_ADC6        NULL                /*!< No ALT_MFP setting for PA.6 */
 301:./bsp/inc/SYS.h **** #define SYS_ALT_MFP1_PA6_ADC6       NULL                /*!< No ALT_MFP1 setting for PA.6 */
 302:./bsp/inc/SYS.h **** #define SYS_ALT_MFP2_PA6_ADC6       NULL                /*!< No ALT_MFP2 setting for PA.6 */
 303:./bsp/inc/SYS.h **** #define SYS_ALT_MFP3_PA6_ADC6       NULL                /*!< No ALT_MFP3 setting for PA.6 */
 304:./bsp/inc/SYS.h **** #define SYS_ALT_MFP4_PA6_ADC6       0x00000000UL        /*!< ALT_MFP4 PA.6 setting for ADC6 */
 305:./bsp/inc/SYS.h **** 
 306:./bsp/inc/SYS.h **** #define SYS_GPA_MFP_PA6_UART3_TXD   (1UL<<6)            /*!< GPA_MFP PA.6 setting for UART3_TXD */
 307:./bsp/inc/SYS.h **** #define SYS_ALT_MFP_PA6_UART3_TXD   NULL                /*!< No ALT_MFP setting for PA.6 */
 308:./bsp/inc/SYS.h **** #define SYS_ALT_MFP1_PA6_UART3_TXD  NULL                /*!< No ALT_MFP1 setting for PA.6 */
 309:./bsp/inc/SYS.h **** #define SYS_ALT_MFP2_PA6_UART3_TXD  NULL                /*!< No ALT_MFP2 setting for PA.6 */
 310:./bsp/inc/SYS.h **** #define SYS_ALT_MFP3_PA6_UART3_TXD  NULL                /*!< No ALT_MFP3 setting for PA.6 */
 311:./bsp/inc/SYS.h **** #define SYS_ALT_MFP4_PA6_UART3_TXD  (1UL<<5)            /*!< ALT_MFP4 PA.6 setting for UART3_TXD */
 312:./bsp/inc/SYS.h **** 
 313:./bsp/inc/SYS.h **** #define SYS_GPA_MFP_PA6_Msk         (1UL<<6)            /*!< GPA_MFP PA.6 mask */
 314:./bsp/inc/SYS.h **** #define SYS_ALT_MFP_PA6_Msk         NULL                /*!< No ALT_MFP PA.6 mask */
 315:./bsp/inc/SYS.h **** #define SYS_ALT_MFP1_PA6_Msk        NULL                /*!< No ALT_MFP1 PA.6 mask */
 316:./bsp/inc/SYS.h **** #define SYS_ALT_MFP2_PA6_Msk        NULL                /*!< No ALT_MFP2 PA.6 mask */
 317:./bsp/inc/SYS.h **** #define SYS_ALT_MFP3_PA6_Msk        NULL                /*!< No ALT_MFP3 PA.6 mask */
 318:./bsp/inc/SYS.h **** #define SYS_ALT_MFP4_PA6_Msk        (1UL<<5)            /*!< ALT_MFP4 PA.6 mask */
 319:./bsp/inc/SYS.h **** 
 320:./bsp/inc/SYS.h **** //PA.7
 321:./bsp/inc/SYS.h **** #define SYS_GPA_MFP_PA7_GPIO        0x00000000UL        /*!< GPA_MFP PA.7 setting for GPIO */
 322:./bsp/inc/SYS.h **** #define SYS_ALT_MFP_PA7_GPIO        NULL                /*!< No ALT_MFP setting for PA.7 */
 323:./bsp/inc/SYS.h **** #define SYS_ALT_MFP1_PA7_GPIO       NULL                /*!< No ALT_MFP1 setting for PA.7 */
 324:./bsp/inc/SYS.h **** #define SYS_ALT_MFP2_PA7_GPIO       NULL                /*!< No ALT_MFP2 setting for PA.7 */
 325:./bsp/inc/SYS.h **** #define SYS_ALT_MFP3_PA7_GPIO       NULL                /*!< No ALT_MFP3 setting for PA.7 */
 326:./bsp/inc/SYS.h **** #define SYS_ALT_MFP4_PA7_GPIO       0x00000000UL        /*!< ALT_MFP4 PA.7 setting for GPIO */
 327:./bsp/inc/SYS.h **** 
 328:./bsp/inc/SYS.h **** #define SYS_GPA_MFP_PA7_ADC7        (1UL<<7)            /*!< GPA_MFP PA.7 setting for ADC7 */
 329:./bsp/inc/SYS.h **** #define SYS_ALT_MFP_PA7_ADC7        NULL                /*!< No ALT_MFP setting for PA.7 */
 330:./bsp/inc/SYS.h **** #define SYS_ALT_MFP1_PA7_ADC7       NULL                /*!< No ALT_MFP1 setting for PA.7 */
 331:./bsp/inc/SYS.h **** #define SYS_ALT_MFP2_PA7_ADC7       NULL                /*!< No ALT_MFP2 setting for PA.7 */
 332:./bsp/inc/SYS.h **** #define SYS_ALT_MFP3_PA7_ADC7       NULL                /*!< No ALT_MFP3 setting for PA.7 */
 333:./bsp/inc/SYS.h **** #define SYS_ALT_MFP4_PA7_ADC7       0x00000000UL        /*!< ALT_MFP4 PA.7 setting for ADC7 */
 334:./bsp/inc/SYS.h **** 
 335:./bsp/inc/SYS.h **** #define SYS_GPA_MFP_PA7_VREF        (1UL<<7)            /*!< GPA_MFP PA.7 setting for VREF */
 336:./bsp/inc/SYS.h **** #define SYS_ALT_MFP_PA7_VREF        NULL                /*!< No ALT_MFP setting for PA.7 */
 337:./bsp/inc/SYS.h **** #define SYS_ALT_MFP1_PA7_VREF       NULL                /*!< No ALT_MFP1 setting for PA.7 */
 338:./bsp/inc/SYS.h **** #define SYS_ALT_MFP2_PA7_VREF       NULL                /*!< No ALT_MFP2 setting for PA.7 */
 339:./bsp/inc/SYS.h **** #define SYS_ALT_MFP3_PA7_VREF       NULL                /*!< No ALT_MFP3 setting for PA.7 */
 340:./bsp/inc/SYS.h **** #define SYS_ALT_MFP4_PA7_VREF       (1UL<<14)           /*!< ALT_MFP4 PA.7 setting for VREF */
 341:./bsp/inc/SYS.h **** 
 342:./bsp/inc/SYS.h **** #define SYS_GPA_MFP_PA7_Msk         (1UL<<7)            /*!< GPA_MFP PA.7 mask */
 343:./bsp/inc/SYS.h **** #define SYS_ALT_MFP_PA7_Msk         NULL                /*!< No ALT_MFP PA.7 mask */
 344:./bsp/inc/SYS.h **** #define SYS_ALT_MFP1_PA7_Msk        NULL                /*!< No ALT_MFP1 PA.7 mask */
 345:./bsp/inc/SYS.h **** #define SYS_ALT_MFP2_PA7_Msk        NULL                /*!< No ALT_MFP2 PA.7 mask */
 346:./bsp/inc/SYS.h **** #define SYS_ALT_MFP3_PA7_Msk        NULL                /*!< No ALT_MFP3 PA.7 mask */
 347:./bsp/inc/SYS.h **** #define SYS_ALT_MFP4_PA7_Msk        (1UL<<14)            /*!< ALT_MFP4 PA.7 mask */
 348:./bsp/inc/SYS.h **** 
 349:./bsp/inc/SYS.h **** //PA.8
 350:./bsp/inc/SYS.h **** #define SYS_GPA_MFP_PA8_GPIO        0x00000000UL        /*!< GPA_MFP PA.8 setting for GPIO */
 351:./bsp/inc/SYS.h **** #define SYS_ALT_MFP_PA8_GPIO        NULL                /*!< No ALT_MFP setting for PA.8 */
 352:./bsp/inc/SYS.h **** #define SYS_ALT_MFP1_PA8_GPIO       NULL                /*!< No ALT_MFP1 setting for PA.8 */
 353:./bsp/inc/SYS.h **** #define SYS_ALT_MFP2_PA8_GPIO       NULL                /*!< No ALT_MFP2 setting for PA.8 */
 354:./bsp/inc/SYS.h **** #define SYS_ALT_MFP3_PA8_GPIO       NULL                /*!< No ALT_MFP3 setting for PA.8 */
 355:./bsp/inc/SYS.h **** #define SYS_ALT_MFP4_PA8_GPIO       0x00000000UL        /*!< ALT_MFP4 PA.8 setting for GPIO */
 356:./bsp/inc/SYS.h **** 
 357:./bsp/inc/SYS.h **** #define SYS_GPA_MFP_PA8_I2C0_SDA     (1UL<<8)           /*!< GPA_MFP PA.8 setting for I2C0_SDA */
 358:./bsp/inc/SYS.h **** #define SYS_ALT_MFP_PA8_I2C0_SDA    NULL                /*!< No ALT_MFP setting for PA.8 */
 359:./bsp/inc/SYS.h **** #define SYS_ALT_MFP1_PA8_I2C0_SDA   NULL                /*!< No ALT_MFP1 setting for PA.8 */
 360:./bsp/inc/SYS.h **** #define SYS_ALT_MFP2_PA8_I2C0_SDA   NULL                /*!< No ALT_MFP2 setting for PA.8 */
 361:./bsp/inc/SYS.h **** #define SYS_ALT_MFP3_PA8_I2C0_SDA   NULL                /*!< No ALT_MFP3 setting for PA.8 */
 362:./bsp/inc/SYS.h **** #define SYS_ALT_MFP4_PA8_I2C0_SDA   0x00000000UL        /*!< ALT_MFP4 PA.8 setting for I2C0_SDA */
 363:./bsp/inc/SYS.h **** 
 364:./bsp/inc/SYS.h **** #define SYS_GPA_MFP_PA8_UART_nRTS    (1UL<<8)           /*!< GPA_MFP PA.8 setting for UART_nRTS */
 365:./bsp/inc/SYS.h **** #define SYS_ALT_MFP_PA8_UART_nRTS   NULL                /*!< No ALT_MFP setting for PA.8 */
 366:./bsp/inc/SYS.h **** #define SYS_ALT_MFP1_PA8_UART_nRTS  NULL                /*!< No ALT_MFP1 setting for PA.8 */
 367:./bsp/inc/SYS.h **** #define SYS_ALT_MFP2_PA8_UART_nRTS  NULL                /*!< No ALT_MFP2 setting for PA.8 */
 368:./bsp/inc/SYS.h **** #define SYS_ALT_MFP3_PA8_UART_nRTS  NULL                /*!< No ALT_MFP3 setting for PA.8 */
 369:./bsp/inc/SYS.h **** #define SYS_ALT_MFP4_PA8_UART_nRTS  (1UL<<0)            /*!< ALT_MFP4 PA.8 setting for UART_nRTS */
 370:./bsp/inc/SYS.h **** 
 371:./bsp/inc/SYS.h **** #define SYS_GPA_MFP_PA8_Msk         (1UL<<8)            /*!< GPA_MFP PA.8 mask */
 372:./bsp/inc/SYS.h **** #define SYS_ALT_MFP_PA8_Msk         NULL                /*!< No ALT_MFP PA.8 mask */
 373:./bsp/inc/SYS.h **** #define SYS_ALT_MFP1_PA8_Msk        NULL                /*!< No ALT_MFP1 PA.8 mask */
 374:./bsp/inc/SYS.h **** #define SYS_ALT_MFP2_PA8_Msk        NULL                /*!< No ALT_MFP2 PA.8 mask */
 375:./bsp/inc/SYS.h **** #define SYS_ALT_MFP3_PA8_Msk        NULL                /*!< No ALT_MFP3 PA.8 mask */
 376:./bsp/inc/SYS.h **** #define SYS_ALT_MFP4_PA8_Msk        (1UL<<0)            /*!< ALT_MFP4 PA.8 mask */
 377:./bsp/inc/SYS.h **** 
 378:./bsp/inc/SYS.h **** //PA.9
 379:./bsp/inc/SYS.h **** #define SYS_GPA_MFP_PA9_GPIO        0x00000000UL        /*!< GPA_MFP PA.9 setting for GPIO */
 380:./bsp/inc/SYS.h **** #define SYS_ALT_MFP_PA9_GPIO        NULL                /*!< No ALT_MFP setting for PA.9 */
 381:./bsp/inc/SYS.h **** #define SYS_ALT_MFP1_PA9_GPIO       NULL                /*!< No ALT_MFP1 setting for PA.9 */
 382:./bsp/inc/SYS.h **** #define SYS_ALT_MFP2_PA9_GPIO       NULL                /*!< No ALT_MFP2 setting for PA.9 */
 383:./bsp/inc/SYS.h **** #define SYS_ALT_MFP3_PA9_GPIO       NULL                /*!< No ALT_MFP3 setting for PA.9 */
 384:./bsp/inc/SYS.h **** #define SYS_ALT_MFP4_PA9_GPIO       0x00000000UL        /*!< ALT_MFP4 PA.9 setting for GPIO */
 385:./bsp/inc/SYS.h **** 
 386:./bsp/inc/SYS.h **** #define SYS_GPA_MFP_PA9_I2C0_SCL    (1UL<<9)            /*!< GPA_MFP PA.9 setting for I2C0_SCL */
 387:./bsp/inc/SYS.h **** #define SYS_ALT_MFP_PA9_I2C0_SCL    NULL                /*!< No ALT_MFP setting for PA.9 */
 388:./bsp/inc/SYS.h **** #define SYS_ALT_MFP1_PA9_I2C0_SCL   NULL                /*!< No ALT_MFP1 setting for PA.9 */
 389:./bsp/inc/SYS.h **** #define SYS_ALT_MFP2_PA9_I2C0_SCL   NULL                /*!< No ALT_MFP2 setting for PA.9 */
 390:./bsp/inc/SYS.h **** #define SYS_ALT_MFP3_PA9_I2C0_SCL   NULL                /*!< No ALT_MFP3 setting for PA.9 */
 391:./bsp/inc/SYS.h **** #define SYS_ALT_MFP4_PA9_I2C0_SCL   0x00000000UL        /*!< ALT_MFP4 PA.9 setting for I2C0_SCL */
 392:./bsp/inc/SYS.h **** 
 393:./bsp/inc/SYS.h **** #define SYS_GPA_MFP_PA9_UART1_nCTS   (1UL<<9)           /*!< GPA_MFP PA.9 setting for UART1_nCTS */
 394:./bsp/inc/SYS.h **** #define SYS_ALT_MFP_PA9_UART1_nCTS   NULL               /*!< No ALT_MFP setting for PA.9 */
 395:./bsp/inc/SYS.h **** #define SYS_ALT_MFP1_PA9_UART1_nCTS  NULL               /*!< No ALT_MFP1 setting for PA.9 */
 396:./bsp/inc/SYS.h **** #define SYS_ALT_MFP2_PA9_UART1_nCTS  NULL               /*!< No ALT_MFP2 setting for PA.9 */
 397:./bsp/inc/SYS.h **** #define SYS_ALT_MFP3_PA9_UART1_nCTS  NULL               /*!< No ALT_MFP3 setting for PA.9 */
 398:./bsp/inc/SYS.h **** #define SYS_ALT_MFP4_PA9_UART1_nCTS  (1UL<<1)           /*!< ALT_MFP4 PA.9 setting for UART1_nCTS *
 399:./bsp/inc/SYS.h **** 
 400:./bsp/inc/SYS.h **** #define SYS_GPA_MFP_PA9_Msk          (1UL<<9)           /*!< GPA_MFP PA.9 mask */
 401:./bsp/inc/SYS.h **** #define SYS_ALT_MFP_PA9_Msk          NULL               /*!< No ALT_MFP PA.9 mask */
 402:./bsp/inc/SYS.h **** #define SYS_ALT_MFP1_PA9_Msk         NULL               /*!< No ALT_MFP1 PA.9 mask */
 403:./bsp/inc/SYS.h **** #define SYS_ALT_MFP2_PA9_Msk         NULL               /*!< No ALT_MFP2 PA.9 mask */
 404:./bsp/inc/SYS.h **** #define SYS_ALT_MFP3_PA9_Msk         NULL               /*!< No ALT_MFP3 PA.9 mask */
 405:./bsp/inc/SYS.h **** #define SYS_ALT_MFP4_PA9_Msk         (1UL<<1)           /*!< ALT_MFP4 PA.9 mask */
 406:./bsp/inc/SYS.h **** 
 407:./bsp/inc/SYS.h **** //PA.10
 408:./bsp/inc/SYS.h **** #define SYS_GPA_MFP_PA10_GPIO        0x00000000UL       /*!< GPA_MFP PA.10 setting for GPIO */
 409:./bsp/inc/SYS.h **** #define SYS_ALT_MFP_PA10_GPIO        NULL               /*!< No ALT_MFP setting for PA.10 */
 410:./bsp/inc/SYS.h **** #define SYS_ALT_MFP1_PA10_GPIO       NULL               /*!< No ALT_MFP1 setting for PA.10 */
 411:./bsp/inc/SYS.h **** #define SYS_ALT_MFP2_PA10_GPIO       NULL               /*!< No ALT_MFP2 setting for PA.10 */
 412:./bsp/inc/SYS.h **** #define SYS_ALT_MFP3_PA10_GPIO       0x00000000UL       /*!< ALT_MFP3 PA.10 setting for GPIO */
 413:./bsp/inc/SYS.h **** #define SYS_ALT_MFP4_PA10_GPIO       NULL               /*!< No ALT_MFP4 setting for PA.10 */
 414:./bsp/inc/SYS.h **** 
 415:./bsp/inc/SYS.h **** #define SYS_GPA_MFP_PA10_I2C1_SDA    (1UL<<10)          /*!< GPA_MFP PA.10 setting for I2C1_SDA */
 416:./bsp/inc/SYS.h **** #define SYS_ALT_MFP_PA10_I2C1_SDA    NULL               /*!< No ALT_MFP setting for PA.10 */
 417:./bsp/inc/SYS.h **** #define SYS_ALT_MFP1_PA10_I2C1_SDA   NULL               /*!< No ALT_MFP1 setting for PA.10 */
 418:./bsp/inc/SYS.h **** #define SYS_ALT_MFP2_PA10_I2C1_SDA   NULL               /*!< No ALT_MFP2 setting for PA.10 */
 419:./bsp/inc/SYS.h **** #define SYS_ALT_MFP3_PA10_I2C1_SDA   0x00000000UL       /*!< ALT_MFP3 PA.10 setting for I2C1_SDA */
 420:./bsp/inc/SYS.h **** #define SYS_ALT_MFP4_PA10_I2C1_SDA   NULL               /*!< No ALT_MFP4 setting for PA.10 */
 421:./bsp/inc/SYS.h **** 
 422:./bsp/inc/SYS.h **** #define SYS_GPA_MFP_PA10_PWM1_CH2    (1UL<<10)          /*!< GPA_MFP PA.10 setting for PWM1_CH2 */
 423:./bsp/inc/SYS.h **** #define SYS_ALT_MFP_PA10_PWM1_CH2    NULL               /*!< No ALT_MFP setting for PA.10 */
 424:./bsp/inc/SYS.h **** #define SYS_ALT_MFP1_PA10_PWM1_CH2   NULL               /*!< No ALT_MFP1 setting for PA.10 */
 425:./bsp/inc/SYS.h **** #define SYS_ALT_MFP2_PA10_PWM1_CH2   NULL               /*!< No ALT_MFP2 setting for PA.10 */
 426:./bsp/inc/SYS.h **** #define SYS_ALT_MFP3_PA10_PWM1_CH2   (1UL<<8)           /*!< ALT_MFP3 PA.10 setting for PWM1_CH2 */
 427:./bsp/inc/SYS.h **** #define SYS_ALT_MFP4_PA10_PWM1_CH2   NULL               /*!< No ALT_MFP4 setting for PA.10 */
 428:./bsp/inc/SYS.h **** 
 429:./bsp/inc/SYS.h **** #define SYS_GPA_MFP_PA10_Msk         (1UL<<10)          /*!< GPA_MFP PA.10 mask */
 430:./bsp/inc/SYS.h **** #define SYS_ALT_MFP_PA10_Msk         NULL               /*!< No ALT_MFP PA.10 mask */
 431:./bsp/inc/SYS.h **** #define SYS_ALT_MFP1_PA10_Msk        NULL               /*!< No ALT_MFP1 PA.10 mask */
 432:./bsp/inc/SYS.h **** #define SYS_ALT_MFP2_PA10_Msk        NULL               /*!< No ALT_MFP2 PA.10 mask */
 433:./bsp/inc/SYS.h **** #define SYS_ALT_MFP3_PA10_Msk        (1UL<<8)           /*!< ALT_MFP3 PA.10 mask */
 434:./bsp/inc/SYS.h **** #define SYS_ALT_MFP4_PA10_Msk        NULL               /*!< No ALT_MFP4 PA.10 mask */
 435:./bsp/inc/SYS.h **** 
 436:./bsp/inc/SYS.h **** //PA.11
 437:./bsp/inc/SYS.h **** #define SYS_GPA_MFP_PA11_GPIO        0x00000000UL       /*!< GPA_MFP PA.11 setting for GPIO */
 438:./bsp/inc/SYS.h **** #define SYS_ALT_MFP_PA11_GPIO        NULL               /*!< No ALT_MFP setting for PA.11 */
 439:./bsp/inc/SYS.h **** #define SYS_ALT_MFP1_PA11_GPIO       NULL               /*!< No ALT_MFP1 setting for PA.11 */
 440:./bsp/inc/SYS.h **** #define SYS_ALT_MFP2_PA11_GPIO       NULL               /*!< No ALT_MFP2 setting for PA.11 */
 441:./bsp/inc/SYS.h **** #define SYS_ALT_MFP3_PA11_GPIO       0x00000000UL       /*!< ALT_MFP3 PA.11 setting for GPIO */
 442:./bsp/inc/SYS.h **** #define SYS_ALT_MFP4_PA11_GPIO       NULL               /*!< No ALT_MFP4 setting for PA.11 */
 443:./bsp/inc/SYS.h **** 
 444:./bsp/inc/SYS.h **** #define SYS_GPA_MFP_PA11_I2C1_SCL    (1UL<<11)          /*!< GPA_MFP PA.11 setting for I2C1_SCL */
 445:./bsp/inc/SYS.h **** #define SYS_ALT_MFP_PA11_I2C1_SCL    NULL               /*!< No ALT_MFP setting for PA.11 */
 446:./bsp/inc/SYS.h **** #define SYS_ALT_MFP1_PA11_I2C1_SCL   NULL               /*!< No ALT_MFP1 setting for PA.11 */
 447:./bsp/inc/SYS.h **** #define SYS_ALT_MFP2_PA11_I2C1_SCL   NULL               /*!< No ALT_MFP2 setting for PA.11 */
 448:./bsp/inc/SYS.h **** #define SYS_ALT_MFP3_PA11_I2C1_SCL   0x00000000UL       /*!< ALT_MFP3 PA.11 setting for I2C1_SCL */
 449:./bsp/inc/SYS.h **** #define SYS_ALT_MFP4_PA11_I2C1_SCL   NULL               /*!< No ALT_MFP4 setting for PA.11 */
 450:./bsp/inc/SYS.h **** 
 451:./bsp/inc/SYS.h **** #define SYS_GPA_MFP_PA11_PWM1_CH3    (1UL<<11)          /*!< GPA_MFP PA.11 setting for PWM1_CH3 */
 452:./bsp/inc/SYS.h **** #define SYS_ALT_MFP_PA11_PWM1_CH3    NULL               /*!< No ALT_MFP setting for PA.11 */
 453:./bsp/inc/SYS.h **** #define SYS_ALT_MFP1_PA11_PWM1_CH3   NULL               /*!< No ALT_MFP1 setting for PA.11 */
 454:./bsp/inc/SYS.h **** #define SYS_ALT_MFP2_PA11_PWM1_CH3   NULL               /*!< No ALT_MFP2 setting for PA.11 */
 455:./bsp/inc/SYS.h **** #define SYS_ALT_MFP3_PA11_PWM1_CH3   (1UL<<9)           /*!< ALT_MFP3 PA.11 setting for PWM1_CH3 */
 456:./bsp/inc/SYS.h **** #define SYS_ALT_MFP4_PA11_PWM1_CH3   NULL               /*!< No ALT_MFP4 setting for PA.11 */
 457:./bsp/inc/SYS.h **** 
 458:./bsp/inc/SYS.h **** #define SYS_GPA_MFP_PA11_Msk         (1UL<<11)          /*!< GPA_MFP PA.11 mask */
 459:./bsp/inc/SYS.h **** #define SYS_ALT_MFP_PA11_Msk         NULL               /*!< No ALT_MFP PA.11 mask */
 460:./bsp/inc/SYS.h **** #define SYS_ALT_MFP1_PA11_Msk        NULL               /*!< No ALT_MFP1 PA.11 mask */
 461:./bsp/inc/SYS.h **** #define SYS_ALT_MFP2_PA11_Msk        NULL               /*!< No ALT_MFP2 PA.11 mask */
 462:./bsp/inc/SYS.h **** #define SYS_ALT_MFP3_PA11_Msk        (1UL<<9)           /*!< ALT_MFP3 PA.11 mask */
 463:./bsp/inc/SYS.h **** #define SYS_ALT_MFP4_PA11_Msk        NULL               /*!< No ALT_MFP4 PA.11 mask */
 464:./bsp/inc/SYS.h **** 
 465:./bsp/inc/SYS.h **** //PA.12
 466:./bsp/inc/SYS.h **** #define SYS_GPA_MFP_PA12_GPIO        0x00000000UL       /*!< GPA_MFP PA.12 setting for GPIO */
 467:./bsp/inc/SYS.h **** #define SYS_ALT_MFP_PA12_GPIO        NULL               /*!< No ALT_MFP setting for PA.12 */
 468:./bsp/inc/SYS.h **** #define SYS_ALT_MFP1_PA12_GPIO       NULL               /*!< No ALT_MFP1 setting for PA.12 */
 469:./bsp/inc/SYS.h **** #define SYS_ALT_MFP2_PA12_GPIO       NULL               /*!< No ALT_MFP2 setting for PA.12 */
 470:./bsp/inc/SYS.h **** #define SYS_ALT_MFP3_PA12_GPIO       NULL               /*!< No ALT_MFP3 setting for PA.12 */
 471:./bsp/inc/SYS.h **** #define SYS_ALT_MFP4_PA12_GPIO       0x00000000UL       /*!< ALT_MFP4 PA.12 setting for for GPIO */
 472:./bsp/inc/SYS.h **** 
 473:./bsp/inc/SYS.h **** #define SYS_GPA_MFP_PA12_PWM0_CH0    (1UL<<12)          /*!< GPA_MFP PA.12 setting for PWM0_CH0 */
 474:./bsp/inc/SYS.h **** #define SYS_ALT_MFP_PA12_PWM0_CH0    NULL               /*!< No ALT_MFP setting for PA.12 */
 475:./bsp/inc/SYS.h **** #define SYS_ALT_MFP1_PA12_PWM0_CH0   NULL               /*!< No ALT_MFP1 setting for PA.12 */
 476:./bsp/inc/SYS.h **** #define SYS_ALT_MFP2_PA12_PWM0_CH0   NULL               /*!< No ALT_MFP2 setting for PA.12 */
 477:./bsp/inc/SYS.h **** #define SYS_ALT_MFP3_PA12_PWM0_CH0   NULL               /*!< No ALT_MFP3 setting for PA.12 */
 478:./bsp/inc/SYS.h **** #define SYS_ALT_MFP4_PA12_PWM0_CH0   0x00000000UL       /*!< ALT_MFP4 PA.12 setting for PWM0_CH0 */
 479:./bsp/inc/SYS.h **** 
 480:./bsp/inc/SYS.h **** #define SYS_GPA_MFP_PA12_UART5_RXD   (1UL<<12)          /*!< GPA_MFP PA.12 setting for UART5_RXD */
 481:./bsp/inc/SYS.h **** #define SYS_ALT_MFP_PA12_UART5_RXD   NULL               /*!< No ALT_MFP setting for PA.12 */
 482:./bsp/inc/SYS.h **** #define SYS_ALT_MFP1_PA12_UART5_RXD  NULL               /*!< No ALT_MFP1 setting for PA.12 */
 483:./bsp/inc/SYS.h **** #define SYS_ALT_MFP2_PA12_UART5_RXD  NULL               /*!< No ALT_MFP2 setting for PA.12 */
 484:./bsp/inc/SYS.h **** #define SYS_ALT_MFP3_PA12_UART5_RXD  NULL               /*!< No ALT_MFP3 setting for PA.12 */
 485:./bsp/inc/SYS.h **** #define SYS_ALT_MFP4_PA12_UART5_RXD  (1UL<<8)           /*!< ALT_MFP4 PA.12 setting for  UART5_RXD 
 486:./bsp/inc/SYS.h **** 
 487:./bsp/inc/SYS.h **** #define SYS_GPA_MFP_PA12_Msk         (1UL<<12)          /*!< GPA_MFP PA.12 mask */
 488:./bsp/inc/SYS.h **** #define SYS_ALT_MFP_PA12_Msk         NULL               /*!< No ALT_MFP PA.12 mask */
 489:./bsp/inc/SYS.h **** #define SYS_ALT_MFP1_PA12_Msk        NULL               /*!< No ALT_MFP1 PA.12 mask */
 490:./bsp/inc/SYS.h **** #define SYS_ALT_MFP2_PA12_Msk        NULL               /*!< No ALT_MFP2 PA.12 mask */
 491:./bsp/inc/SYS.h **** #define SYS_ALT_MFP3_PA12_Msk        NULL               /*!< No ALT_MFP3 PA.12 mask */
 492:./bsp/inc/SYS.h **** #define SYS_ALT_MFP4_PA12_Msk        (1UL<<8)           /*!< ALT_MFP4 PA.12 mask */
 493:./bsp/inc/SYS.h **** 
 494:./bsp/inc/SYS.h **** //PA.13
 495:./bsp/inc/SYS.h **** #define SYS_GPA_MFP_PA13_GPIO        0x00000000UL       /*!< GPA_MFP PA.13 setting for GPIO */
 496:./bsp/inc/SYS.h **** #define SYS_ALT_MFP_PA13_GPIO        NULL               /*!< No ALT_MFP setting for PA.13 */
 497:./bsp/inc/SYS.h **** #define SYS_ALT_MFP1_PA13_GPIO       NULL               /*!< No ALT_MFP1 setting for PA.13 */
 498:./bsp/inc/SYS.h **** #define SYS_ALT_MFP2_PA13_GPIO       NULL               /*!< No ALT_MFP2 setting for PA.13 */
 499:./bsp/inc/SYS.h **** #define SYS_ALT_MFP3_PA13_GPIO       NULL               /*!< No ALT_MFP3 setting for PA.13 */
 500:./bsp/inc/SYS.h **** #define SYS_ALT_MFP4_PA13_GPIO       0x00000000UL       /*!< ALT_MFP4 PA.13 setting for for GPIO */
 501:./bsp/inc/SYS.h **** 
 502:./bsp/inc/SYS.h **** #define SYS_GPA_MFP_PA13_PWM0_CH1    (1UL<<13)          /*!< GPA_MFP PA.13 setting for PWM0_CH1 */
 503:./bsp/inc/SYS.h **** #define SYS_ALT_MFP_PA13_PWM0_CH1    NULL               /*!< No ALT_MFP setting for PA.13 */
 504:./bsp/inc/SYS.h **** #define SYS_ALT_MFP1_PA13_PWM0_CH1   NULL               /*!< No ALT_MFP1 setting for PA.13 */
 505:./bsp/inc/SYS.h **** #define SYS_ALT_MFP2_PA13_PWM0_CH1   NULL               /*!< No ALT_MFP2 setting for PA.13 */
 506:./bsp/inc/SYS.h **** #define SYS_ALT_MFP3_PA13_PWM0_CH1   NULL               /*!< No ALT_MFP3 setting for PA.13 */
 507:./bsp/inc/SYS.h **** #define SYS_ALT_MFP4_PA13_PWM0_CH1   0x00000000UL       /*!< ALT_MFP4 PA.13 setting for PWM0_CH1 */
 508:./bsp/inc/SYS.h **** 
 509:./bsp/inc/SYS.h **** #define SYS_GPA_MFP_PA13_UART5_TXD   (1UL<<13)          /*!< GPA_MFP PA.13 setting for UART5_TXD */
 510:./bsp/inc/SYS.h **** #define SYS_ALT_MFP_PA13_UART5_TXD   NULL               /*!< No ALT_MFP setting for PA.13 */
 511:./bsp/inc/SYS.h **** #define SYS_ALT_MFP1_PA13_UART5_TXD  NULL               /*!< No ALT_MFP1 setting for PA.13 */
 512:./bsp/inc/SYS.h **** #define SYS_ALT_MFP2_PA13_UART5_TXD  NULL               /*!< No ALT_MFP2 setting for PA.13 */
 513:./bsp/inc/SYS.h **** #define SYS_ALT_MFP3_PA13_UART5_TXD  NULL               /*!< No ALT_MFP3 setting for PA.13 */
 514:./bsp/inc/SYS.h **** #define SYS_ALT_MFP4_PA13_UART5_TXD  (1UL<<9)           /*!< ALT_MFP4 PA.13 setting for UART5_TXD *
 515:./bsp/inc/SYS.h **** 
 516:./bsp/inc/SYS.h **** #define SYS_GPA_MFP_PA13_Msk         (1UL<<13)          /*!< GPA_MFP PA.13 mask */
 517:./bsp/inc/SYS.h **** #define SYS_ALT_MFP_PA13_Msk         NULL               /*!< No ALT_MFP PA.13 mask */
 518:./bsp/inc/SYS.h **** #define SYS_ALT_MFP1_PA13_Msk        NULL               /*!< No ALT_MFP1 PA.13 mask */
 519:./bsp/inc/SYS.h **** #define SYS_ALT_MFP2_PA13_Msk        NULL               /*!< No ALT_MFP2 PA.13 mask */
 520:./bsp/inc/SYS.h **** #define SYS_ALT_MFP3_PA13_Msk        NULL               /*!< No ALT_MFP3 PA.13 mask */
 521:./bsp/inc/SYS.h **** #define SYS_ALT_MFP4_PA13_Msk        (1UL<<9)           /*!< ALT_MFP4 PA.13 mask */
 522:./bsp/inc/SYS.h **** 
 523:./bsp/inc/SYS.h **** //PA.14
 524:./bsp/inc/SYS.h **** #define SYS_GPA_MFP_PA14_GPIO        0x00000000UL       /*!< GPA_MFP PA.14 setting for GPIO */
 525:./bsp/inc/SYS.h **** #define SYS_ALT_MFP_PA14_GPIO        NULL               /*!< No ALT_MFP setting for PA.14 */
 526:./bsp/inc/SYS.h **** #define SYS_ALT_MFP1_PA14_GPIO       NULL               /*!< No ALT_MFP1 setting for PA.14 */
 527:./bsp/inc/SYS.h **** #define SYS_ALT_MFP2_PA14_GPIO       NULL               /*!< No ALT_MFP2 setting for PA.14 */
 528:./bsp/inc/SYS.h **** #define SYS_ALT_MFP3_PA14_GPIO       NULL               /*!< No ALT_MFP3 setting for PA.14 */
 529:./bsp/inc/SYS.h **** #define SYS_ALT_MFP4_PA14_GPIO       NULL               /*!< No ALT_MFP4 setting for PA.14 */
 530:./bsp/inc/SYS.h **** 
 531:./bsp/inc/SYS.h **** #define SYS_GPA_MFP_PA14_PWM0_CH2    (1UL<<14)          /*!< GPA_MFP PA.14 setting for PWM0_CH2 */
 532:./bsp/inc/SYS.h **** #define SYS_ALT_MFP_PA14_PWM0_CH2    NULL               /*!< No ALT_MFP setting for PA.14 */
 533:./bsp/inc/SYS.h **** #define SYS_ALT_MFP1_PA14_PWM0_CH2   NULL               /*!< No ALT_MFP1 setting for PA.14 */
 534:./bsp/inc/SYS.h **** #define SYS_ALT_MFP2_PA14_PWM0_CH2   NULL               /*!< No ALT_MFP2 setting for PA.14 */
 535:./bsp/inc/SYS.h **** #define SYS_ALT_MFP3_PA14_PWM0_CH2   NULL               /*!< No ALT_MFP3 setting for PA.14 */
 536:./bsp/inc/SYS.h **** #define SYS_ALT_MFP4_PA14_PWM0_CH2   NULL               /*!< No ALT_MFP4 setting for PA.14 */
 537:./bsp/inc/SYS.h **** 
 538:./bsp/inc/SYS.h **** #define SYS_GPA_MFP_PA14_Msk         (1UL<<14)          /*!< GPA_MFP PA.14 mask */
 539:./bsp/inc/SYS.h **** #define SYS_ALT_MFP_PA14_Msk         NULL               /*!< No ALT_MFP PA.14 mask */
 540:./bsp/inc/SYS.h **** #define SYS_ALT_MFP1_PA14_Msk        NULL               /*!< No ALT_MFP1 PA.14 mask */
 541:./bsp/inc/SYS.h **** #define SYS_ALT_MFP2_PA14_Msk        NULL               /*!< No ALT_MFP2 PA.14 mask */
 542:./bsp/inc/SYS.h **** #define SYS_ALT_MFP3_PA14_Msk        NULL               /*!< No ALT_MFP3 PA.14 mask */
 543:./bsp/inc/SYS.h **** #define SYS_ALT_MFP4_PA14_Msk        NULL               /*!< No ALT_MFP4 PA.14 mask */
 544:./bsp/inc/SYS.h **** 
 545:./bsp/inc/SYS.h **** //PA.15
 546:./bsp/inc/SYS.h **** #define SYS_GPA_MFP_PA15_GPIO        0x00000000UL       /*!< GPA_MFP PA.15 setting for GPIO */
 547:./bsp/inc/SYS.h **** #define SYS_ALT_MFP_PA15_GPIO        NULL               /*!< No ALT_MFP setting for PA.15 */
 548:./bsp/inc/SYS.h **** #define SYS_ALT_MFP1_PA15_GPIO       NULL               /*!< No ALT_MFP1 setting for PA.15 */
 549:./bsp/inc/SYS.h **** #define SYS_ALT_MFP2_PA15_GPIO       NULL               /*!< No ALT_MFP2 setting for PA.15 */
 550:./bsp/inc/SYS.h **** #define SYS_ALT_MFP3_PA15_GPIO       NULL               /*!< No ALT_MFP3 setting for PA.15 */
 551:./bsp/inc/SYS.h **** #define SYS_ALT_MFP4_PA15_GPIO       NULL               /*!< No ALT_MFP4 setting for PA.15 */
 552:./bsp/inc/SYS.h **** 
 553:./bsp/inc/SYS.h **** #define SYS_GPA_MFP_PA15_PWM0_CH3    (1UL<<15)          /*!< GPA_MFP PA.15 setting for PWM0_CH3 */
 554:./bsp/inc/SYS.h **** #define SYS_ALT_MFP_PA15_PWM0_CH3    NULL               /*!< No ALT_MFP setting for PA.15 */
 555:./bsp/inc/SYS.h **** #define SYS_ALT_MFP1_PA15_PWM0_CH3   NULL               /*!< No ALT_MFP1 setting for PA.15 */
 556:./bsp/inc/SYS.h **** #define SYS_ALT_MFP2_PA15_PWM0_CH3   NULL               /*!< No ALT_MFP2 setting for PA.15 */
 557:./bsp/inc/SYS.h **** #define SYS_ALT_MFP3_PA15_PWM0_CH3   NULL               /*!< No ALT_MFP3 setting for PA.15 */
 558:./bsp/inc/SYS.h **** #define SYS_ALT_MFP4_PA15_PWM0_CH3   NULL               /*!< No ALT_MFP4 setting for PA.15 */
 559:./bsp/inc/SYS.h **** 
 560:./bsp/inc/SYS.h **** #define SYS_GPA_MFP_PA15_Msk         (1UL<<15)          /*!< GPA_MFP PA.14 mask */
 561:./bsp/inc/SYS.h **** #define SYS_ALT_MFP_PA15_Msk         NULL               /*!< No ALT_MFP PA.14 mask */
 562:./bsp/inc/SYS.h **** #define SYS_ALT_MFP1_PA15_Msk        NULL               /*!< No ALT_MFP1 PA.14 mask */
 563:./bsp/inc/SYS.h **** #define SYS_ALT_MFP2_PA15_Msk        NULL               /*!< No ALT_MFP2 PA.14 mask */
 564:./bsp/inc/SYS.h **** #define SYS_ALT_MFP3_PA15_Msk        NULL               /*!< No ALT_MFP3 PA.14 mask */
 565:./bsp/inc/SYS.h **** #define SYS_ALT_MFP4_PA15_Msk        NULL               /*!< No ALT_MFP4 PA.14 mask */
 566:./bsp/inc/SYS.h **** 
 567:./bsp/inc/SYS.h **** //PB.0
 568:./bsp/inc/SYS.h **** #define SYS_GPB_MFP_PB0_GPIO         0x00000000UL       /*!< GPB_MFP PB.0 setting for GPIO */
 569:./bsp/inc/SYS.h **** #define SYS_ALT_MFP_PB0_GPIO         NULL               /*!< No ALT_MFP setting for PB.0 */
 570:./bsp/inc/SYS.h **** #define SYS_ALT_MFP1_PB0_GPIO        NULL               /*!< No ALT_MFP1 setting for PB.0 */
 571:./bsp/inc/SYS.h **** #define SYS_ALT_MFP2_PB0_GPIO        NULL               /*!< No ALT_MFP2 setting for PB.0 */
 572:./bsp/inc/SYS.h **** #define SYS_ALT_MFP3_PB0_GPIO        NULL               /*!< No ALT_MFP3 setting for PB.0 */
 573:./bsp/inc/SYS.h **** #define SYS_ALT_MFP4_PB0_GPIO        NULL               /*!< No ALT_MFP4 setting for PB.0 */
 574:./bsp/inc/SYS.h **** 
 575:./bsp/inc/SYS.h **** #define SYS_GPB_MFP_PB0_UART0_RXD    (1UL<<0)           /*!< GPB_MFP PB.0 setting for UART0_RXD */
 576:./bsp/inc/SYS.h **** #define SYS_ALT_MFP_PB0_UART0_RXD    NULL               /*!< No ALT_MFP setting for PB.0 */
 577:./bsp/inc/SYS.h **** #define SYS_ALT_MFP1_PB0_UART0_RXD   NULL               /*!< No ALT_MFP1 setting for PB.0 */
 578:./bsp/inc/SYS.h **** #define SYS_ALT_MFP2_PB0_UART0_RXD   NULL               /*!< No ALT_MFP2 setting for PB.0 */
 579:./bsp/inc/SYS.h **** #define SYS_ALT_MFP3_PB0_UART0_RXD   NULL               /*!< No ALT_MFP3 setting for PB.0 */
 580:./bsp/inc/SYS.h **** #define SYS_ALT_MFP4_PB0_UART0_RXD   NULL               /*!< No ALT_MFP4 setting for PB.0 */
 581:./bsp/inc/SYS.h **** 
 582:./bsp/inc/SYS.h **** #define SYS_GPB_MFP_PB0_Msk          (1UL<<0)           /*!< GPB_MFP PB.0 mask */
 583:./bsp/inc/SYS.h **** #define SYS_ALT_MFP_PB0_Msk          NULL               /*!< No ALT_MFP PB.0 mask */
 584:./bsp/inc/SYS.h **** #define SYS_ALT_MFP1_PB0_Msk         NULL               /*!< No ALT_MFP1 PB.0 mask */
 585:./bsp/inc/SYS.h **** #define SYS_ALT_MFP2_PB0_Msk         NULL               /*!< No ALT_MFP2 PB.0 mask */
 586:./bsp/inc/SYS.h **** #define SYS_ALT_MFP3_PB0_Msk         NULL               /*!< No ALT_MFP3 PB.0 mask */
 587:./bsp/inc/SYS.h **** #define SYS_ALT_MFP4_PB0_Msk         NULL               /*!< No ALT_MFP4 PB.0 mask */
 588:./bsp/inc/SYS.h **** 
 589:./bsp/inc/SYS.h **** //PB.1
 590:./bsp/inc/SYS.h **** #define SYS_GPB_MFP_PB1_GPIO         0x00000000UL       /*!< GPB_MFP PB.1 setting for GPIO */
 591:./bsp/inc/SYS.h **** #define SYS_ALT_MFP_PB1_GPIO         NULL               /*!< No ALT_MFP setting for PB.1 */
 592:./bsp/inc/SYS.h **** #define SYS_ALT_MFP1_PB1_GPIO        NULL               /*!< No ALT_MFP1 setting for PB.1 */
 593:./bsp/inc/SYS.h **** #define SYS_ALT_MFP2_PB1_GPIO        NULL               /*!< No ALT_MFP2 setting for PB.1 */
 594:./bsp/inc/SYS.h **** #define SYS_ALT_MFP3_PB1_GPIO        NULL               /*!< No ALT_MFP3 setting for PB.1 */
 595:./bsp/inc/SYS.h **** #define SYS_ALT_MFP4_PB1_GPIO        NULL               /*!< No ALT_MFP4 setting for PB.1 */
 596:./bsp/inc/SYS.h **** 
 597:./bsp/inc/SYS.h **** #define SYS_GPB_MFP_PB1_UART0_TXD    (1UL<<1)           /*!< GPB_MFP PB.1 setting for UART0_TXD */
 598:./bsp/inc/SYS.h **** #define SYS_ALT_MFP_PB1_UART0_TXD    NULL               /*!< No ALT_MFP setting for PB.1 */
 599:./bsp/inc/SYS.h **** #define SYS_ALT_MFP1_PB1_UART0_TXD   NULL               /*!< No ALT_MFP1 setting for PB.1 */
 600:./bsp/inc/SYS.h **** #define SYS_ALT_MFP2_PB1_UART0_TXD   NULL               /*!< No ALT_MFP2 setting for PB.1 */
 601:./bsp/inc/SYS.h **** #define SYS_ALT_MFP3_PB1_UART0_TXD   NULL               /*!< No ALT_MFP3 setting for PB.1 */
 602:./bsp/inc/SYS.h **** #define SYS_ALT_MFP4_PB1_UART0_TXD   NULL               /*!< No ALT_MFP4 setting for PB.1 */
 603:./bsp/inc/SYS.h **** 
 604:./bsp/inc/SYS.h **** #define SYS_GPB_MFP_PB1_Msk          (1UL<<1)           /*!< GPB_MFP PB.1 mask */
 605:./bsp/inc/SYS.h **** #define SYS_ALT_MFP_PB1_Msk          NULL               /*!< No ALT_MFP PB.1 mask */
 606:./bsp/inc/SYS.h **** #define SYS_ALT_MFP1_PB1_Msk         NULL               /*!< No ALT_MFP1 PB.1 mask */
 607:./bsp/inc/SYS.h **** #define SYS_ALT_MFP2_PB1_Msk         NULL               /*!< No ALT_MFP2 PB.1 mask */
 608:./bsp/inc/SYS.h **** #define SYS_ALT_MFP3_PB1_Msk         NULL               /*!< No ALT_MFP3 PB.1 mask */
 609:./bsp/inc/SYS.h **** #define SYS_ALT_MFP4_PB1_Msk         NULL               /*!< No ALT_MFP4 PB.1 mask */
 610:./bsp/inc/SYS.h **** 
 611:./bsp/inc/SYS.h **** //PB.2
 612:./bsp/inc/SYS.h **** #define SYS_GPB_MFP_PB2_GPIO         0x00000000UL       /*!< GPB_MFP PB.2 setting for GPIO */
 613:./bsp/inc/SYS.h **** #define SYS_ALT_MFP_PB2_GPIO         0x00000000UL       /*!< ALT_MFP PB.2 setting for GPIO */
 614:./bsp/inc/SYS.h **** #define SYS_ALT_MFP1_PB2_GPIO        NULL               /*!< No ALT_MFP1 setting for PB.2 */
 615:./bsp/inc/SYS.h **** #define SYS_ALT_MFP2_PB2_GPIO        0x00000000UL       /*!< ALT_MFP2 PB.2 setting for GPIO */
 616:./bsp/inc/SYS.h **** #define SYS_ALT_MFP3_PB2_GPIO        0x00000000UL       /*!< ALT_MFP3 PB.2 setting for GPIO */
 617:./bsp/inc/SYS.h **** #define SYS_ALT_MFP4_PB2_GPIO        NULL               /*!< No ALT_MFP4 setting for PB.2 */
 618:./bsp/inc/SYS.h **** 
 619:./bsp/inc/SYS.h **** #define SYS_GPB_MFP_PB2_UART0_nRTS   (1UL<<2)           /*!< GPB_MFP PB.2 setting for UART0_nRTS */
 620:./bsp/inc/SYS.h **** #define SYS_ALT_MFP_PB2_UART0_nRTS   0x00000000UL       /*!< ALT_MFP PB.2 setting for UART0_nRTS */
 621:./bsp/inc/SYS.h **** #define SYS_ALT_MFP1_PB2_UART0_nRTS  NULL               /*!< No ALT_MFP1 setting for PB.2 */
 622:./bsp/inc/SYS.h **** #define SYS_ALT_MFP2_PB2_UART0_nRTS  0x00000000UL       /*!< ALT_MFP2 PB.2 setting for UART0_nRTS *
 623:./bsp/inc/SYS.h **** #define SYS_ALT_MFP3_PB2_UART0_nRTS  0x00000000UL       /*!< ALT_MFP3 PB.2 setting for UART0_nRTS *
 624:./bsp/inc/SYS.h **** #define SYS_ALT_MFP4_PB2_UART0_nRTS  NULL               /*!< No ALT_MFP4 setting for PB.2 */
 625:./bsp/inc/SYS.h **** 
 626:./bsp/inc/SYS.h **** #define SYS_GPB_MFP_PB2_TM2_EXT      (1UL<<2)           /*!< GPB_MFP PB.2 setting for TM2_EXT */
 627:./bsp/inc/SYS.h **** #define SYS_ALT_MFP_PB2_TM2_EXT      (1UL<<26)          /*!< ALT_MFP PB.2 setting for TM2_EXT */
 628:./bsp/inc/SYS.h **** #define SYS_ALT_MFP1_PB2_TM2_EXT     NULL               /*!< No ALT_MFP1 setting for PB.2 */
 629:./bsp/inc/SYS.h **** #define SYS_ALT_MFP2_PB2_TM2_EXT     0x00000000UL       /*!< ALT_MFP2 PB.2 setting for TM2_EXT */
 630:./bsp/inc/SYS.h **** #define SYS_ALT_MFP3_PB2_TM2_EXT     0x00000000UL       /*!< ALT_MFP3 PB.2 setting for TM2_EXT */
 631:./bsp/inc/SYS.h **** #define SYS_ALT_MFP4_PB2_TM2_EXT     NULL               /*!< No ALT_MFP4 setting for PB.2 */
 632:./bsp/inc/SYS.h **** 
 633:./bsp/inc/SYS.h **** #define SYS_GPB_MFP_PB2_PWM1_BREAK1   (1UL<<2)          /*!< GPB_MFP PB.2 setting for PWM1_BREAK1 *
 634:./bsp/inc/SYS.h **** #define SYS_ALT_MFP_PB2_PWM1_BREAK1   0x00000000UL      /*!< ALT_MFP PB.2 setting for PWM1_BREAK1 *
 635:./bsp/inc/SYS.h **** #define SYS_ALT_MFP1_PB2_PWM1_BREAK1  NULL              /*!< No ALT_MFP1 setting for PB.2 */
 636:./bsp/inc/SYS.h **** #define SYS_ALT_MFP2_PB2_PWM1_BREAK1  0x00000000UL      /*!< ALT_MFP2 PB.2 setting for PWM1_BREAK1 
 637:./bsp/inc/SYS.h **** #define SYS_ALT_MFP3_PB2_PWM1_BREAK1  (1UL<<31)         /*!< ALT_MFP3 PB.2 setting for PWM1_BREAK1 
 638:./bsp/inc/SYS.h **** #define SYS_ALT_MFP4_PB2_PWM1_BREAK1  NULL              /*!< No ALT_MFP4 setting for PB.2 */
 639:./bsp/inc/SYS.h **** 
 640:./bsp/inc/SYS.h **** #define SYS_GPB_MFP_PB2_TM2          (1UL<<2)           /*!< GPB_MFP PB.2 setting for TM2 */
 641:./bsp/inc/SYS.h **** #define SYS_ALT_MFP_PB2_TM2          0x00000000UL       /*!< ALT_MFP PB.2 setting for TM2 */
 642:./bsp/inc/SYS.h **** #define SYS_ALT_MFP1_PB2_TM2         NULL               /*!< No ALT_MFP1 setting for PB.2 */
 643:./bsp/inc/SYS.h **** #define SYS_ALT_MFP2_PB2_TM2         (1UL<<4)           /*!< ALT_MFP2 PB.2 setting for TM2 */
 644:./bsp/inc/SYS.h **** #define SYS_ALT_MFP3_PB2_TM2         0x00000000UL       /*!< ALT_MFP3 PB.2 setting for TM2 */
 645:./bsp/inc/SYS.h **** #define SYS_ALT_MFP4_PB2_TM2         NULL               /*!< No ALT_MFP4 setting for PB.2 */
 646:./bsp/inc/SYS.h **** 
 647:./bsp/inc/SYS.h **** #define SYS_GPB_MFP_PB2_Msk          (1UL<<2)           /*!< GPB_MFP PB.2 mask */
 648:./bsp/inc/SYS.h **** #define SYS_ALT_MFP_PB2_Msk          (1UL<<26)          /*!< ALT_MFP PB.2 mask */
 649:./bsp/inc/SYS.h **** #define SYS_ALT_MFP1_PB2_Msk         NULL               /*!< No ALT_MFP1 PB.2 mask */
 650:./bsp/inc/SYS.h **** #define SYS_ALT_MFP2_PB2_Msk         (1UL<<4)           /*!< ALT_MFP2 PB.2 mask */
 651:./bsp/inc/SYS.h **** #define SYS_ALT_MFP3_PB2_Msk         (1UL<<31)          /*!< ALT_MFP3 PB.2 mask */
 652:./bsp/inc/SYS.h **** #define SYS_ALT_MFP4_PB2_Msk         NULL               /*!< No ALT_MFP4 PB.2 mask */
 653:./bsp/inc/SYS.h **** 
 654:./bsp/inc/SYS.h **** //PB.3
 655:./bsp/inc/SYS.h **** #define SYS_GPB_MFP_PB3_GPIO         0x00000000UL       /*!< GPB_MFP PB.3 setting for GPIO */
 656:./bsp/inc/SYS.h **** #define SYS_ALT_MFP_PB3_GPIO         0x00000000UL       /*!< ALT_MFP PB.3 setting for GPIO */
 657:./bsp/inc/SYS.h **** #define SYS_ALT_MFP1_PB3_GPIO        NULL               /*!< No ALT_MFP1 setting for PB.3 */
 658:./bsp/inc/SYS.h **** #define SYS_ALT_MFP2_PB3_GPIO        0x00000000UL       /*!< ALT_MFP2 PB.3 setting for GPIO */
 659:./bsp/inc/SYS.h **** #define SYS_ALT_MFP3_PB3_GPIO        0x00000000UL       /*!< ALT_MFP3 PB.3 setting for GPIO */
 660:./bsp/inc/SYS.h **** #define SYS_ALT_MFP4_PB3_GPIO        NULL               /*!< No ALT_MFP4 setting for PB.3 */
 661:./bsp/inc/SYS.h **** 
 662:./bsp/inc/SYS.h **** #define SYS_GPB_MFP_PB3_UART_nCTS    (1UL<<3)           /*!< GPB_MFP PB.3 setting for UART_nCTS */
 663:./bsp/inc/SYS.h **** #define SYS_ALT_MFP_PB3_UART_nCTS    0x00000000UL       /*!< ALT_MFP PB.3 setting for UART_nCTS */
 664:./bsp/inc/SYS.h **** #define SYS_ALT_MFP1_PB3_UART_nCTS   NULL               /*!< No ALT_MFP1 setting for PB.3 */
 665:./bsp/inc/SYS.h **** #define SYS_ALT_MFP2_PB3_UART_nCTS   0x00000000UL       /*!< ALT_MFP2 PB.3 setting for UART_nCTS */
 666:./bsp/inc/SYS.h **** #define SYS_ALT_MFP3_PB3_UART_nCTS   0x00000000UL       /*!< ALT_MFP3 PB.3 setting for UART_nCTS */
 667:./bsp/inc/SYS.h **** #define SYS_ALT_MFP4_PB3_UART_nCTS   NULL               /*!< No ALT_MFP4 setting for PB.3 */
 668:./bsp/inc/SYS.h **** 
 669:./bsp/inc/SYS.h **** #define SYS_GPB_MFP_PB3_TM3_EXT      (1UL<<3)           /*!< GPB_MFP PB.3 setting for TM3_EXT */
 670:./bsp/inc/SYS.h **** #define SYS_ALT_MFP_PB3_TM3_EXT      (1UL<<27)          /*!< ALT_MFP PB.3 setting for TM3_EXT */
 671:./bsp/inc/SYS.h **** #define SYS_ALT_MFP1_PB3_TM3_EXT     NULL               /*!< No ALT_MFP1 setting for PB.3 */
 672:./bsp/inc/SYS.h **** #define SYS_ALT_MFP2_PB3_TM3_EXT     0x00000000UL       /*!< ALT_MFP2 PB.3 setting for TM3_EXT */
 673:./bsp/inc/SYS.h **** #define SYS_ALT_MFP3_PB3_TM3_EXT     0x00000000UL       /*!< ALT_MFP3 PB.3 setting for TM3_EXT */
 674:./bsp/inc/SYS.h **** #define SYS_ALT_MFP4_PB3_TM3_EXT     NULL               /*!< No ALT_MFP4 setting for PB.3 */
 675:./bsp/inc/SYS.h **** 
 676:./bsp/inc/SYS.h **** #define SYS_GPB_MFP_PB3_PWM1_BREAK0     (1UL<<3)        /*!< GPB_MFP PB.3 setting for PWM1_BREAK0 *
 677:./bsp/inc/SYS.h **** #define SYS_ALT_MFP_PB3_PWM1_BREAK0     0000000UL       /*!< ALT_MFP PB.3 setting for PWM1_BREAK0 *
 678:./bsp/inc/SYS.h **** #define SYS_ALT_MFP1_PB3_PWM1_BREAK0    NULL            /*!< No ALT_MFP1 setting for PB.3 */
 679:./bsp/inc/SYS.h **** #define SYS_ALT_MFP2_PB3_PWM1_BREAK0    0x00000000UL    /*!< ALT_MFP2 PB.3 setting for PWM1_BREAK0 
 680:./bsp/inc/SYS.h **** #define SYS_ALT_MFP3_PB3_PWM1_BREAK0    (1UL<<30)       /*!< ALT_MFP3 PB.3 setting for PWM1_BREAK0 
 681:./bsp/inc/SYS.h **** #define SYS_ALT_MFP4_PB3_PWM1_BREAK0    NULL            /*!< No ALT_MFP4 setting for PB.3 */
 682:./bsp/inc/SYS.h **** 
 683:./bsp/inc/SYS.h **** #define SYS_GPB_MFP_PB3_TM3         (1UL<<3)            /*!< GPB_MFP PB.3 setting for TM3 */
 684:./bsp/inc/SYS.h **** #define SYS_ALT_MFP_PB3_TM3         0000000UL           /*!< ALT_MFP PB.3 setting for TM3 */
 685:./bsp/inc/SYS.h **** #define SYS_ALT_MFP1_PB3_TM3        NULL                /*!< No ALT_MFP1 setting for PB.3 */
 686:./bsp/inc/SYS.h **** #define SYS_ALT_MFP2_PB3_TM3        (1UL<<5)            /*!< ALT_MFP2 PB.3 setting for TM3 */
 687:./bsp/inc/SYS.h **** #define SYS_ALT_MFP3_PB3_TM3        0x00000000UL        /*!< ALT_MFP3 PB.3 setting for TM3 */
 688:./bsp/inc/SYS.h **** #define SYS_ALT_MFP4_PB3_TM3        NULL                /*!< No ALT_MFP4 setting for PB.3 */
 689:./bsp/inc/SYS.h **** 
 690:./bsp/inc/SYS.h **** #define SYS_GPB_MFP_PB3_Msk         (1UL<<3)            /*!< GPB_MFP PB.3 mask */
 691:./bsp/inc/SYS.h **** #define SYS_ALT_MFP_PB3_Msk         (1UL<<27)           /*!< ALT_MFP PB.3 mask */
 692:./bsp/inc/SYS.h **** #define SYS_ALT_MFP1_PB3_Msk        NULL                /*!< No ALT_MFP1 PB.3 mask */
 693:./bsp/inc/SYS.h **** #define SYS_ALT_MFP2_PB3_Msk        (1UL<<5)            /*!< ALT_MFP2 PB.3 mask */
 694:./bsp/inc/SYS.h **** #define SYS_ALT_MFP3_PB3_Msk        (1UL<<30)           /*!< ALT_MFP3 PB.3 mask */
 695:./bsp/inc/SYS.h **** #define SYS_ALT_MFP4_PB3_Msk        NULL                /*!< No ALT_MFP4 PB.3 mask */
 696:./bsp/inc/SYS.h **** 
 697:./bsp/inc/SYS.h **** //PB.4
 698:./bsp/inc/SYS.h **** #define SYS_GPB_MFP_PB4_GPIO        0x00000000UL        /*!< GPB_MFP PB.4 setting for GPIO */
 699:./bsp/inc/SYS.h **** #define SYS_ALT_MFP_PB4_GPIO        NULL                /*!< No ALT_MFP setting for PB.4 */
 700:./bsp/inc/SYS.h **** #define SYS_ALT_MFP1_PB4_GPIO       NULL                /*!< No ALT_MFP1 setting for PB.4 */
 701:./bsp/inc/SYS.h **** #define SYS_ALT_MFP2_PB4_GPIO       NULL                /*!< No ALT_MFP2 setting for PB.4 */
 702:./bsp/inc/SYS.h **** #define SYS_ALT_MFP3_PB4_GPIO       NULL                /*!< No ALT_MFP3 setting for PB.4 */
 703:./bsp/inc/SYS.h **** #define SYS_ALT_MFP4_PB4_GPIO       NULL                /*!< No ALT_MFP4 setting for PB.4 */
 704:./bsp/inc/SYS.h **** 
 705:./bsp/inc/SYS.h **** #define SYS_GPB_MFP_PB4_UART1_RXD   (1UL<<4)            /*!< GPB_MFP PB.4 setting for UART1_RXD */
 706:./bsp/inc/SYS.h **** #define SYS_ALT_MFP_PB4_UART1_RXD   NULL                /*!< No ALT_MFP setting for PB.4 */
 707:./bsp/inc/SYS.h **** #define SYS_ALT_MFP1_PB4_UART1_RXD  NULL                /*!< No ALT_MFP1 setting for PB.4 */
 708:./bsp/inc/SYS.h **** #define SYS_ALT_MFP2_PB4_UART1_RXD  NULL                /*!< No ALT_MFP2 setting for PB.4 */
 709:./bsp/inc/SYS.h **** #define SYS_ALT_MFP3_PB4_UART1_RXD  NULL                /*!< No ALT_MFP3 setting for PB.4 */
 710:./bsp/inc/SYS.h **** #define SYS_ALT_MFP4_PB4_UART1_RXD  NULL                /*!< No ALT_MFP4 setting for PB.4 */
 711:./bsp/inc/SYS.h **** 
 712:./bsp/inc/SYS.h **** #define SYS_GPB_MFP_PB4_Msk         (1UL<<4)            /*!< GPB_MFP PB.4 mask */
 713:./bsp/inc/SYS.h **** #define SYS_ALT_MFP_PB4_Msk         NULL                /*!< No ALT_MFP PB.4 mask */
 714:./bsp/inc/SYS.h **** #define SYS_ALT_MFP1_PB4_Msk        NULL                /*!< No ALT_MFP1 PB.4 mask */
 715:./bsp/inc/SYS.h **** #define SYS_ALT_MFP2_PB4_Msk        NULL                /*!< No ALT_MFP2 PB.4 mask */
 716:./bsp/inc/SYS.h **** #define SYS_ALT_MFP3_PB4_Msk        NULL                /*!< No ALT_MFP3 PB.4 mask */
 717:./bsp/inc/SYS.h **** #define SYS_ALT_MFP4_PB4_Msk        NULL                /*!< No ALT_MFP4 PB.4 mask */
 718:./bsp/inc/SYS.h **** 
 719:./bsp/inc/SYS.h **** //PB.5
 720:./bsp/inc/SYS.h **** #define SYS_GPB_MFP_PB5_GPIO        0x00000000UL        /*!< GPB_MFP PB.5 setting for GPIO */
 721:./bsp/inc/SYS.h **** #define SYS_ALT_MFP_PB5_GPIO        NULL                /*!< No ALT_MFP setting for PB.5 */
 722:./bsp/inc/SYS.h **** #define SYS_ALT_MFP1_PB5_GPIO       NULL                /*!< No ALT_MFP1 setting for PB.5 */
 723:./bsp/inc/SYS.h **** #define SYS_ALT_MFP2_PB5_GPIO       NULL                /*!< No ALT_MFP2 setting for PB.5 */
 724:./bsp/inc/SYS.h **** #define SYS_ALT_MFP3_PB5_GPIO       NULL                /*!< No ALT_MFP3 setting for PB.5 */
 725:./bsp/inc/SYS.h **** #define SYS_ALT_MFP4_PB5_GPIO       NULL                /*!< No ALT_MFP4 setting for PB.5 */
 726:./bsp/inc/SYS.h **** 
 727:./bsp/inc/SYS.h **** #define SYS_GPB_MFP_PB5_UART1_TXD   (1UL<<5)            /*!< GPB_MFP PB.5 setting for UART1_TXD */
 728:./bsp/inc/SYS.h **** #define SYS_ALT_MFP_PB5_UART1_TXD   NULL                /*!< No ALT_MFP setting for PB.5 */
 729:./bsp/inc/SYS.h **** #define SYS_ALT_MFP1_PB5_UART1_TXD  NULL                /*!< No ALT_MFP1 setting for PB.5 */
 730:./bsp/inc/SYS.h **** #define SYS_ALT_MFP2_PB5_UART1_TXD  NULL                /*!< No ALT_MFP2 setting for PB.5 */
 731:./bsp/inc/SYS.h **** #define SYS_ALT_MFP3_PB5_UART1_TXD  NULL                /*!< No ALT_MFP3 setting for PB.5 */
 732:./bsp/inc/SYS.h **** #define SYS_ALT_MFP4_PB5_UART1_TXD  NULL                /*!< No ALT_MFP4 setting for PB.5 */
 733:./bsp/inc/SYS.h **** 
 734:./bsp/inc/SYS.h **** #define SYS_GPB_MFP_PB5_Msk         (1UL<<5)            /*!< GPB_MFP PB.5 mask */
 735:./bsp/inc/SYS.h **** #define SYS_ALT_MFP_PB5_Msk         NULL                /*!< No ALT_MFP PB.5 mask */
 736:./bsp/inc/SYS.h **** #define SYS_ALT_MFP1_PB5_Msk        NULL                /*!< No ALT_MFP1 PB.5 mask */
 737:./bsp/inc/SYS.h **** #define SYS_ALT_MFP2_PB5_Msk        NULL                /*!< No ALT_MFP2 PB.5 mask */
 738:./bsp/inc/SYS.h **** #define SYS_ALT_MFP3_PB5_Msk        NULL                /*!< No ALT_MFP3 PB.5 mask */
 739:./bsp/inc/SYS.h **** #define SYS_ALT_MFP4_PB5_Msk        NULL                /*!< No ALT_MFP4 PB.5 mask */
 740:./bsp/inc/SYS.h **** 
 741:./bsp/inc/SYS.h **** //PB.6
 742:./bsp/inc/SYS.h **** #define SYS_GPB_MFP_PB6_GPIO        0x00000000UL        /*!< GPB_MFP PB.6 setting for GPIO */
 743:./bsp/inc/SYS.h **** #define SYS_ALT_MFP_PB6_GPIO        NULL                /*!< No ALT_MFP setting for PB.6 */
 744:./bsp/inc/SYS.h **** #define SYS_ALT_MFP1_PB6_GPIO       NULL                /*!< No ALT_MFP1 setting for PB.6 */
 745:./bsp/inc/SYS.h **** #define SYS_ALT_MFP2_PB6_GPIO       NULL                /*!< No ALT_MFP2 setting for PB.6 */
 746:./bsp/inc/SYS.h **** #define SYS_ALT_MFP3_PB6_GPIO       NULL                /*!< No ALT_MFP3 setting for PB.6 */
 747:./bsp/inc/SYS.h **** #define SYS_ALT_MFP4_PB6_GPIO       NULL                /*!< No ALT_MFP4 setting for PB.6 */
 748:./bsp/inc/SYS.h **** 
 749:./bsp/inc/SYS.h **** #define SYS_GPB_MFP_PB6_UART1_nRTS      (1UL<<6)        /*!< GPB_MFP PB.6 setting for UART1_nRTS */
 750:./bsp/inc/SYS.h **** #define SYS_ALT_MFP_PB6_UART1_nRTS      NULL            /*!< No ALT_MFP setting for PB.6 */
 751:./bsp/inc/SYS.h **** #define SYS_ALT_MFP1_PB6_UART1_nRTS     NULL            /*!< No ALT_MFP1 setting for PB.6 */
 752:./bsp/inc/SYS.h **** #define SYS_ALT_MFP2_PB6_UART1_nRTS     NULL            /*!< No ALT_MFP2 setting for PB.6 */
 753:./bsp/inc/SYS.h **** #define SYS_ALT_MFP3_PB6_UART1_nRTS     NULL            /*!< No ALT_MFP3 setting for PB.6 */
 754:./bsp/inc/SYS.h **** #define SYS_ALT_MFP4_PB6_UART1_nRTS     NULL            /*!< No ALT_MFP4 setting for PB.6 */
 755:./bsp/inc/SYS.h **** 
 756:./bsp/inc/SYS.h **** #define SYS_GPB_MFP_PB6_Msk         (1UL<<6)            /*!< GPB_MFP PB.6 mask */
 757:./bsp/inc/SYS.h **** #define SYS_ALT_MFP_PB6_Msk         NULL                /*!< No ALT_MFP PB.6 mask */
 758:./bsp/inc/SYS.h **** #define SYS_ALT_MFP1_PB6_Msk        NULL                /*!< No ALT_MFP1 PB.6 mask */
 759:./bsp/inc/SYS.h **** #define SYS_ALT_MFP2_PB6_Msk        NULL                /*!< No ALT_MFP2 PB.6 mask */
 760:./bsp/inc/SYS.h **** #define SYS_ALT_MFP3_PB6_Msk        NULL                /*!< No ALT_MFP3 PB.6 mask */
 761:./bsp/inc/SYS.h **** #define SYS_ALT_MFP4_PB6_Msk        NULL                /*!< No ALT_MFP4 PB.6 mask */
 762:./bsp/inc/SYS.h **** 
 763:./bsp/inc/SYS.h **** //PB.7
 764:./bsp/inc/SYS.h **** #define SYS_GPB_MFP_PB7_GPIO        0x00000000UL        /*!< GPB_MFP PB.7 setting for GPIO */
 765:./bsp/inc/SYS.h **** #define SYS_ALT_MFP_PB7_GPIO        NULL                /*!< No ALT_MFP setting for PB.7 */
 766:./bsp/inc/SYS.h **** #define SYS_ALT_MFP1_PB7_GPIO       NULL                /*!< No ALT_MFP1 setting for PB.7 */
 767:./bsp/inc/SYS.h **** #define SYS_ALT_MFP2_PB7_GPIO       NULL                /*!< No ALT_MFP2 setting for PB.7 */
 768:./bsp/inc/SYS.h **** #define SYS_ALT_MFP3_PB7_GPIO       NULL                /*!< No ALT_MFP3 setting for PB.7 */
 769:./bsp/inc/SYS.h **** #define SYS_ALT_MFP4_PB7_GPIO       NULL                /*!< No ALT_MFP4 setting for PB.7 */
 770:./bsp/inc/SYS.h **** 
 771:./bsp/inc/SYS.h **** #define SYS_GPB_MFP_PB7_UART1_nCTS      (1UL<<7)        /*!< GPB_MFP PB.7 setting for UART1_nCTS */
 772:./bsp/inc/SYS.h **** #define SYS_ALT_MFP_PB7_UART1_nCTS      NULL            /*!< No ALT_MFP setting for PB.7 */
 773:./bsp/inc/SYS.h **** #define SYS_ALT_MFP1_PB7_UART1_nCTS     NULL            /*!< No ALT_MFP1 setting for PB.7 */
 774:./bsp/inc/SYS.h **** #define SYS_ALT_MFP2_PB7_UART1_nCTS     NULL            /*!< No ALT_MFP2 setting for PB.7 */
 775:./bsp/inc/SYS.h **** #define SYS_ALT_MFP3_PB7_UART1_nCTS     NULL            /*!< No ALT_MFP3 setting for PB.7 */
 776:./bsp/inc/SYS.h **** #define SYS_ALT_MFP4_PB7_UART1_nCTS     NULL            /*!< No ALT_MFP4 setting for PB.7 */
 777:./bsp/inc/SYS.h **** 
 778:./bsp/inc/SYS.h **** #define SYS_GPB_MFP_PB7_Msk         (1UL<<7)            /*!< GPB_MFP PB.7 mask */
 779:./bsp/inc/SYS.h **** #define SYS_ALT_MFP_PB7_Msk         NULL                /*!< No ALT_MFP PB.7 mask */
 780:./bsp/inc/SYS.h **** #define SYS_ALT_MFP1_PB7_Msk        NULL                /*!< No ALT_MFP1 PB.7 mask */
 781:./bsp/inc/SYS.h **** #define SYS_ALT_MFP2_PB7_Msk        NULL                /*!< No ALT_MFP2 PB.7 mask */
 782:./bsp/inc/SYS.h **** #define SYS_ALT_MFP3_PB7_Msk        NULL                /*!< No ALT_MFP3 PB.7 mask */
 783:./bsp/inc/SYS.h **** #define SYS_ALT_MFP4_PB7_Msk        NULL                /*!< No ALT_MFP4 PB.7 mask */
 784:./bsp/inc/SYS.h **** 
 785:./bsp/inc/SYS.h **** //PB.8
 786:./bsp/inc/SYS.h **** #define SYS_GPB_MFP_PB8_GPIO        0x00000000UL        /*!< GPB_MFP PB.8 setting for GPIO */
 787:./bsp/inc/SYS.h **** #define SYS_ALT_MFP_PB8_GPIO        0x00000000UL        /*!< ALT_MFP PB.8 setting for GPIO */
 788:./bsp/inc/SYS.h **** #define SYS_ALT_MFP1_PB8_GPIO       NULL                /*!< No ALT_MFP1 setting for PB.8 */
 789:./bsp/inc/SYS.h **** #define SYS_ALT_MFP2_PB8_GPIO       NULL                /*!< No ALT_MFP2 setting for PB.8 */
 790:./bsp/inc/SYS.h **** #define SYS_ALT_MFP3_PB8_GPIO       0x00000000UL        /*!< ALT_MFP3 PB.8 setting for GPIO */
 791:./bsp/inc/SYS.h **** #define SYS_ALT_MFP4_PB8_GPIO       NULL                /*!< No ALT_MFP4 setting for PB.8 */
 792:./bsp/inc/SYS.h **** 
 793:./bsp/inc/SYS.h **** #define SYS_GPB_MFP_PB8_TM0         (1UL<<8)            /*!< GPB_MFP PB.8 setting for TM0 */
 794:./bsp/inc/SYS.h **** #define SYS_ALT_MFP_PB8_TM0         0x00000000UL        /*!< ALT_MFP PB.8 setting for TM0 */
 795:./bsp/inc/SYS.h **** #define SYS_ALT_MFP1_PB8_TM0        NULL                /*!< No ALT_MFP1 setting for PB.8 */
 796:./bsp/inc/SYS.h **** #define SYS_ALT_MFP2_PB8_TM0        NULL                /*!< No ALT_MFP2 setting for PB.8 */
 797:./bsp/inc/SYS.h **** #define SYS_ALT_MFP3_PB8_TM0        0x00000000UL        /*!< ALT_MFP3 PB.8 setting for TM0 */
 798:./bsp/inc/SYS.h **** #define SYS_ALT_MFP4_PB8_TM0        NULL                /*!< No ALT_MFP4 setting for PB.8 */
 799:./bsp/inc/SYS.h **** 
 800:./bsp/inc/SYS.h **** #define SYS_GPB_MFP_PB8_CLKO        (1UL<<8)            /*!< GPB_MFP PB.8 setting for CLKO */
 801:./bsp/inc/SYS.h **** #define SYS_ALT_MFP_PB8_CLKO        (1UL<<29)           /*!< ALT_MFP PB.8 setting for CLKO */
 802:./bsp/inc/SYS.h **** #define SYS_ALT_MFP1_PB8_CLKO       NULL                /*!< No ALT_MFP1 setting for PB.8 */
 803:./bsp/inc/SYS.h **** #define SYS_ALT_MFP2_PB8_CLKO       NULL                /*!< No ALT_MFP2 setting for PB.8 */
 804:./bsp/inc/SYS.h **** #define SYS_ALT_MFP3_PB8_CLKO       0x00000000UL        /*!< ALT_MFP3 PB.8 setting for CLKO */
 805:./bsp/inc/SYS.h **** #define SYS_ALT_MFP4_PB8_CLKO       NULL                /*!< No ALT_MFP4 setting for PB.8 */
 806:./bsp/inc/SYS.h **** 
 807:./bsp/inc/SYS.h **** #define SYS_GPB_MFP_PB8_BPWM1_CH2   (1UL<<8)            /*!< GPB_MFP PB.8 setting for CLKO */
 808:./bsp/inc/SYS.h **** #define SYS_ALT_MFP_PB8_BPWM1_CH2   0x00000000UL        /*!< ALT_MFP PB.8 setting for CLKO */
 809:./bsp/inc/SYS.h **** #define SYS_ALT_MFP1_PB8_BPWM1_CH2  NULL                /*!< No ALT_MFP1 setting for PB.8 */
 810:./bsp/inc/SYS.h **** #define SYS_ALT_MFP2_PB8_BPWM1_CH2  NULL                /*!< No ALT_MFP2 setting for PB.8 */
 811:./bsp/inc/SYS.h **** #define SYS_ALT_MFP3_PB8_BPWM1_CH2  (1UL<<20)           /*!< ALT_MFP3 PB.8 setting for CLKO */
 812:./bsp/inc/SYS.h **** #define SYS_ALT_MFP4_PB8_BPWM1_CH2  NULL                /*!< No ALT_MFP4 setting for PB.8 */
 813:./bsp/inc/SYS.h **** 
 814:./bsp/inc/SYS.h **** #define SYS_GPB_MFP_PB8_Msk         (1UL<<8)            /*!< GPB_MFP PB.8 mask */
 815:./bsp/inc/SYS.h **** #define SYS_ALT_MFP_PB8_Msk         (1UL<<29)           /*!< ALT_MFP PB.8 mask */
 816:./bsp/inc/SYS.h **** #define SYS_ALT_MFP1_PB8_Msk        NULL                /*!< No ALT_MFP1 PB.8 mask */
 817:./bsp/inc/SYS.h **** #define SYS_ALT_MFP2_PB8_Msk        NULL                /*!< No ALT_MFP2 PB.8 mask */
 818:./bsp/inc/SYS.h **** #define SYS_ALT_MFP3_PB8_Msk        (1UL<<20)           /*!< ALT_MFP3 PB.8 mask */
 819:./bsp/inc/SYS.h **** #define SYS_ALT_MFP4_PB8_Msk        NULL                /*!< No ALT_MFP4 PB.8 mask */
 820:./bsp/inc/SYS.h **** 
 821:./bsp/inc/SYS.h **** //PB.9
 822:./bsp/inc/SYS.h **** #define SYS_GPB_MFP_PB9_GPIO        0x00000000UL        /*!< GPB_MFP PB.9 setting for GPIO */
 823:./bsp/inc/SYS.h **** #define SYS_ALT_MFP_PB9_GPIO        NULL                /*!< No ALT_MFP setting for PB.9 */
 824:./bsp/inc/SYS.h **** #define SYS_ALT_MFP1_PB9_GPIO       NULL                /*!< No ALT_MFP1 setting for PB.9 */
 825:./bsp/inc/SYS.h **** #define SYS_ALT_MFP2_PB9_GPIO       NULL                /*!< No ALT_MFP2 setting for PB.9 */
 826:./bsp/inc/SYS.h **** #define SYS_ALT_MFP3_PB9_GPIO       NULL                /*!< No ALT_MFP3 setting for PB.9 */
 827:./bsp/inc/SYS.h **** #define SYS_ALT_MFP4_PB9_GPIO       NULL                /*!< No ALT_MFP4 setting for PB.9 */
 828:./bsp/inc/SYS.h **** 
 829:./bsp/inc/SYS.h **** #define SYS_GPB_MFP_PB9_TM1         (1UL<<9)            /*!< GPB_MFP PB.9 setting for TM1 */
 830:./bsp/inc/SYS.h **** #define SYS_ALT_MFP_PB9_TM1         NULL                /*!< No ALT_MFP setting for PB.9 */
 831:./bsp/inc/SYS.h **** #define SYS_ALT_MFP1_PB9_TM1        NULL                /*!< No ALT_MFP1 setting for PB.9 */
 832:./bsp/inc/SYS.h **** #define SYS_ALT_MFP2_PB9_TM1        NULL                /*!< No ALT_MFP2 setting for PB.9 */
 833:./bsp/inc/SYS.h **** #define SYS_ALT_MFP3_PB9_TM1        NULL                /*!< No ALT_MFP3 setting for PB.9 */
 834:./bsp/inc/SYS.h **** #define SYS_ALT_MFP4_PB9_TM1        NULL                /*!< No ALT_MFP4 setting for PB.9 */
 835:./bsp/inc/SYS.h **** 
 836:./bsp/inc/SYS.h **** #define SYS_GPB_MFP_PB9_Msk         (1UL<<9)            /*!< GPB_MFP PB.9 mask */
 837:./bsp/inc/SYS.h **** #define SYS_ALT_MFP_PB9_Msk         NULL                /*!< No ALT_MFP PB.9 mask */
 838:./bsp/inc/SYS.h **** #define SYS_ALT_MFP1_PB9_Msk        NULL                /*!< No ALT_MFP1 PB.9 mask */
 839:./bsp/inc/SYS.h **** #define SYS_ALT_MFP2_PB9_Msk        NULL                /*!< No ALT_MFP2 PB.9 mask */
 840:./bsp/inc/SYS.h **** #define SYS_ALT_MFP3_PB9_Msk        NULL                /*!< No ALT_MFP3 PB.9 mask */
 841:./bsp/inc/SYS.h **** #define SYS_ALT_MFP4_PB9_Msk        NULL                /*!< No ALT_MFP4 PB.9 mask */
 842:./bsp/inc/SYS.h **** 
 843:./bsp/inc/SYS.h **** //PB.10
 844:./bsp/inc/SYS.h **** #define SYS_GPB_MFP_PB10_GPIO       0x00000000UL        /*!< GPB_MFP PB.10 setting for GPIO */
 845:./bsp/inc/SYS.h **** #define SYS_ALT_MFP_PB10_GPIO       NULL                /*!< No ALT_MFP setting for PB.10 */
 846:./bsp/inc/SYS.h **** #define SYS_ALT_MFP1_PB10_GPIO      NULL                /*!< No ALT_MFP1 setting for PB.10 */
 847:./bsp/inc/SYS.h **** #define SYS_ALT_MFP2_PB10_GPIO      NULL                /*!< No ALT_MFP2 setting for PB.10 */
 848:./bsp/inc/SYS.h **** #define SYS_ALT_MFP3_PB10_GPIO      NULL                /*!< No ALT_MFP3 setting for PB.10 */
 849:./bsp/inc/SYS.h **** #define SYS_ALT_MFP4_PB10_GPIO      NULL                /*!< No ALT_MFP4 setting for PB.10 */
 850:./bsp/inc/SYS.h **** 
 851:./bsp/inc/SYS.h **** #define SYS_GPB_MFP_PB10_TM2        (1UL<<10)           /*!< GPB_MFP PB.10 setting for TM2 */
 852:./bsp/inc/SYS.h **** #define SYS_ALT_MFP_PB10_TM2        NULL                /*!< No ALT_MFP setting for PB.10 */
 853:./bsp/inc/SYS.h **** #define SYS_ALT_MFP1_PB10_TM2       NULL                /*!< No ALT_MFP1 setting for PB.10 */
 854:./bsp/inc/SYS.h **** #define SYS_ALT_MFP2_PB10_TM2       NULL                /*!< No ALT_MFP2 setting for PB.10 */
 855:./bsp/inc/SYS.h **** #define SYS_ALT_MFP3_PB10_TM2       NULL                /*!< No ALT_MFP3 setting for PB.10 */
 856:./bsp/inc/SYS.h **** #define SYS_ALT_MFP4_PB10_TM2       NULL                /*!< No ALT_MFP4 setting for PB.10 */
 857:./bsp/inc/SYS.h **** 
 858:./bsp/inc/SYS.h **** #define SYS_GPB_MFP_PB10_Msk        (1UL<<10)           /*!< GPB_MFP PB.10 mask */
 859:./bsp/inc/SYS.h **** #define SYS_ALT_MFP_PB10_Msk        NULL                /*!< No ALT_MFP PB.10 mask */
 860:./bsp/inc/SYS.h **** #define SYS_ALT_MFP1_PB10_Msk       NULL                /*!< No ALT_MFP1 PB.10 mask */
 861:./bsp/inc/SYS.h **** #define SYS_ALT_MFP2_PB10_Msk       NULL                /*!< No ALT_MFP2 PB.10 mask */
 862:./bsp/inc/SYS.h **** #define SYS_ALT_MFP3_PB10_Msk       NULL                /*!< No ALT_MFP3 PB.10 mask */
 863:./bsp/inc/SYS.h **** #define SYS_ALT_MFP4_PB10_Msk       NULL                /*!< No ALT_MFP4 PB.10 mask */
 864:./bsp/inc/SYS.h **** 
 865:./bsp/inc/SYS.h **** //PB.11
 866:./bsp/inc/SYS.h **** #define SYS_GPB_MFP_PB11_GPIO       0x00000000UL        /*!< GPB_MFP PB.11 setting for GPIO */
 867:./bsp/inc/SYS.h **** #define SYS_ALT_MFP_PB11_GPIO       NULL                /*!< No ALT_MFP setting for PB.11 */
 868:./bsp/inc/SYS.h **** #define SYS_ALT_MFP1_PB11_GPIO      NULL                /*!< No ALT_MFP1 setting for PB.11 */
 869:./bsp/inc/SYS.h **** #define SYS_ALT_MFP2_PB11_GPIO      NULL                /*!< No ALT_MFP2 setting for PB.11 */
 870:./bsp/inc/SYS.h **** #define SYS_ALT_MFP3_PB11_GPIO      0x00000000UL        /*!< ALT_MFP3 PB.11 setting for GPIO */
 871:./bsp/inc/SYS.h **** #define SYS_ALT_MFP4_PB11_GPIO      NULL                /*!< No ALT_MFP4 setting for PB.11 */
 872:./bsp/inc/SYS.h **** 
 873:./bsp/inc/SYS.h **** #define SYS_GPB_MFP_PB11_TM3        (1UL<<11)           /*!< GPB_MFP PB.11 setting for TM3 */
 874:./bsp/inc/SYS.h **** #define SYS_ALT_MFP_PB11_TM3        NULL                /*!< No ALT_MFP setting for PB.11 */
 875:./bsp/inc/SYS.h **** #define SYS_ALT_MFP1_PB11_TM3       NULL                /*!< No ALT_MFP1 setting for PB.11 */
 876:./bsp/inc/SYS.h **** #define SYS_ALT_MFP2_PB11_TM3       NULL                /*!< No ALT_MFP2 setting for PB.11 */
 877:./bsp/inc/SYS.h **** #define SYS_ALT_MFP3_PB11_TM3       0x00000000UL        /*!< ALT_MFP3 PB.11 setting for TM3 */
 878:./bsp/inc/SYS.h **** #define SYS_ALT_MFP4_PB11_TM3       NULL                /*!< No ALT_MFP4 setting for PB.11 */
 879:./bsp/inc/SYS.h **** 
 880:./bsp/inc/SYS.h **** #define SYS_GPB_MFP_PB11_PWM0_CH4   (1UL<<11)           /*!< GPB_MFP PB.11 setting for PWM0_CH4 */
 881:./bsp/inc/SYS.h **** #define SYS_ALT_MFP_PB11_PWM0_CH4   NULL                /*!< No ALT_MFP setting for PB.11 */
 882:./bsp/inc/SYS.h **** #define SYS_ALT_MFP1_PB11_PWM0_CH4  NULL                /*!< No ALT_MFP1 setting for PB.11 */
 883:./bsp/inc/SYS.h **** #define SYS_ALT_MFP2_PB11_PWM0_CH4  NULL                /*!< No ALT_MFP2 setting for PB.11 */
 884:./bsp/inc/SYS.h **** #define SYS_ALT_MFP3_PB11_PWM0_CH4  (1UL<<24)           /*!< ALT_MFP3 PB.11 setting for PWM0_CH4 */
 885:./bsp/inc/SYS.h **** #define SYS_ALT_MFP4_PB11_PWM0_CH4  NULL                /*!< No ALT_MFP4 setting for PB.11 */
 886:./bsp/inc/SYS.h **** 
 887:./bsp/inc/SYS.h **** #define SYS_GPB_MFP_PB11_Msk        (1UL<<11)           /*!< GPB_MFP PB.11 mask */
 888:./bsp/inc/SYS.h **** #define SYS_ALT_MFP_PB11_Msk        NULL                /*!< No ALT_MFP PB.11 mask */
 889:./bsp/inc/SYS.h **** #define SYS_ALT_MFP1_PB11_Msk       NULL                /*!< No ALT_MFP1 PB.11 mask */
 890:./bsp/inc/SYS.h **** #define SYS_ALT_MFP2_PB11_Msk       NULL                /*!< No ALT_MFP2 PB.11 mask */
 891:./bsp/inc/SYS.h **** #define SYS_ALT_MFP3_PB11_Msk       (1UL<<24)           /*!< ALT_MFP3 PB.11 mask */
 892:./bsp/inc/SYS.h **** #define SYS_ALT_MFP4_PB11_Msk       NULL                /*!< No ALT_MFP4 PB.11 mask */
 893:./bsp/inc/SYS.h **** 
 894:./bsp/inc/SYS.h **** //PB.12
 895:./bsp/inc/SYS.h **** #define SYS_GPB_MFP_PB12_GPIO       0x00000000UL        /*!< GPB_MFP PB.12 setting for GPIO */
 896:./bsp/inc/SYS.h **** #define SYS_ALT_MFP_PB12_GPIO       NULL                /*!< No ALT_MFP setting for PB.12 */
 897:./bsp/inc/SYS.h **** #define SYS_ALT_MFP1_PB12_GPIO      NULL                /*!< No ALT_MFP1 setting for PB.12 */
 898:./bsp/inc/SYS.h **** #define SYS_ALT_MFP2_PB12_GPIO      NULL                /*!< No ALT_MFP2 setting for PB.12 */
 899:./bsp/inc/SYS.h **** #define SYS_ALT_MFP3_PB12_GPIO      0x00000000UL        /*!< ALT_MFP3 PB.12 setting for GPIO */
 900:./bsp/inc/SYS.h **** #define SYS_ALT_MFP4_PB12_GPIO      NULL                /*!< No ALT_MFP4 setting for PB.12 */
 901:./bsp/inc/SYS.h **** 
 902:./bsp/inc/SYS.h **** #define SYS_GPB_MFP_PB12_CLKO       (1UL<<12)           /*!< GPB_MFP PB.12 setting for CLKO */
 903:./bsp/inc/SYS.h **** #define SYS_ALT_MFP_PB12_CLKO       NULL                /*!< No ALT_MFP setting for PB.12 */
 904:./bsp/inc/SYS.h **** #define SYS_ALT_MFP1_PB12_CLKO      NULL                /*!< No ALT_MFP1 setting for PB.12 */
 905:./bsp/inc/SYS.h **** #define SYS_ALT_MFP2_PB12_CLKO      NULL                /*!< No ALT_MFP2 setting for PB.12 */
 906:./bsp/inc/SYS.h **** #define SYS_ALT_MFP3_PB12_CLKO      0x00000000UL        /*!< ALT_MFP3 PB.12 setting for CLKO */
 907:./bsp/inc/SYS.h **** #define SYS_ALT_MFP4_PB12_CLKO      NULL                /*!< No ALT_MFP4 setting for PB.12 */
 908:./bsp/inc/SYS.h **** 
 909:./bsp/inc/SYS.h **** #define SYS_GPB_MFP_PB12_BPWM1_CH3      (1UL<<12)       /*!< GPB_MFP PB.12 setting for BPWM1_CH3 */
 910:./bsp/inc/SYS.h **** #define SYS_ALT_MFP_PB12_BPWM1_CH3      NULL            /*!< No ALT_MFP setting for PB.12 */
 911:./bsp/inc/SYS.h **** #define SYS_ALT_MFP1_PB12_BPWM1_CH3     NULL            /*!< No ALT_MFP1 setting for PB.12 */
 912:./bsp/inc/SYS.h **** #define SYS_ALT_MFP2_PB12_BPWM1_CH3     NULL            /*!< No ALT_MFP2 setting for PB.12 */
 913:./bsp/inc/SYS.h **** #define SYS_ALT_MFP3_PB12_BPWM1_CH3     (1UL<<21)       /*!< ALT_MFP3 PB.12 setting for BPWM1_CH3 *
 914:./bsp/inc/SYS.h **** #define SYS_ALT_MFP4_PB12_BPWM1_CH3     NULL            /*!< No ALT_MFP4 setting for PB.12 */
 915:./bsp/inc/SYS.h **** 
 916:./bsp/inc/SYS.h **** #define SYS_GPB_MFP_PB12_Msk        (1UL<<12)           /*!< GPB_MFP PB.12 mask */
 917:./bsp/inc/SYS.h **** #define SYS_ALT_MFP_PB12_Msk        NULL                /*!< No ALT_MFP PB.12 mask */
 918:./bsp/inc/SYS.h **** #define SYS_ALT_MFP1_PB12_Msk       NULL                /*!< No ALT_MFP1 PB.12 mask */
 919:./bsp/inc/SYS.h **** #define SYS_ALT_MFP2_PB12_Msk       NULL                /*!< No ALT_MFP2 PB.12 mask */
 920:./bsp/inc/SYS.h **** #define SYS_ALT_MFP3_PB12_Msk       (1UL<<21)           /*!< ALT_MFP3 PB.12 mask */
 921:./bsp/inc/SYS.h **** #define SYS_ALT_MFP4_PB12_Msk       NULL                /*!< No ALT_MFP4 PB.12 mask */
 922:./bsp/inc/SYS.h **** 
 923:./bsp/inc/SYS.h **** //PB.13
 924:./bsp/inc/SYS.h **** #define SYS_GPB_MFP_PB13_GPIO       0x00000000UL        /*!< GPB_MFP PB.13 setting for GPIO */
 925:./bsp/inc/SYS.h **** #define SYS_ALT_MFP_PB13_GPIO       NULL                /*!< No ALT_MFP setting for PB.13 */
 926:./bsp/inc/SYS.h **** #define SYS_ALT_MFP1_PB13_GPIO      NULL                /*!< No ALT_MFP1 setting for PB.13 */
 927:./bsp/inc/SYS.h **** #define SYS_ALT_MFP2_PB13_GPIO      NULL                /*!< No ALT_MFP2 setting for PB.13 */
 928:./bsp/inc/SYS.h **** #define SYS_ALT_MFP3_PB13_GPIO      NULL                /*!< No ALT_MFP3 setting for PB.13 */
 929:./bsp/inc/SYS.h **** #define SYS_ALT_MFP4_PB13_GPIO      NULL                /*!< No ALT_MFP4 setting for PB.13 */
 930:./bsp/inc/SYS.h **** 
 931:./bsp/inc/SYS.h **** #define SYS_GPB_MFP_PB13_Msk        (1UL<<13)           /*!< GPB_MFP PB.13 mask */
 932:./bsp/inc/SYS.h **** #define SYS_ALT_MFP_PB13_Msk        NULL                /*!< No ALT_MFP PB.13 mask */
 933:./bsp/inc/SYS.h **** #define SYS_ALT_MFP1_PB13_Msk       NULL                /*!< No ALT_MFP1 PB.13 mask */
 934:./bsp/inc/SYS.h **** #define SYS_ALT_MFP2_PB13_Msk       NULL                /*!< No ALT_MFP2 PB.13 mask */
 935:./bsp/inc/SYS.h **** #define SYS_ALT_MFP3_PB13_Msk       NULL                /*!< No ALT_MFP3 PB.13 mask */
 936:./bsp/inc/SYS.h **** #define SYS_ALT_MFP4_PB13_Msk       NULL                /*!< No ALT_MFP4 PB.13 mask */
 937:./bsp/inc/SYS.h **** 
 938:./bsp/inc/SYS.h **** //PB.14
 939:./bsp/inc/SYS.h **** #define SYS_GPB_MFP_PB14_GPIO       0x00000000UL        /*!< GPB_MFP PB.14 setting for GPIO */
 940:./bsp/inc/SYS.h **** #define SYS_ALT_MFP_PB14_GPIO       NULL                /*!< No ALT_MFP setting for PB.14 */
 941:./bsp/inc/SYS.h **** #define SYS_ALT_MFP1_PB14_GPIO      NULL                /*!< No ALT_MFP1 setting for PB.14 */
 942:./bsp/inc/SYS.h **** #define SYS_ALT_MFP2_PB14_GPIO      NULL                /*!< No ALT_MFP2 setting for PB.14 */
 943:./bsp/inc/SYS.h **** #define SYS_ALT_MFP3_PB14_GPIO      NULL                /*!< No ALT_MFP3 setting for PB.14 */
 944:./bsp/inc/SYS.h **** #define SYS_ALT_MFP4_PB14_GPIO      NULL                /*!< No ALT_MFP4 setting for PB.14 */
 945:./bsp/inc/SYS.h **** 
 946:./bsp/inc/SYS.h **** #define SYS_GPB_MFP_PB14_INT0       0x00000000UL        /*!< GPB_MFP PB.14 setting for INT0 */
 947:./bsp/inc/SYS.h **** #define SYS_ALT_MFP_PB14_INT0       NULL                /*!< No ALT_MFP setting for PB.14 */
 948:./bsp/inc/SYS.h **** #define SYS_ALT_MFP1_PB14_INT0      NULL                /*!< No ALT_MFP1 setting for PB.14 */
 949:./bsp/inc/SYS.h **** #define SYS_ALT_MFP2_PB14_INT0      NULL                /*!< No ALT_MFP2 setting for PB.14 */
 950:./bsp/inc/SYS.h **** #define SYS_ALT_MFP3_PB14_INT0      NULL                /*!< No ALT_MFP3 setting for PB.14 */
 951:./bsp/inc/SYS.h **** #define SYS_ALT_MFP4_PB14_INT0      NULL                /*!< No ALT_MFP4 setting for PB.14 */
 952:./bsp/inc/SYS.h **** 
 953:./bsp/inc/SYS.h **** #define SYS_GPB_MFP_PB14_Msk        (1UL<<14)           /*!< GPB_MFP PB.14 mask */
 954:./bsp/inc/SYS.h **** #define SYS_ALT_MFP_PB14_Msk        NULL                /*!< No ALT_MFP PB.14 mask */
 955:./bsp/inc/SYS.h **** #define SYS_ALT_MFP1_PB14_Msk       NULL                /*!< No ALT_MFP1 PB.14 mask */
 956:./bsp/inc/SYS.h **** #define SYS_ALT_MFP2_PB14_Msk       NULL                /*!< No ALT_MFP2 PB.14 mask */
 957:./bsp/inc/SYS.h **** #define SYS_ALT_MFP3_PB14_Msk       NULL                /*!< No ALT_MFP3 PB.14 mask */
 958:./bsp/inc/SYS.h **** #define SYS_ALT_MFP4_PB14_Msk       NULL                /*!< No ALT_MFP4 PB.14 mask */
 959:./bsp/inc/SYS.h **** 
 960:./bsp/inc/SYS.h **** //PB.15
 961:./bsp/inc/SYS.h **** #define SYS_GPB_MFP_PB15_GPIO       0x00000000UL        /*!< GPB_MFP PB.15 setting for GPIO */
 962:./bsp/inc/SYS.h **** #define SYS_ALT_MFP_PB15_GPIO       0x00000000UL        /*!< ALT_MFP PB.15 setting for GPIO */
 963:./bsp/inc/SYS.h **** #define SYS_ALT_MFP1_PB15_GPIO      NULL                /*!< No ALT_MFP1 setting for PB.15 */
 964:./bsp/inc/SYS.h **** #define SYS_ALT_MFP2_PB15_GPIO      0x00000000UL        /*!< ALT_MFP2 PB.15 setting for GPIO */
 965:./bsp/inc/SYS.h **** #define SYS_ALT_MFP3_PB15_GPIO      NULL                /*!< No ALT_MFP3 setting for PB.15 */
 966:./bsp/inc/SYS.h **** #define SYS_ALT_MFP4_PB15_GPIO      NULL                /*!< No ALT_MFP4 setting for PB.15 */
 967:./bsp/inc/SYS.h **** 
 968:./bsp/inc/SYS.h **** #define SYS_GPB_MFP_PB15_INT1       (1UL<<15)           /*!< GPB_MFP PB.15 setting for INT1 */
 969:./bsp/inc/SYS.h **** #define SYS_ALT_MFP_PB15_INT1       0x00000000UL        /*!< ALT_MFP PB.15 setting for INT1 */
 970:./bsp/inc/SYS.h **** #define SYS_ALT_MFP1_PB15_INT1      NULL                /*!< No ALT_MFP1 setting for PB.15 */
 971:./bsp/inc/SYS.h **** #define SYS_ALT_MFP2_PB15_INT1      0x00000000UL        /*!< ALT_MFP2 PB.15 setting for INT1 */
 972:./bsp/inc/SYS.h **** #define SYS_ALT_MFP3_PB15_INT1      NULL                /*!< No ALT_MFP3 setting for PB.15 */
 973:./bsp/inc/SYS.h **** #define SYS_ALT_MFP4_PB15_INT1      NULL                /*!< No ALT_MFP4 setting for PB.15 */
 974:./bsp/inc/SYS.h **** 
 975:./bsp/inc/SYS.h **** #define SYS_GPB_MFP_PB15_TM0        (1UL<<15)           /*!< GPB_MFP PB.15 setting for TM0 */
 976:./bsp/inc/SYS.h **** #define SYS_ALT_MFP_PB15_TM0        0x00000000UL        /*!< ALT_MFP PB.15 setting for TM0 */
 977:./bsp/inc/SYS.h **** #define SYS_ALT_MFP1_PB15_TM0       NULL                /*!< No ALT_MFP1 setting for PB.15 */
 978:./bsp/inc/SYS.h **** #define SYS_ALT_MFP2_PB15_TM0       (1UL<<2)            /*!< ALT_MFP2 PB.15 setting for TM0 */
 979:./bsp/inc/SYS.h **** #define SYS_ALT_MFP3_PB15_TM0       NULL                /*!< No ALT_MFP3 setting for PB.15 */
 980:./bsp/inc/SYS.h **** #define SYS_ALT_MFP4_PB15_TM0       NULL                /*!< No ALT_MFP4 setting for PB.15 */
 981:./bsp/inc/SYS.h **** 
 982:./bsp/inc/SYS.h **** #define SYS_GPB_MFP_PB15_TM0_EXT    (1UL<<15)           /*!< GPB_MFP PB.15 setting for TM0_EXT */
 983:./bsp/inc/SYS.h **** #define SYS_ALT_MFP_PB15_TM0_EXT    (1UL<<24)           /*!< ALT_MFP PB.15 setting for TM0_EXT */
 984:./bsp/inc/SYS.h **** #define SYS_ALT_MFP1_PB15_TM0_EXT   NULL                /*!< No ALT_MFP1 setting for PB.15 */
 985:./bsp/inc/SYS.h **** #define SYS_ALT_MFP2_PB15_TM0_EXT   0x00000000UL        /*!< ALT_MFP2 PB.15 setting for TM0_EXT */
 986:./bsp/inc/SYS.h **** #define SYS_ALT_MFP3_PB15_TM0_EXT   NULL                /*!< No ALT_MFP3 setting for PB.15 */
 987:./bsp/inc/SYS.h **** #define SYS_ALT_MFP4_PB15_TM0_EXT   NULL                /*!< No ALT_MFP4 setting for PB.15 */
 988:./bsp/inc/SYS.h **** 
 989:./bsp/inc/SYS.h **** #define SYS_GPB_MFP_PB15_Msk        (1UL<<15)           /*!< GPB_MFP PB.15 mask */
 990:./bsp/inc/SYS.h **** #define SYS_ALT_MFP_PB15_Msk        (1UL<<24)           /*!< ALT_MFP PB.15 mask */
 991:./bsp/inc/SYS.h **** #define SYS_ALT_MFP1_PB15_Msk       NULL                /*!< No ALT_MFP1 PB.15 mask */
 992:./bsp/inc/SYS.h **** #define SYS_ALT_MFP2_PB15_Msk       (1UL<<2)            /*!< ALT_MFP2 PB.15 mask */
 993:./bsp/inc/SYS.h **** #define SYS_ALT_MFP3_PB15_Msk       NULL                /*!< No ALT_MFP3 PB.15 mask */
 994:./bsp/inc/SYS.h **** #define SYS_ALT_MFP4_PB15_Msk       NULL                /*!< No ALT_MFP4 PB.15 mask */
 995:./bsp/inc/SYS.h **** 
 996:./bsp/inc/SYS.h **** //PC.0
 997:./bsp/inc/SYS.h **** #define SYS_GPC_MFP_PC0_GPIO        0x00000000UL        /*!< GPC_MFP PC.0 setting for GPIO */
 998:./bsp/inc/SYS.h **** #define SYS_ALT_MFP_PC0_GPIO        NULL                /*!< No ALT_MFP setting for PC.0 */
 999:./bsp/inc/SYS.h **** #define SYS_ALT_MFP1_PC0_GPIO       NULL                /*!< No ALT_MFP1 setting for PC.0 */
1000:./bsp/inc/SYS.h **** #define SYS_ALT_MFP2_PC0_GPIO       NULL                /*!< ALT_MFP2 PC.0 setting for GPIO */
1001:./bsp/inc/SYS.h **** #define SYS_ALT_MFP3_PC0_GPIO       0x00000000UL        /*!< No ALT_MFP3 setting for PC.0 */
1002:./bsp/inc/SYS.h **** #define SYS_ALT_MFP4_PC0_GPIO       NULL                /*!< No ALT_MFP4 setting for PC.0 */
1003:./bsp/inc/SYS.h **** 
1004:./bsp/inc/SYS.h **** #define SYS_GPC_MFP_PC0_SPI0_SS0    (1UL<<0)            /*!< GPC_MFP PC.0 setting for SPI0_SS0 */
1005:./bsp/inc/SYS.h **** #define SYS_ALT_MFP_PC0_SPI0_SS0    NULL                /*!< No ALT_MFP setting for PC.0 */
1006:./bsp/inc/SYS.h **** #define SYS_ALT_MFP1_PC0_SPI0_SS0   NULL                /*!< No ALT_MFP1 setting for PC.0 */
1007:./bsp/inc/SYS.h **** #define SYS_ALT_MFP2_PC0_SPI0_SS0   NULL                /*!< ALT_MFP2 PC.0 setting for SPI0_SS0 */
1008:./bsp/inc/SYS.h **** #define SYS_ALT_MFP3_PC0_SPI0_SS0   0x00000000UL        /*!< No ALT_MFP3 setting for PC.0 */
1009:./bsp/inc/SYS.h **** #define SYS_ALT_MFP4_PC0_SPI0_SS0   NULL                /*!< No ALT_MFP4 setting for PC.0 */
1010:./bsp/inc/SYS.h **** 
1011:./bsp/inc/SYS.h **** #define SYS_GPC_MFP_PC0_BPWM0_CH0       (1UL<<0)        /*!< GPC_MFP PC.0 setting for BPWM0_CH0 */
1012:./bsp/inc/SYS.h **** #define SYS_ALT_MFP_PC0_BPWM0_CH0       NULL            /*!< No ALT_MFP setting for PC.0 */
1013:./bsp/inc/SYS.h **** #define SYS_ALT_MFP1_PC0_BPWM0_CH0      NULL            /*!< No ALT_MFP1 setting for PC.0 */
1014:./bsp/inc/SYS.h **** #define SYS_ALT_MFP2_PC0_BPWM0_CH0      NULL            /*!< ALT_MFP2 PC.0 setting for BPWM0_CH0 */
1015:./bsp/inc/SYS.h **** #define SYS_ALT_MFP3_PC0_BPWM0_CH0      (1UL<<12)       /*!< No ALT_MFP3 setting for PC.0 */
1016:./bsp/inc/SYS.h **** #define SYS_ALT_MFP4_PC0_BPWM0_CH0      NULL            /*!< No ALT_MFP4 setting for PC.0 */
1017:./bsp/inc/SYS.h **** 
1018:./bsp/inc/SYS.h **** #define SYS_GPC_MFP_PC0_Msk         (1UL<<0)            /*!< GPC_MFP PC.0 mask */
1019:./bsp/inc/SYS.h **** #define SYS_ALT_MFP_PC0_Msk         NULL                /*!< No ALT_MFP PC.0 mask */
1020:./bsp/inc/SYS.h **** #define SYS_ALT_MFP1_PC0_Msk        NULL                /*!< No ALT_MFP1 PC.0 mask */
1021:./bsp/inc/SYS.h **** #define SYS_ALT_MFP2_PC0_Msk        NULL                /*!< No ALT_MFP2 PC.0 mask */
1022:./bsp/inc/SYS.h **** #define SYS_ALT_MFP3_PC0_Msk        (1UL<<12)           /*!< ALT_MFP3 PC.0 mask */
1023:./bsp/inc/SYS.h **** #define SYS_ALT_MFP4_PC0_Msk        NULL                /*!< No ALT_MFP4 PC.0 mask */
1024:./bsp/inc/SYS.h **** 
1025:./bsp/inc/SYS.h **** //PC.1
1026:./bsp/inc/SYS.h **** #define SYS_GPC_MFP_PC1_GPIO        0x00000000UL        /*!< GPC_MFP PC.1 setting for GPIO */
1027:./bsp/inc/SYS.h **** #define SYS_ALT_MFP_PC1_GPIO        NULL                /*!< No ALT_MFP setting for PC.1 */
1028:./bsp/inc/SYS.h **** #define SYS_ALT_MFP1_PC1_GPIO       NULL                /*!< No ALT_MFP1 setting for PC.1 */
1029:./bsp/inc/SYS.h **** #define SYS_ALT_MFP2_PC1_GPIO       NULL                /*!< No ALT_MFP2 setting for PC.1 */
1030:./bsp/inc/SYS.h **** #define SYS_ALT_MFP3_PC1_GPIO       0x00000000UL        /*!< ALT_MFP3 PC.1 setting for GPIO */
1031:./bsp/inc/SYS.h **** #define SYS_ALT_MFP4_PC1_GPIO       NULL                /*!< No ALT_MFP4 setting for PC.1 */
1032:./bsp/inc/SYS.h **** 
1033:./bsp/inc/SYS.h **** #define SYS_GPC_MFP_PC1_SPI0_CLK        (1UL<<1)        /*!< GPC_MFP PC.1 setting for SPI0_CLK */
1034:./bsp/inc/SYS.h **** #define SYS_ALT_MFP_PC1_SPI0_CLK        NULL            /*!< No ALT_MFP setting for PC.1 */
1035:./bsp/inc/SYS.h **** #define SYS_ALT_MFP1_PC1_SPI0_CLK       NULL            /*!< No ALT_MFP1 setting for PC.1 */
1036:./bsp/inc/SYS.h **** #define SYS_ALT_MFP2_PC1_SPI0_CLK       NULL            /*!< No ALT_MFP2 setting for PC.1 */
1037:./bsp/inc/SYS.h **** #define SYS_ALT_MFP3_PC1_SPI0_CLK       0x00000000UL    /*!< ALT_MFP3 PC.1 setting for SPI0_CLK */
1038:./bsp/inc/SYS.h **** #define SYS_ALT_MFP4_PC1_SPI0_CLK       NULL            /*!< No ALT_MFP4 setting for PC.1 */
1039:./bsp/inc/SYS.h **** 
1040:./bsp/inc/SYS.h **** #define SYS_GPC_MFP_PC1_BPWM0_CH1       (1UL<<1)        /*!< GPC_MFP PC.1 setting for BPWM0_CH1 */
1041:./bsp/inc/SYS.h **** #define SYS_ALT_MFP_PC1_BPWM0_CH1       NULL            /*!< No ALT_MFP setting for PC.1 */
1042:./bsp/inc/SYS.h **** #define SYS_ALT_MFP1_PC1_BPWM0_CH1      NULL            /*!< No ALT_MFP1 setting for PC.1 */
1043:./bsp/inc/SYS.h **** #define SYS_ALT_MFP2_PC1_BPWM0_CH1      NULL            /*!< No ALT_MFP2 setting for PC.1 */
1044:./bsp/inc/SYS.h **** #define SYS_ALT_MFP3_PC1_BPWM0_CH1      (1UL<<13)       /*!< ALT_MFP3 PC.1 setting for BPWM0_CH1 */
1045:./bsp/inc/SYS.h **** #define SYS_ALT_MFP4_PC1_BPWM0_CH1      NULL            /*!< No ALT_MFP4 setting for PC.1 */
1046:./bsp/inc/SYS.h **** 
1047:./bsp/inc/SYS.h **** #define SYS_GPC_MFP_PC1_Msk         (1UL<<1)            /*!< GPC_MFP PC.1 mask */
1048:./bsp/inc/SYS.h **** #define SYS_ALT_MFP_PC1_Msk         NULL                /*!< No ALT_MFP PC.1 mask */
1049:./bsp/inc/SYS.h **** #define SYS_ALT_MFP1_PC1_Msk        NULL                /*!< No ALT_MFP1 PC.1 mask */
1050:./bsp/inc/SYS.h **** #define SYS_ALT_MFP2_PC1_Msk        NULL                /*!< No ALT_MFP2 PC.1 mask */
1051:./bsp/inc/SYS.h **** #define SYS_ALT_MFP3_PC1_Msk        (1UL<<13)           /*!< ALT_MFP3 PC.1 mask */
1052:./bsp/inc/SYS.h **** #define SYS_ALT_MFP4_PC1_Msk        NULL                /*!< No ALT_MFP4 PC.1 mask */
1053:./bsp/inc/SYS.h **** 
1054:./bsp/inc/SYS.h **** //PC.2
1055:./bsp/inc/SYS.h **** #define SYS_GPC_MFP_PC2_GPIO        0x00000000UL        /*!< GPC_MFP PC.2 setting for GPIO */
1056:./bsp/inc/SYS.h **** #define SYS_ALT_MFP_PC2_GPIO        NULL                /*!< No ALT_MFP setting for PC.2 */
1057:./bsp/inc/SYS.h **** #define SYS_ALT_MFP1_PC2_GPIO       NULL                /*!< No ALT_MFP1 setting for PC.2 */
1058:./bsp/inc/SYS.h **** #define SYS_ALT_MFP2_PC2_GPIO       NULL                /*!< No ALT_MFP2 setting for PC.2 */
1059:./bsp/inc/SYS.h **** #define SYS_ALT_MFP3_PC2_GPIO       0x00000000UL        /*!< ALT_MFP3 PC.2 setting for GPIO */
1060:./bsp/inc/SYS.h **** #define SYS_ALT_MFP4_PC2_GPIO       NULL                /*!< No ALT_MFP4 setting for PC.2 */
1061:./bsp/inc/SYS.h **** 
1062:./bsp/inc/SYS.h **** #define SYS_GPC_MFP_PC2_SPI0_MISO0      (1UL<<2)        /*!< GPC_MFP PC.2 setting for SPI0_MISO0 */
1063:./bsp/inc/SYS.h **** #define SYS_ALT_MFP_PC2_SPI0_MISO0      NULL            /*!< No ALT_MFP setting for PC.2 */
1064:./bsp/inc/SYS.h **** #define SYS_ALT_MFP1_PC2_SPI0_MISO0     NULL            /*!< No ALT_MFP1 setting for PC.2 */
1065:./bsp/inc/SYS.h **** #define SYS_ALT_MFP2_PC2_SPI0_MISO0     NULL            /*!< No ALT_MFP2 setting for PC.2 */
1066:./bsp/inc/SYS.h **** #define SYS_ALT_MFP3_PC2_SPI0_MISO0     0x00000000UL    /*!< ALT_MFP3 PC.2 setting for SPI0_MISO0 *
1067:./bsp/inc/SYS.h **** #define SYS_ALT_MFP4_PC2_SPI0_MISO0     NULL            /*!< No ALT_MFP4 setting for PC.2 */
1068:./bsp/inc/SYS.h **** 
1069:./bsp/inc/SYS.h **** #define SYS_GPC_MFP_PC2_BPWM0_CH2   (1UL<<2)            /*!< GPC_MFP PC.2 setting for BPWM0_CH2 */
1070:./bsp/inc/SYS.h **** #define SYS_ALT_MFP_PC2_BPWM0_CH2   NULL                /*!< No ALT_MFP setting for PC.2 */
1071:./bsp/inc/SYS.h **** #define SYS_ALT_MFP1_PC2_BPWM0_CH2  NULL                /*!< No ALT_MFP1 setting for PC.2 */
1072:./bsp/inc/SYS.h **** #define SYS_ALT_MFP2_PC2_BPWM0_CH2  NULL                /*!< No ALT_MFP2 setting for PC.2 */
1073:./bsp/inc/SYS.h **** #define SYS_ALT_MFP3_PC2_BPWM0_CH2  (1UL<<14)           /*!< ALT_MFP3 PC.2 setting for BPWM0_CH2 */
1074:./bsp/inc/SYS.h **** #define SYS_ALT_MFP4_PC2_BPWM0_CH2  NULL                /*!< No ALT_MFP4 setting for PC.2 */
1075:./bsp/inc/SYS.h **** 
1076:./bsp/inc/SYS.h **** #define SYS_GPC_MFP_PC2_Msk         (1UL<<2)            /*!< GPC_MFP PC.2 mask */
1077:./bsp/inc/SYS.h **** #define SYS_ALT_MFP_PC2_Msk         NULL                /*!< No ALT_MFP PC.2 mask */
1078:./bsp/inc/SYS.h **** #define SYS_ALT_MFP1_PC2_Msk        NULL                /*!< No ALT_MFP1 PC.2 mask */
1079:./bsp/inc/SYS.h **** #define SYS_ALT_MFP2_PC2_Msk        NULL                /*!< No ALT_MFP2 PC.2 mask */
1080:./bsp/inc/SYS.h **** #define SYS_ALT_MFP3_PC2_Msk        (1UL<<14)           /*!< ALT_MFP3 PC.2 mask */
1081:./bsp/inc/SYS.h **** #define SYS_ALT_MFP4_PC2_Msk        NULL                /*!< No ALT_MFP4 PC.2 mask */
1082:./bsp/inc/SYS.h **** 
1083:./bsp/inc/SYS.h **** //PC.3
1084:./bsp/inc/SYS.h **** #define SYS_GPC_MFP_PC3_GPIO        0x00000000UL        /*!< GPC_MFP PC.3 setting for GPIO */
1085:./bsp/inc/SYS.h **** #define SYS_ALT_MFP_PC3_GPIO        NULL                /*!< No ALT_MFP setting for PC.3 */
1086:./bsp/inc/SYS.h **** #define SYS_ALT_MFP1_PC3_GPIO       NULL                /*!< No ALT_MFP1 setting for PC.3 */
1087:./bsp/inc/SYS.h **** #define SYS_ALT_MFP2_PC3_GPIO       NULL                /*!< No ALT_MFP2 setting for PC.3 */
1088:./bsp/inc/SYS.h **** #define SYS_ALT_MFP3_PC3_GPIO       0x00000000UL        /*!< ALT_MFP3 PC.3 setting for GPIO */
1089:./bsp/inc/SYS.h **** #define SYS_ALT_MFP4_PC3_GPIO       NULL                /*!< No ALT_MFP4 setting for PC.3 */
1090:./bsp/inc/SYS.h **** 
1091:./bsp/inc/SYS.h **** #define SYS_GPC_MFP_PC3_SPI0_MOSI0      (1UL<<3)        /*!< GPC_MFP PC.3 setting for SPI0_MOSI0 */
1092:./bsp/inc/SYS.h **** #define SYS_ALT_MFP_PC3_SPI0_MOSI0      NULL            /*!< No ALT_MFP setting for PC.3 */
1093:./bsp/inc/SYS.h **** #define SYS_ALT_MFP1_PC3_SPI0_MOSI0     NULL            /*!< No ALT_MFP1 setting for PC.3 */
1094:./bsp/inc/SYS.h **** #define SYS_ALT_MFP2_PC3_SPI0_MOSI0     NULL            /*!< No ALT_MFP2 setting for PC.3 */
1095:./bsp/inc/SYS.h **** #define SYS_ALT_MFP3_PC3_SPI0_MOSI0     0x00000000UL    /*!< ALT_MFP3 PC.3 setting for SPI0_MOSI0 *
1096:./bsp/inc/SYS.h **** #define SYS_ALT_MFP4_PC3_SPI0_MOSI0     NULL            /*!< No ALT_MFP4 setting for PC.3 */
1097:./bsp/inc/SYS.h **** 
1098:./bsp/inc/SYS.h **** #define SYS_GPC_MFP_PC3_BPWM0_CH3   (1UL<<3)            /*!< GPC_MFP PC.3 setting for BPWM0_CH3 */
1099:./bsp/inc/SYS.h **** #define SYS_ALT_MFP_PC3_BPWM0_CH3   NULL                /*!< No ALT_MFP setting for PC.3 */
1100:./bsp/inc/SYS.h **** #define SYS_ALT_MFP1_PC3_BPWM0_CH3  NULL                /*!< No ALT_MFP1 setting for PC.3 */
1101:./bsp/inc/SYS.h **** #define SYS_ALT_MFP2_PC3_BPWM0_CH3  NULL                /*!< No ALT_MFP2 setting for PC.3 */
1102:./bsp/inc/SYS.h **** #define SYS_ALT_MFP3_PC3_BPWM0_CH3  (1UL<<15)           /*!< ALT_MFP3 PC.3 setting for BPWM0_CH3 */
1103:./bsp/inc/SYS.h **** #define SYS_ALT_MFP4_PC3_BPWM0_CH3  NULL                /*!< No ALT_MFP4 setting for PC.3 */
1104:./bsp/inc/SYS.h **** 
1105:./bsp/inc/SYS.h **** #define SYS_GPC_MFP_PC3_Msk         (1UL<<3)            /*!< GPC_MFP PC.3 mask */
1106:./bsp/inc/SYS.h **** #define SYS_ALT_MFP_PC3_Msk         NULL                /*!< No ALT_MFP PC.3 mask */
1107:./bsp/inc/SYS.h **** #define SYS_ALT_MFP1_PC3_Msk        NULL                /*!< No ALT_MFP1 PC.3 mask */
1108:./bsp/inc/SYS.h **** #define SYS_ALT_MFP2_PC3_Msk        NULL                /*!< No ALT_MFP2 PC.3 mask */
1109:./bsp/inc/SYS.h **** #define SYS_ALT_MFP3_PC3_Msk        (1UL<<15)           /*!< ALT_MFP3 PC.3 mask */
1110:./bsp/inc/SYS.h **** #define SYS_ALT_MFP4_PC3_Msk        NULL                /*!< No ALT_MFP4 PC.3 mask */
1111:./bsp/inc/SYS.h **** 
1112:./bsp/inc/SYS.h **** //PC.6
1113:./bsp/inc/SYS.h **** #define SYS_GPC_MFP_PC6_GPIO        0x00000000UL        /*!< GPC_MFP PC.6 setting for GPIO */
1114:./bsp/inc/SYS.h **** #define SYS_ALT_MFP_PC6_GPIO        NULL                /*!< No ALT_MFP setting for PC.6 */
1115:./bsp/inc/SYS.h **** #define SYS_ALT_MFP1_PC6_GPIO       NULL                /*!< No ALT_MFP1 setting for PC.6 */
1116:./bsp/inc/SYS.h **** #define SYS_ALT_MFP2_PC6_GPIO       NULL                /*!< No ALT_MFP2 setting for PC.6 */
1117:./bsp/inc/SYS.h **** #define SYS_ALT_MFP3_PC6_GPIO       0x00000000UL        /*!< ALT_MFP3 PC.4 setting for GPIO */
1118:./bsp/inc/SYS.h **** #define SYS_ALT_MFP4_PC6_GPIO       0x00000000UL        /*!< ALT_MFP4 PC.4 setting for GPIO */
1119:./bsp/inc/SYS.h **** 
1120:./bsp/inc/SYS.h **** #define SYS_GPC_MFP_PC6_UART4_TXD   (1UL<<6)            /*!< GPC_MFP PC.4 setting for UART6_TXD */
1121:./bsp/inc/SYS.h **** #define SYS_ALT_MFP_PC6_UART4_TXD   NULL                /*!< No ALT_MFP setting for PC.6 */
1122:./bsp/inc/SYS.h **** #define SYS_ALT_MFP1_PC6_UART4_TXD  NULL                /*!< No ALT_MFP1 setting for PC.6 */
1123:./bsp/inc/SYS.h **** #define SYS_ALT_MFP2_PC6_UART4_TXD  NULL                /*!< No ALT_MFP2 setting for PC.6 */
1124:./bsp/inc/SYS.h **** #define SYS_ALT_MFP3_PC6_UART4_TXD  0x00000000UL        /*!< ALT_MFP3 PC.6 setting for UART4_TXD */
1125:./bsp/inc/SYS.h **** #define SYS_ALT_MFP4_PC6_UART4_TXD  0x00000000UL        /*!< ALT_MFP4 PC.6 setting for UART4_TXD */
1126:./bsp/inc/SYS.h **** 
1127:./bsp/inc/SYS.h **** #define SYS_GPC_MFP_PC6_I2C0_SDA    (1UL<<6)            /*!< GPC_MFP PC.6 setting for I2C0_SDA */
1128:./bsp/inc/SYS.h **** #define SYS_ALT_MFP_PC6_I2C0_SDA    NULL                /*!< No ALT_MFP setting for PC.6 */
1129:./bsp/inc/SYS.h **** #define SYS_ALT_MFP1_PC6_I2C0_SDA   NULL                /*!< No ALT_MFP1 setting for PC.6 */
1130:./bsp/inc/SYS.h **** #define SYS_ALT_MFP2_PC6_I2C0_SDA   NULL                /*!< No ALT_MFP2 setting for PC.6 */
1131:./bsp/inc/SYS.h **** #define SYS_ALT_MFP3_PC6_I2C0_SDA   0x00000000UL        /*!< ALT_MFP3 PC.6 setting for I2C0_SDA */
1132:./bsp/inc/SYS.h **** #define SYS_ALT_MFP4_PC6_I2C0_SDA   (1UL<<10)           /*!< ALT_MFP4 PC.6 setting for I2C0_SDA */
1133:./bsp/inc/SYS.h **** 
1134:./bsp/inc/SYS.h **** #define SYS_GPC_MFP_PC6_PWM0_BREAK0     (1UL<<6)        /*!< GPC_MFP PC.6 setting for PWM0_BREAK0 *
1135:./bsp/inc/SYS.h **** #define SYS_ALT_MFP_PC6_PWM0_BREAK0     NULL            /*!< No ALT_MFP setting for PC.6 */
1136:./bsp/inc/SYS.h **** #define SYS_ALT_MFP1_PC6_PWM0_BREAK0    NULL            /*!< No ALT_MFP1 setting for PC.6 */
1137:./bsp/inc/SYS.h **** #define SYS_ALT_MFP2_PC6_PWM0_BREAK0    NULL            /*!< No ALT_MFP2 setting for PC.6 */
1138:./bsp/inc/SYS.h **** #define SYS_ALT_MFP3_PC6_PWM0_BREAK0    (1UL<<28)       /*!< ALT_MFP3 PC.6 setting for PWM0_BREAK0 
1139:./bsp/inc/SYS.h **** #define SYS_ALT_MFP4_PC6_PWM0_BREAK0    0x00000000UL    /*!< ALT_MFP4 PC.6 setting for PWM0_BREAK0 
1140:./bsp/inc/SYS.h **** 
1141:./bsp/inc/SYS.h **** #define SYS_GPC_MFP_PC6_Msk         (1UL<<6)            /*!< GPC_MFP PC.6 mask */
1142:./bsp/inc/SYS.h **** #define SYS_ALT_MFP_PC6_Msk         NULL                /*!< No ALT_MFP PC.6 mask */
1143:./bsp/inc/SYS.h **** #define SYS_ALT_MFP1_PC6_Msk        NULL                /*!< No ALT_MFP1 PC.6 mask */
1144:./bsp/inc/SYS.h **** #define SYS_ALT_MFP2_PC6_Msk        NULL                /*!< No ALT_MFP2 PC.6 mask */
1145:./bsp/inc/SYS.h **** #define SYS_ALT_MFP3_PC6_Msk        (1UL<<28)           /*!< ALT_MFP3 PC.6 mask */
1146:./bsp/inc/SYS.h **** #define SYS_ALT_MFP4_PC6_Msk        (1UL<<10)           /*!< ALT_MFP4 PC.6 mask */
1147:./bsp/inc/SYS.h **** 
1148:./bsp/inc/SYS.h **** //PC.7
1149:./bsp/inc/SYS.h **** #define SYS_GPC_MFP_PC7_GPIO        0x00000000UL        /*!< GPC_MFP PC.7 setting for GPIO */
1150:./bsp/inc/SYS.h **** #define SYS_ALT_MFP_PC7_GPIO        NULL                /*!< No ALT_MFP setting for PC.7 */
1151:./bsp/inc/SYS.h **** #define SYS_ALT_MFP1_PC7_GPIO       NULL                /*!< No ALT_MFP1 setting for PC.7 */
1152:./bsp/inc/SYS.h **** #define SYS_ALT_MFP2_PC7_GPIO       NULL                /*!< No ALT_MFP2 setting for PC.7 */
1153:./bsp/inc/SYS.h **** #define SYS_ALT_MFP3_PC7_GPIO       0x00000000UL        /*!< ALT_MFP3 PC.7 setting for GPIO */
1154:./bsp/inc/SYS.h **** #define SYS_ALT_MFP4_PC7_GPIO       0x00000000UL        /*!< ALT_MFP4 PC.7 setting for GPIO */
1155:./bsp/inc/SYS.h **** 
1156:./bsp/inc/SYS.h **** #define SYS_GPC_MFP_PC7_UART4_RXD   (1UL<<7)            /*!< GPC_MFP PC.7 setting for UART4_RXD */
1157:./bsp/inc/SYS.h **** #define SYS_ALT_MFP_PC7_UART4_RXD   NULL                /*!< No ALT_MFP setting for PC.7 */
1158:./bsp/inc/SYS.h **** #define SYS_ALT_MFP1_PC7_UART4_RXD  NULL                /*!< No ALT_MFP1 setting for PC.7 */
1159:./bsp/inc/SYS.h **** #define SYS_ALT_MFP2_PC7_UART4_RXD  NULL                /*!< No ALT_MFP2 setting for PC.7 */
1160:./bsp/inc/SYS.h **** #define SYS_ALT_MFP3_PC7_UART4_RXD  0x00000000UL        /*!< ALT_MFP3 PC.7 setting for UART4_RXD */
1161:./bsp/inc/SYS.h **** #define SYS_ALT_MFP4_PC7_UART4_RXD  0x00000000UL        /*!< ALT_MFP4 PC.7 setting for UART4_RXD */
1162:./bsp/inc/SYS.h **** 
1163:./bsp/inc/SYS.h **** #define SYS_GPC_MFP_PC7_I2C0_SCL    (1UL<<7)            /*!< GPC_MFP PC.7 setting for I2C0_SCL */
1164:./bsp/inc/SYS.h **** #define SYS_ALT_MFP_PC7_I2C0_SCL    NULL                /*!< No ALT_MFP setting for PC.7 */
1165:./bsp/inc/SYS.h **** #define SYS_ALT_MFP1_PC7_I2C0_SCL   NULL                /*!< No ALT_MFP1 setting for PC.7 */
1166:./bsp/inc/SYS.h **** #define SYS_ALT_MFP2_PC7_I2C0_SCL   NULL                /*!< No ALT_MFP2 setting for PC.7 */
1167:./bsp/inc/SYS.h **** #define SYS_ALT_MFP3_PC7_I2C0_SCL   0x00000000UL        /*!< ALT_MFP3 PC.7 setting for I2C0_SCL */
1168:./bsp/inc/SYS.h **** #define SYS_ALT_MFP4_PC7_I2C0_SCL   (1UL<<11)           /*!< ALT_MFP4 PC.7 setting for I2C0_SCL */
1169:./bsp/inc/SYS.h **** 
1170:./bsp/inc/SYS.h **** #define SYS_GPC_MFP_PC7_PWM0_BRAKE1     (1UL<<7)        /*!< GPC_MFP PC.7 setting for PWM0_BRAKE1 *
1171:./bsp/inc/SYS.h **** #define SYS_ALT_MFP_PC7_PWM0_BRAKE1     NULL            /*!< No ALT_MFP setting for PC.7 */
1172:./bsp/inc/SYS.h **** #define SYS_ALT_MFP1_PC7_PWM0_BRAKE1    NULL            /*!< No ALT_MFP1 setting for PC.7 */
1173:./bsp/inc/SYS.h **** #define SYS_ALT_MFP2_PC7_PWM0_BRAKE1    NULL            /*!< No ALT_MFP2 setting for PC.7 */
1174:./bsp/inc/SYS.h **** #define SYS_ALT_MFP3_PC7_PWM0_BRAKE1    (1UL<<29)       /*!< ALT_MFP3 PC.7 setting for PWM0_BRAKE1 
1175:./bsp/inc/SYS.h **** #define SYS_ALT_MFP4_PC7_PWM0_BRAKE1    0x00000000UL    /*!< ALT_MFP4 PC.7 setting for PWM0_BRAKE1 
1176:./bsp/inc/SYS.h **** 
1177:./bsp/inc/SYS.h **** #define SYS_GPC_MFP_PC7_Msk         (1UL<<7)            /*!< GPC_MFP PC.7 mask */
1178:./bsp/inc/SYS.h **** #define SYS_ALT_MFP_PC7_Msk         NULL                /*!< No ALT_MFP PC.7 mask */
1179:./bsp/inc/SYS.h **** #define SYS_ALT_MFP1_PC7_Msk        NULL                /*!< No ALT_MFP1 PC.7 mask */
1180:./bsp/inc/SYS.h **** #define SYS_ALT_MFP2_PC7_Msk        NULL                /*!< No ALT_MFP2 PC.7 mask */
1181:./bsp/inc/SYS.h **** #define SYS_ALT_MFP3_PC7_Msk        (1UL<<29)           /*!< ALT_MFP3 PC.7 mask */
1182:./bsp/inc/SYS.h **** #define SYS_ALT_MFP4_PC7_Msk        (1UL<<11)           /*!< ALT_MFP4 PC.7 mask */
1183:./bsp/inc/SYS.h **** 
1184:./bsp/inc/SYS.h **** //PC.8
1185:./bsp/inc/SYS.h **** #define SYS_GPC_MFP_PC8_GPIO        0x00000000UL        /*!< GPC_MFP PC.8 setting for GPIO */
1186:./bsp/inc/SYS.h **** #define SYS_ALT_MFP_PC8_GPIO        NULL                /*!< No ALT_MFP setting for PC.8 */
1187:./bsp/inc/SYS.h **** #define SYS_ALT_MFP1_PC8_GPIO       NULL                /*!< No ALT_MFP1 setting for PC.8 */
1188:./bsp/inc/SYS.h **** #define SYS_ALT_MFP2_PC8_GPIO       NULL                /*!< No ALT_MFP2 setting for PC.8 */
1189:./bsp/inc/SYS.h **** #define SYS_ALT_MFP3_PC8_GPIO       NULL                /*!< No ALT_MFP3 setting for PC.8 */
1190:./bsp/inc/SYS.h **** #define SYS_ALT_MFP4_PC8_GPIO       NULL                /*!< No ALT_MFP4 setting for PC.8 */
1191:./bsp/inc/SYS.h **** 
1192:./bsp/inc/SYS.h **** #define SYS_GPC_MFP_PC8_PWM0_BRAKE0     (1UL<<8)        /*!< GPC_MFP PC.8 setting for PWM0_BRAKE0 *
1193:./bsp/inc/SYS.h **** #define SYS_ALT_MFP_PC8_PWM0_BRAKE0     NULL            /*!< No ALT_MFP setting for PC.8 */
1194:./bsp/inc/SYS.h **** #define SYS_ALT_MFP1_PC8_PWM0_BRAKE0    NULL            /*!< No ALT_MFP1 setting for PC.8 */
1195:./bsp/inc/SYS.h **** #define SYS_ALT_MFP2_PC8_PWM0_BRAKE0    NULL            /*!< No ALT_MFP2 setting for PC.8 */
1196:./bsp/inc/SYS.h **** #define SYS_ALT_MFP3_PC8_PWM0_BRAKE0    NULL            /*!< No ALT_MFP3 setting for PC.8 */
1197:./bsp/inc/SYS.h **** #define SYS_ALT_MFP4_PC8_PWM0_BRAKE0    NULL            /*!< No ALT_MFP4 setting for PC.8 */
1198:./bsp/inc/SYS.h **** 
1199:./bsp/inc/SYS.h **** #define SYS_GPC_MFP_PC8_Msk         (1UL<<8)            /*!< GPC_MFP PC.8 mask */
1200:./bsp/inc/SYS.h **** #define SYS_ALT_MFP_PC8_Msk         NULL                /*!< No ALT_MFP PC.8 mask */
1201:./bsp/inc/SYS.h **** #define SYS_ALT_MFP1_PC8_Msk        NULL                /*!< No ALT_MFP1 PC.8 mask */
1202:./bsp/inc/SYS.h **** #define SYS_ALT_MFP2_PC8_Msk        NULL                /*!< No ALT_MFP2 PC.8 mask */
1203:./bsp/inc/SYS.h **** #define SYS_ALT_MFP3_PC8_Msk        NULL                /*!< No ALT_MFP3 PC.8 mask */
1204:./bsp/inc/SYS.h **** #define SYS_ALT_MFP4_PC8_Msk        NULL                /*!< No ALT_MFP4 PC.8 mask */
1205:./bsp/inc/SYS.h **** 
1206:./bsp/inc/SYS.h **** //PC.9
1207:./bsp/inc/SYS.h **** #define SYS_GPC_MFP_PC9_GPIO        0x00000000UL        /*!< GPC_MFP PC.9 setting for GPIO */
1208:./bsp/inc/SYS.h **** #define SYS_ALT_MFP_PC9_GPIO        NULL                /*!< No ALT_MFP setting for PC.9 */
1209:./bsp/inc/SYS.h **** #define SYS_ALT_MFP1_PC9_GPIO       NULL                /*!< No ALT_MFP1 setting for PC.9 */
1210:./bsp/inc/SYS.h **** #define SYS_ALT_MFP2_PC9_GPIO       NULL                /*!< No ALT_MFP2 setting for PC.9 */
1211:./bsp/inc/SYS.h **** #define SYS_ALT_MFP3_PC9_GPIO       NULL                /*!< No ALT_MFP3 setting for PC.9 */
1212:./bsp/inc/SYS.h **** #define SYS_ALT_MFP4_PC9_GPIO       NULL                /*!< No ALT_MFP4 setting for PC.9 */
1213:./bsp/inc/SYS.h **** 
1214:./bsp/inc/SYS.h **** #define SYS_GPC_MFP_PC9_PWM0_BRAKE1     (1UL<<9)        /*!< GPC_MFP PC.9 setting for PWM0_BRAKE1 *
1215:./bsp/inc/SYS.h **** #define SYS_ALT_MFP_PC9_PWM0_BRAKE1     NULL            /*!< No ALT_MFP setting for PC.9 */
1216:./bsp/inc/SYS.h **** #define SYS_ALT_MFP1_PC9_PWM0_BRAKE1    NULL            /*!< No ALT_MFP1 setting for PC.9 */
1217:./bsp/inc/SYS.h **** #define SYS_ALT_MFP2_PC9_PWM0_BRAKE1    NULL            /*!< No ALT_MFP2 setting for PC.9 */
1218:./bsp/inc/SYS.h **** #define SYS_ALT_MFP3_PC9_PWM0_BRAKE1    NULL            /*!< No ALT_MFP3 setting for PC.9 */
1219:./bsp/inc/SYS.h **** #define SYS_ALT_MFP4_PC9_PWM0_BRAKE1    NULL            /*!< No ALT_MFP4 setting for PC.9 */
1220:./bsp/inc/SYS.h **** 
1221:./bsp/inc/SYS.h **** #define SYS_GPC_MFP_PC9_Msk         (1UL<<9)            /*!< GPC_MFP PC.9 mask */
1222:./bsp/inc/SYS.h **** #define SYS_ALT_MFP_PC9_Msk         NULL                /*!< No ALT_MFP PC.9 mask */
1223:./bsp/inc/SYS.h **** #define SYS_ALT_MFP1_PC9_Msk        NULL                /*!< No ALT_MFP1 PC.9 mask */
1224:./bsp/inc/SYS.h **** #define SYS_ALT_MFP2_PC9_Msk        NULL                /*!< No ALT_MFP2 PC.9 mask */
1225:./bsp/inc/SYS.h **** #define SYS_ALT_MFP3_PC9_Msk        NULL                /*!< No ALT_MFP3 PC.9 mask */
1226:./bsp/inc/SYS.h **** #define SYS_ALT_MFP4_PC9_Msk        NULL                /*!< No ALT_MFP4 PC.9 mask */
1227:./bsp/inc/SYS.h **** 
1228:./bsp/inc/SYS.h **** //PC.10
1229:./bsp/inc/SYS.h **** #define SYS_GPC_MFP_PC10_GPIO       0x00000000UL        /*!< GPC_MFP PC.10 setting for GPIO */
1230:./bsp/inc/SYS.h **** #define SYS_ALT_MFP_PC10_GPIO       NULL                /*!< No ALT_MFP setting for PC.10 */
1231:./bsp/inc/SYS.h **** #define SYS_ALT_MFP1_PC10_GPIO      NULL                /*!< No ALT_MFP1 setting for PC.10 */
1232:./bsp/inc/SYS.h **** #define SYS_ALT_MFP2_PC10_GPIO      NULL                /*!< No ALT_MFP2 setting for PC.10 */
1233:./bsp/inc/SYS.h **** #define SYS_ALT_MFP3_PC10_GPIO      NULL                /*!< No ALT_MFP3 setting for PC.10 */
1234:./bsp/inc/SYS.h **** #define SYS_ALT_MFP4_PC10_GPIO      NULL                /*!< No ALT_MFP4 setting for PC.10 */
1235:./bsp/inc/SYS.h **** 
1236:./bsp/inc/SYS.h **** #define SYS_GPC_MFP_PC10_PWM1_BRAKE0    (1UL<<10)       /*!< GPC_MFP PC.10 setting for PWM1_BRAKE0 
1237:./bsp/inc/SYS.h **** #define SYS_ALT_MFP_PC10_PWM1_BRAKE0    NULL            /*!< No ALT_MFP setting for PC.10 */
1238:./bsp/inc/SYS.h **** #define SYS_ALT_MFP1_PC10_PWM1_BRAKE0   NULL            /*!< No ALT_MFP1 setting for PC.10 */
1239:./bsp/inc/SYS.h **** #define SYS_ALT_MFP2_PC10_PWM1_BRAKE0   NULL            /*!< No ALT_MFP2 setting for PC.10 */
1240:./bsp/inc/SYS.h **** #define SYS_ALT_MFP3_PC10_PWM1_BRAKE0   NULL            /*!< No ALT_MFP3 setting for PC.10 */
1241:./bsp/inc/SYS.h **** #define SYS_ALT_MFP4_PC10_PWM1_BRAKE0   NULL            /*!< No ALT_MFP4 setting for PC.10 */
1242:./bsp/inc/SYS.h **** 
1243:./bsp/inc/SYS.h **** #define SYS_GPC_MFP_PC10_Msk        (1UL<<10)           /*!< GPC_MFP PC.10 mask */
1244:./bsp/inc/SYS.h **** #define SYS_ALT_MFP_PC10_Msk        NULL                /*!< No ALT_MFP PC.10 mask */
1245:./bsp/inc/SYS.h **** #define SYS_ALT_MFP1_PC10_Msk       NULL                /*!< No ALT_MFP1 PC.10 mask */
1246:./bsp/inc/SYS.h **** #define SYS_ALT_MFP2_PC10_Msk       NULL                /*!< No ALT_MFP2 PC.10 mask */
1247:./bsp/inc/SYS.h **** #define SYS_ALT_MFP3_PC10_Msk       NULL                /*!< No ALT_MFP3 PC.10 mask */
1248:./bsp/inc/SYS.h **** #define SYS_ALT_MFP4_PC10_Msk       NULL                /*!< No ALT_MFP4 PC.10 mask */
1249:./bsp/inc/SYS.h **** 
1250:./bsp/inc/SYS.h **** //PC.11
1251:./bsp/inc/SYS.h **** #define SYS_GPC_MFP_PC11_GPIO       0x00000000UL        /*!< GPC_MFP PC.11 setting for GPIO */
1252:./bsp/inc/SYS.h **** #define SYS_ALT_MFP_PC11_GPIO       NULL                /*!< No ALT_MFP setting for PC.11 */
1253:./bsp/inc/SYS.h **** #define SYS_ALT_MFP1_PC11_GPIO      NULL                /*!< No ALT_MFP1 setting for PC.11 */
1254:./bsp/inc/SYS.h **** #define SYS_ALT_MFP2_PC11_GPIO      NULL                /*!< No ALT_MFP2 setting for PC.11 */
1255:./bsp/inc/SYS.h **** #define SYS_ALT_MFP3_PC11_GPIO      NULL                /*!< No ALT_MFP3 setting for PC.11 */
1256:./bsp/inc/SYS.h **** #define SYS_ALT_MFP4_PC11_GPIO      NULL                /*!< No ALT_MFP4 setting for PC.11 */
1257:./bsp/inc/SYS.h **** 
1258:./bsp/inc/SYS.h **** #define SYS_GPC_MFP_PC11_PWM1_BRAKE1    (1UL<<11)       /*!< GPC_MFP PC.11 setting for PWM1_BRAKE1 
1259:./bsp/inc/SYS.h **** #define SYS_ALT_MFP_PC11_PWM1_BRAKE1    NULL            /*!< No ALT_MFP setting for PC.11 */
1260:./bsp/inc/SYS.h **** #define SYS_ALT_MFP1_PC11_PWM1_BRAKE1   NULL            /*!< No ALT_MFP1 setting for PC.11 */
1261:./bsp/inc/SYS.h **** #define SYS_ALT_MFP2_PC11_PWM1_BRAKE1   NULL            /*!< No ALT_MFP2 setting for PC.11 */
1262:./bsp/inc/SYS.h **** #define SYS_ALT_MFP3_PC11_PWM1_BRAKE1   NULL            /*!< No ALT_MFP3 setting for PC.11 */
1263:./bsp/inc/SYS.h **** #define SYS_ALT_MFP4_PC11_PWM1_BRAKE1   NULL            /*!< No ALT_MFP4 setting for PC.11 */
1264:./bsp/inc/SYS.h **** 
1265:./bsp/inc/SYS.h **** #define SYS_GPC_MFP_PC11_Msk        (1UL<<11)           /*!< GPC_MFP PC.11 mask */
1266:./bsp/inc/SYS.h **** #define SYS_ALT_MFP_PC11_Msk        NULL                /*!< No ALT_MFP PC.11 mask */
1267:./bsp/inc/SYS.h **** #define SYS_ALT_MFP1_PC11_Msk       NULL                /*!< No ALT_MFP1 PC.11 mask */
1268:./bsp/inc/SYS.h **** #define SYS_ALT_MFP2_PC11_Msk       NULL                /*!< No ALT_MFP2 PC.11 mask */
1269:./bsp/inc/SYS.h **** #define SYS_ALT_MFP3_PC11_Msk       NULL                /*!< No ALT_MFP3 PC.11 mask */
1270:./bsp/inc/SYS.h **** #define SYS_ALT_MFP4_PC11_Msk       NULL                /*!< No ALT_MFP4 PC.11 mask */
1271:./bsp/inc/SYS.h **** 
1272:./bsp/inc/SYS.h **** //PD.6
1273:./bsp/inc/SYS.h **** #define SYS_GPD_MFP_PD6_GPIO        0x00000000UL        /*!< GPD_MFP PD.6 setting for GPIO */
1274:./bsp/inc/SYS.h **** #define SYS_ALT_MFP_PD6_GPIO        NULL                /*!< No ALT_MFP setting for PD.6 */
1275:./bsp/inc/SYS.h **** #define SYS_ALT_MFP1_PD6_GPIO       NULL                /*!< No ALT_MFP1 setting for PD.6 */
1276:./bsp/inc/SYS.h **** #define SYS_ALT_MFP2_PD6_GPIO       NULL                /*!< No ALT_MFP2 setting for PD.6 */
1277:./bsp/inc/SYS.h **** #define SYS_ALT_MFP3_PD6_GPIO       0x00000000UL        /*!< ALT_MFP3 PD.6 setting for GPIO */
1278:./bsp/inc/SYS.h **** #define SYS_ALT_MFP4_PD6_GPIO       NULL                /*!< No ALT_MFP4 setting for PD.6 */
1279:./bsp/inc/SYS.h **** 
1280:./bsp/inc/SYS.h **** #define SYS_GPD_MFP_PD6_CAN0_RXD    (1UL<<6)            /*!< GPD_MFP PD.6 setting for CAN0_RXD */
1281:./bsp/inc/SYS.h **** #define SYS_ALT_MFP_PD6_CAN0_RXD    NULL                /*!< No ALT_MFP setting for PD.6 */
1282:./bsp/inc/SYS.h **** #define SYS_ALT_MFP1_PD6_CAN0_RXD   NULL                /*!< No ALT_MFP1 setting for PD.6 */
1283:./bsp/inc/SYS.h **** #define SYS_ALT_MFP2_PD6_CAN0_RXD   NULL                /*!< No ALT_MFP2 setting for PD.6 */
1284:./bsp/inc/SYS.h **** #define SYS_ALT_MFP3_PD6_CAN0_RXD   0x00000000UL        /*!< ALT_MFP3 PD.6 setting for CAN0_RXD */
1285:./bsp/inc/SYS.h **** #define SYS_ALT_MFP4_PD6_CAN0_RXD   NULL                /*!< No ALT_MFP4 setting for PD.6 */
1286:./bsp/inc/SYS.h **** 
1287:./bsp/inc/SYS.h **** #define SYS_GPD_MFP_PD6_BPWM1_CH1   (1UL<<6)            /*!< GPD_MFP PD.6 setting for BPWM1_CH1 */
1288:./bsp/inc/SYS.h **** #define SYS_ALT_MFP_PD6_BPWM1_CH1   NULL                /*!< No ALT_MFP setting for PD.6 */
1289:./bsp/inc/SYS.h **** #define SYS_ALT_MFP1_PD6_BPWM1_CH1  NULL                /*!< No ALT_MFP1 setting for PD.6 */
1290:./bsp/inc/SYS.h **** #define SYS_ALT_MFP2_PD6_BPWM1_CH1  NULL                /*!< No ALT_MFP2 setting for PD.6 */
1291:./bsp/inc/SYS.h **** #define SYS_ALT_MFP3_PD6_BPWM1_CH1  (1UL<<19)           /*!< ALT_MFP3 PD.6 setting for BPWM1_CH1 */
1292:./bsp/inc/SYS.h **** #define SYS_ALT_MFP4_PD6_BPWM1_CH1  NULL                /*!< No ALT_MFP4 setting for PD.6 */
1293:./bsp/inc/SYS.h **** 
1294:./bsp/inc/SYS.h **** #define SYS_GPD_MFP_PD6_Msk         (1UL<<6)            /*!< GPD_MFP PD.6 mask */
1295:./bsp/inc/SYS.h **** #define SYS_ALT_MFP_PD6_Msk         NULL                /*!< No ALT_MFP PD.6 mask */
1296:./bsp/inc/SYS.h **** #define SYS_ALT_MFP1_PD6_Msk        NULL                /*!< No ALT_MFP1 PD.6 mask */
1297:./bsp/inc/SYS.h **** #define SYS_ALT_MFP2_PD6_Msk        NULL                /*!< No ALT_MFP2 PD.6 mask */
1298:./bsp/inc/SYS.h **** #define SYS_ALT_MFP3_PD6_Msk        (1UL<<19)           /*!< ALT_MFP3 PD.6 mask */
1299:./bsp/inc/SYS.h **** #define SYS_ALT_MFP4_PD6_Msk        NULL                /*!< No ALT_MFP4 PD.6 mask */
1300:./bsp/inc/SYS.h **** 
1301:./bsp/inc/SYS.h **** //PD.7
1302:./bsp/inc/SYS.h **** #define SYS_GPD_MFP_PD7_GPIO        0x00000000UL        /*!< GPD_MFP PD.7 setting for GPIO */
1303:./bsp/inc/SYS.h **** #define SYS_ALT_MFP_PD7_GPIO        NULL                /*!< No ALT_MFP setting for PD.7 */
1304:./bsp/inc/SYS.h **** #define SYS_ALT_MFP1_PD7_GPIO       NULL                /*!< No ALT_MFP1 setting for PD.7 */
1305:./bsp/inc/SYS.h **** #define SYS_ALT_MFP2_PD7_GPIO       NULL                /*!< No ALT_MFP2 setting for PD.7 */
1306:./bsp/inc/SYS.h **** #define SYS_ALT_MFP3_PD7_GPIO       0x00000000UL        /*!< ALT_MFP3 PD.7 setting for GPIO */
1307:./bsp/inc/SYS.h **** #define SYS_ALT_MFP4_PD7_GPIO       NULL                /*!< No ALT_MFP4 setting for PD.7 */
1308:./bsp/inc/SYS.h **** 
1309:./bsp/inc/SYS.h **** #define SYS_GPD_MFP_PD7_CAN0_TXD    (1UL<<7)            /*!< GPD_MFP PD.7 setting for CAN0_TXD */
1310:./bsp/inc/SYS.h **** #define SYS_ALT_MFP_PD7_CAN0_TXD    NULL                /*!< No ALT_MFP setting for PD.7 */
1311:./bsp/inc/SYS.h **** #define SYS_ALT_MFP1_PD7_CAN0_TXD   NULL                /*!< No ALT_MFP1 setting for PD.7 */
1312:./bsp/inc/SYS.h **** #define SYS_ALT_MFP2_PD7_CAN0_TXD   NULL                /*!< No ALT_MFP2 setting for PD.7 */
1313:./bsp/inc/SYS.h **** #define SYS_ALT_MFP3_PD7_CAN0_TXD   0x00000000UL        /*!< ALT_MFP3 PD.7 setting for CAN0_TXD */
1314:./bsp/inc/SYS.h **** #define SYS_ALT_MFP4_PD7_CAN0_TXD   NULL                /*!< No ALT_MFP4 setting for PD.7 */
1315:./bsp/inc/SYS.h **** 
1316:./bsp/inc/SYS.h **** #define SYS_GPD_MFP_PD7_BPWM1_CH0   (1UL<<7)            /*!< GPD_MFP PD.7 setting for BPWM1_CH0 */
1317:./bsp/inc/SYS.h **** #define SYS_ALT_MFP_PD7_BPWM1_CH0   NULL                /*!< No ALT_MFP setting for PD.7 */
1318:./bsp/inc/SYS.h **** #define SYS_ALT_MFP1_PD7_BPWM1_CH0  NULL                /*!< No ALT_MFP1 setting for PD.7 */
1319:./bsp/inc/SYS.h **** #define SYS_ALT_MFP2_PD7_BPWM1_CH0  NULL                /*!< No ALT_MFP2 setting for PD.7 */
1320:./bsp/inc/SYS.h **** #define SYS_ALT_MFP3_PD7_BPWM1_CH0  (1UL<<18)           /*!< ALT_MFP3 PD.7 setting for BPWM1_CH0 */
1321:./bsp/inc/SYS.h **** #define SYS_ALT_MFP4_PD7_BPWM1_CH0  NULL                /*!< No ALT_MFP4 setting for PD.7 */
1322:./bsp/inc/SYS.h **** 
1323:./bsp/inc/SYS.h **** #define SYS_GPD_MFP_PD7_Msk         (1UL<<7)            /*!< GPD_MFP PD.7 mask */
1324:./bsp/inc/SYS.h **** #define SYS_ALT_MFP_PD7_Msk         NULL                /*!< No ALT_MFP PD.7 mask */
1325:./bsp/inc/SYS.h **** #define SYS_ALT_MFP1_PD7_Msk        NULL                /*!< No ALT_MFP1 PD.7 mask */
1326:./bsp/inc/SYS.h **** #define SYS_ALT_MFP2_PD7_Msk        NULL                /*!< No ALT_MFP2 PD.7 mask */
1327:./bsp/inc/SYS.h **** #define SYS_ALT_MFP3_PD7_Msk        (1UL<<18)           /*!< ALT_MFP3 PD.7 mask */
1328:./bsp/inc/SYS.h **** #define SYS_ALT_MFP4_PD7_Msk        NULL                /*!< No ALT_MFP4 PD.7 mask */
1329:./bsp/inc/SYS.h **** 
1330:./bsp/inc/SYS.h **** //PD.14
1331:./bsp/inc/SYS.h **** #define SYS_GPD_MFP_PD14_GPIO       0x00000000UL        /*!< GPD_MFP PD.14 setting for GPIO */
1332:./bsp/inc/SYS.h **** #define SYS_ALT_MFP_PD14_GPIO       NULL                /*!< No ALT_MFP setting for PD.14 */
1333:./bsp/inc/SYS.h **** #define SYS_ALT_MFP1_PD14_GPIO      NULL                /*!< No ALT_MFP1 setting for PD.14 */
1334:./bsp/inc/SYS.h **** #define SYS_ALT_MFP2_PD14_GPIO      NULL                /*!< No ALT_MFP2 setting for PD.14 */
1335:./bsp/inc/SYS.h **** #define SYS_ALT_MFP3_PD14_GPIO      0x00000000UL        /*!< ALT_MFP3 PD.14 setting for GPIO */
1336:./bsp/inc/SYS.h **** #define SYS_ALT_MFP4_PD14_GPIO      NULL                /*!< No ALT_MFP4 setting for PD.14 */
1337:./bsp/inc/SYS.h **** 
1338:./bsp/inc/SYS.h **** #define SYS_GPD_MFP_PD14_UART2_RXD      (1UL<<14)       /*!< GPD_MFP PD.14 setting for UART2_RXD */
1339:./bsp/inc/SYS.h **** #define SYS_ALT_MFP_PD14_UART2_RXD      NULL            /*!< No ALT_MFP setting for PD.14 */
1340:./bsp/inc/SYS.h **** #define SYS_ALT_MFP1_PD14_UART2_RXD     NULL            /*!< No ALT_MFP1 setting for PD.14 */
1341:./bsp/inc/SYS.h **** #define SYS_ALT_MFP2_PD14_UART2_RXD     NULL            /*!< No ALT_MFP2 setting for PD.14 */
1342:./bsp/inc/SYS.h **** #define SYS_ALT_MFP3_PD14_UART2_RXD     0x00000000UL    /*!< ALT_MFP3 PD.14 setting for UART2_RXD *
1343:./bsp/inc/SYS.h **** #define SYS_ALT_MFP4_PD14_UART2_RXD     NULL            /*!< No ALT_MFP4 setting for PD.14 */
1344:./bsp/inc/SYS.h **** 
1345:./bsp/inc/SYS.h **** #define SYS_GPD_MFP_PD14_BPWM0_CH5      (1UL<<14)       /*!< GPD_MFP PD.14 setting for BPWM0_CH5 */
1346:./bsp/inc/SYS.h **** #define SYS_ALT_MFP_PD14_BPWM0_CH5      NULL            /*!< No ALT_MFP setting for PD.14 */
1347:./bsp/inc/SYS.h **** #define SYS_ALT_MFP1_PD14_BPWM0_CH5     NULL            /*!< No ALT_MFP1 setting for PD.14 */
1348:./bsp/inc/SYS.h **** #define SYS_ALT_MFP2_PD14_BPWM0_CH5     NULL            /*!< No ALT_MFP2 setting for PD.14 */
1349:./bsp/inc/SYS.h **** #define SYS_ALT_MFP3_PD14_BPWM0_CH5     (1UL<<17)       /*!< ALT_MFP3 PD.14 setting for BPWM0_CH5 *
1350:./bsp/inc/SYS.h **** #define SYS_ALT_MFP4_PD14_BPWM0_CH5     NULL            /*!< No ALT_MFP4 setting for PD.14 */
1351:./bsp/inc/SYS.h **** 
1352:./bsp/inc/SYS.h **** #define SYS_GPD_MFP_PD14_Msk        (1UL<<14)           /*!< GPD_MFP PD.14 mask */
1353:./bsp/inc/SYS.h **** #define SYS_ALT_MFP_PD14_Msk        NULL                /*!< No ALT_MFP PD.14 mask */
1354:./bsp/inc/SYS.h **** #define SYS_ALT_MFP1_PD14_Msk       NULL                /*!< No ALT_MFP1 PD.14 mask */
1355:./bsp/inc/SYS.h **** #define SYS_ALT_MFP2_PD14_Msk       NULL                /*!< No ALT_MFP2 PD.14 mask */
1356:./bsp/inc/SYS.h **** #define SYS_ALT_MFP3_PD14_Msk       (1UL<<17)           /*!< ALT_MFP3 PD.14 mask */
1357:./bsp/inc/SYS.h **** #define SYS_ALT_MFP4_PD14_Msk       NULL                /*!< No ALT_MFP4 PD.14 mask */
1358:./bsp/inc/SYS.h **** 
1359:./bsp/inc/SYS.h **** //PD.15
1360:./bsp/inc/SYS.h **** #define SYS_GPD_MFP_PD15_GPIO       0x00000000UL        /*!< GPD_MFP PD.15 setting for GPIO */
1361:./bsp/inc/SYS.h **** #define SYS_ALT_MFP_PD15_GPIO       NULL                /*!< No ALT_MFP setting for PD.15 */
1362:./bsp/inc/SYS.h **** #define SYS_ALT_MFP1_PD15_GPIO      NULL                /*!< No ALT_MFP1 setting for PD.15 */
1363:./bsp/inc/SYS.h **** #define SYS_ALT_MFP2_PD15_GPIO      NULL                /*!< No ALT_MFP2 setting for PD.15 */
1364:./bsp/inc/SYS.h **** #define SYS_ALT_MFP3_PD15_GPIO      0x00000000UL        /*!< ALT_MFP3 PD.15 setting for GPIO */
1365:./bsp/inc/SYS.h **** #define SYS_ALT_MFP4_PD15_GPIO      NULL                /*!< No ALT_MFP4 setting for PD.15 */
1366:./bsp/inc/SYS.h **** 
1367:./bsp/inc/SYS.h **** #define SYS_GPD_MFP_PD15_UART2_TXD      (1UL<<15)       /*!< GPD_MFP PD.15 setting for UART2_TXD */
1368:./bsp/inc/SYS.h **** #define SYS_ALT_MFP_PD15_UART2_TXD      NULL            /*!< No ALT_MFP setting for PD.15 */
1369:./bsp/inc/SYS.h **** #define SYS_ALT_MFP1_PD15_UART2_TXD     NULL            /*!< No ALT_MFP1 setting for PD.15 */
1370:./bsp/inc/SYS.h **** #define SYS_ALT_MFP2_PD15_UART2_TXD     NULL            /*!< No ALT_MFP2 setting for PD.15 */
1371:./bsp/inc/SYS.h **** #define SYS_ALT_MFP3_PD15_UART2_TXD     0x00000000UL    /*!< ALT_MFP3 PD.15 setting for UART2_TXD *
1372:./bsp/inc/SYS.h **** #define SYS_ALT_MFP4_PD15_UART2_TXD     NULL            /*!< No ALT_MFP4 setting for PD.15 */
1373:./bsp/inc/SYS.h **** 
1374:./bsp/inc/SYS.h **** #define SYS_GPD_MFP_PD15_BPWM0_CH4      (1UL<<15)       /*!< GPD_MFP PD.15 setting for BPWM0_CH4 */
1375:./bsp/inc/SYS.h **** #define SYS_ALT_MFP_PD15_BPWM0_CH4      NULL            /*!< No ALT_MFP setting for PD.15 */
1376:./bsp/inc/SYS.h **** #define SYS_ALT_MFP1_PD15_BPWM0_CH4     NULL            /*!< No ALT_MFP1 setting for PD.15 */
1377:./bsp/inc/SYS.h **** #define SYS_ALT_MFP2_PD15_BPWM0_CH4     NULL            /*!< No ALT_MFP2 setting for PD.15 */
1378:./bsp/inc/SYS.h **** #define SYS_ALT_MFP3_PD15_BPWM0_CH4     (1UL<<16)       /*!< ALT_MFP3 PD.15 setting for BPWM0_CH4 *
1379:./bsp/inc/SYS.h **** #define SYS_ALT_MFP4_PD15_BPWM0_CH4     NULL            /*!< No ALT_MFP4 setting for PD.15 */
1380:./bsp/inc/SYS.h **** 
1381:./bsp/inc/SYS.h **** #define SYS_GPD_MFP_PD15_Msk        (1UL<<15)           /*!< GPD_MFP PD.15 mask */
1382:./bsp/inc/SYS.h **** #define SYS_ALT_MFP_PD15_Msk        NULL                /*!< No ALT_MFP PD.15 mask */
1383:./bsp/inc/SYS.h **** #define SYS_ALT_MFP1_PD5_Msk        NULL                /*!< No ALT_MFP1 PD.15 mask */
1384:./bsp/inc/SYS.h **** #define SYS_ALT_MFP2_PD15_Msk       NULL                /*!< No ALT_MFP2 PD.15 mask */
1385:./bsp/inc/SYS.h **** #define SYS_ALT_MFP3_PD15_Msk       (1UL<<16)           /*!< ALT_MFP3 PD.15 mask */
1386:./bsp/inc/SYS.h **** #define SYS_ALT_MFP4_PD15_Msk       NULL                /*!< No ALT_MFP4 PD.15 mask */
1387:./bsp/inc/SYS.h **** 
1388:./bsp/inc/SYS.h **** //PE.5
1389:./bsp/inc/SYS.h **** #define SYS_GPE_MFP_PE5_GPIO        0x00000000UL        /*!< GPE_MFP PE.5 setting for GPIO */
1390:./bsp/inc/SYS.h **** #define SYS_ALT_MFP_PE5_GPIO        0x00000000UL        /*!< ALT_MFP PE.5 setting for GPIO */
1391:./bsp/inc/SYS.h **** #define SYS_ALT_MFP1_PE5_GPIO       NULL                /*!< No ALT_MFP1 setting for PE.5 */
1392:./bsp/inc/SYS.h **** #define SYS_ALT_MFP2_PE5_GPIO       0x00000000UL        /*!< ALT_MFP2 PE.5 setting for GPIO */
1393:./bsp/inc/SYS.h **** #define SYS_ALT_MFP3_PE5_GPIO       NULL                /*!< No ALT_MFP3 setting for PE.5 */
1394:./bsp/inc/SYS.h **** #define SYS_ALT_MFP4_PE5_GPIO       NULL                /*!< No ALT_MFP4 setting for PE.5 */
1395:./bsp/inc/SYS.h **** 
1396:./bsp/inc/SYS.h **** #define SYS_GPE_MFP_PE5_PWM0_CH5    (1UL<<5)            /*!< GPE_MFP PE.5 setting for PWM0_CH5 */
1397:./bsp/inc/SYS.h **** #define SYS_ALT_MFP_PE5_PWM0_CH5    0x00000000UL        /*!< ALT_MFP PE.5 setting for PWM0_CH5 */
1398:./bsp/inc/SYS.h **** #define SYS_ALT_MFP1_PE5_PWM0_CH5   NULL                /*!< No ALT_MFP1 setting for PE.5 */
1399:./bsp/inc/SYS.h **** #define SYS_ALT_MFP2_PE5_PWM0_CH5   0x00000000UL        /*!< ALT_MFP2 PE.5 setting for PWM0_CH5 */
1400:./bsp/inc/SYS.h **** #define SYS_ALT_MFP3_PE5_PWM0_CH5   NULL                /*!< No ALT_MFP3 setting for PE.5 */
1401:./bsp/inc/SYS.h **** #define SYS_ALT_MFP4_PE5_PWM0_CH5   NULL                /*!< No ALT_MFP4 setting for PE.5 */
1402:./bsp/inc/SYS.h **** 
1403:./bsp/inc/SYS.h **** #define SYS_GPE_MFP_PE5_TM1         (1UL<<5)            /*!< GPE_MFP PE.5 setting for TM1 */
1404:./bsp/inc/SYS.h **** #define SYS_ALT_MFP_PE5_TM1         0x00000000UL        /*!< ALT_MFP PE.5 setting for TM1 */
1405:./bsp/inc/SYS.h **** #define SYS_ALT_MFP1_PE5_TM1        NULL                /*!< No ALT_MFP1 setting for PE.5 */
1406:./bsp/inc/SYS.h **** #define SYS_ALT_MFP2_PE5_TM1        (1UL<<3)            /*!< ALT_MFP2 PE.5 setting for TM1 */
1407:./bsp/inc/SYS.h **** #define SYS_ALT_MFP3_PE5_TM1        NULL                /*!< No ALT_MFP3 setting for PE.5 */
1408:./bsp/inc/SYS.h **** #define SYS_ALT_MFP4_PE5_TM1        NULL                /*!< No ALT_MFP4 setting for PE.5 */
1409:./bsp/inc/SYS.h **** 
1410:./bsp/inc/SYS.h **** #define SYS_GPE_MFP_PE5_TM1_EXT     (1UL<<5)            /*!< GPE_MFP PE.5 setting for TM1_EXT */
1411:./bsp/inc/SYS.h **** #define SYS_ALT_MFP_PE5_TM1_EXT     (1UL<<25)           /*!< ALT_MFP PE.5 setting for TM1_EXT */
1412:./bsp/inc/SYS.h **** #define SYS_ALT_MFP1_PE5_TM1_EXT    NULL                /*!< No ALT_MFP1 setting for PE.5_EXT */
1413:./bsp/inc/SYS.h **** #define SYS_ALT_MFP2_PE5_TM1_EXT    0x00000000UL        /*!< ALT_MFP2 PE.5 setting for TM1_EXT */
1414:./bsp/inc/SYS.h **** #define SYS_ALT_MFP3_PE5_TM1_EXT    NULL                /*!< No ALT_MFP3 setting for PE.5 */
1415:./bsp/inc/SYS.h **** #define SYS_ALT_MFP4_PE5_TM1_EXT    NULL                /*!< No ALT_MFP4 setting for PE.5 */
1416:./bsp/inc/SYS.h **** 
1417:./bsp/inc/SYS.h **** #define SYS_GPE_MFP_PE5_Msk         (1UL<<5)            /*!< GPE_MFP PE.5 mask */
1418:./bsp/inc/SYS.h **** #define SYS_ALT_MFP_PE5_Msk         (1UL<<25)           /*!< ALT_MFP PE.5 mask */
1419:./bsp/inc/SYS.h **** #define SYS_ALT_MFP1_PE5_Msk        NULL                /*!< No ALT_MFP1 PE.5 mask */
1420:./bsp/inc/SYS.h **** #define SYS_ALT_MFP2_PE5_Msk        (1UL<<3)            /*!< ALT_MFP2 PE.5 mask */
1421:./bsp/inc/SYS.h **** #define SYS_ALT_MFP3_PE5_Msk        NULL                /*!< No ALT_MFP3 PE.5 mask */
1422:./bsp/inc/SYS.h **** #define SYS_ALT_MFP4_PE5_Msk        NULL                /*!< No ALT_MFP4 PE.5 mask */
1423:./bsp/inc/SYS.h **** 
1424:./bsp/inc/SYS.h **** //PF.0
1425:./bsp/inc/SYS.h **** #define SYS_GPF_MFP_PF0_GPIO        0x00000000UL        /*!< GPF_MFP PF.0 setting for GPIO */
1426:./bsp/inc/SYS.h **** #define SYS_ALT_MFP_PF0_GPIO        NULL                /*!< No ALT_MFP setting for PF.0 */
1427:./bsp/inc/SYS.h **** #define SYS_ALT_MFP1_PF0_GPIO       NULL                /*!< No ALT_MFP1 setting for PF.0 */
1428:./bsp/inc/SYS.h **** #define SYS_ALT_MFP2_PF0_GPIO       NULL                /*!< No ALT_MFP2 setting for PF.0 */
1429:./bsp/inc/SYS.h **** #define SYS_ALT_MFP3_PF0_GPIO       0x00000000UL        /*!< ALT_MFP3 PF.0 setting for GPIO */
1430:./bsp/inc/SYS.h **** #define SYS_ALT_MFP4_PF0_GPIO       NULL                /*!< No ALT_MFP4 setting for PF.0 */
1431:./bsp/inc/SYS.h **** 
1432:./bsp/inc/SYS.h **** #define SYS_GPF_MFP_PF0_XT1_OUT     (1UL<<0)            /*!< GPF_MFP PF.0 setting for XT1_OUT */
1433:./bsp/inc/SYS.h **** #define SYS_ALT_MFP_PF0_XT1_OUT     NULL                /*!< No ALT_MFP setting for PF.0 */
1434:./bsp/inc/SYS.h **** #define SYS_ALT_MFP1_PF0_XT1_OUT    NULL                /*!< No ALT_MFP1 setting for PF.0 */
1435:./bsp/inc/SYS.h **** #define SYS_ALT_MFP2_PF0_XT1_OUT    NULL                /*!< No ALT_MFP2 setting for PF.0 */
1436:./bsp/inc/SYS.h **** #define SYS_ALT_MFP3_PF0_XT1_OUT    0x00000000UL        /*!< ALT_MFP3 PF.0 setting for XT1_OUT */
1437:./bsp/inc/SYS.h **** #define SYS_ALT_MFP4_PF0_XT1_OUT    NULL                /*!< No ALT_MFP4 setting for PF.0 */
1438:./bsp/inc/SYS.h **** 
1439:./bsp/inc/SYS.h **** #define SYS_GPF_MFP_PF0_BPWM1_CH4   0x00000000UL        /*!< GPF_MFP PF.0 setting for BPWM1_CH4 */
1440:./bsp/inc/SYS.h **** #define SYS_ALT_MFP_PF0_BPWM1_CH4   NULL                /*!< No ALT_MFP setting for PF.0 */
1441:./bsp/inc/SYS.h **** #define SYS_ALT_MFP1_PF0_BPWM1_CH4  NULL                /*!< No ALT_MFP1 setting for PF.0 */
1442:./bsp/inc/SYS.h **** #define SYS_ALT_MFP2_PF0_BPWM1_CH4  NULL                /*!< No ALT_MFP2 setting for PF.0 */
1443:./bsp/inc/SYS.h **** #define SYS_ALT_MFP3_PF0_BPWM1_CH4  (1UL<<22)           /*!< ALT_MFP3 PF.0 setting for BPWM1_CH4 */
1444:./bsp/inc/SYS.h **** #define SYS_ALT_MFP4_PF0_BPWM1_CH4  NULL                /*!< No ALT_MFP4 setting for PF.0 */
1445:./bsp/inc/SYS.h **** 
1446:./bsp/inc/SYS.h **** #define SYS_GPF_MFP_PF0_Msk         (1UL<<0)            /*!< GPE_MFP PF.0 mask */
1447:./bsp/inc/SYS.h **** #define SYS_ALT_MFP_PF0_Msk         NULL                /*!< No ALT_MFP PF.0 mask */
1448:./bsp/inc/SYS.h **** #define SYS_ALT_MFP1_PF0_Msk        NULL                /*!< No ALT_MFP1 PF.0 mask */
1449:./bsp/inc/SYS.h **** #define SYS_ALT_MFP2_PF0_Msk        NULL                /*!< No ALT_MFP2 PF.0 mask */
1450:./bsp/inc/SYS.h **** #define SYS_ALT_MFP3_PF0_Msk        (1UL<<22)           /*!< ALT_MFP3 PF.0 mask */
1451:./bsp/inc/SYS.h **** #define SYS_ALT_MFP4_PF0_Msk        NULL                /*!< No ALT_MFP4 PF.0 mask */
1452:./bsp/inc/SYS.h **** 
1453:./bsp/inc/SYS.h **** //PF.1
1454:./bsp/inc/SYS.h **** #define SYS_GPF_MFP_PF1_GPIO        0x00000000UL        /*!< GPF_MFP PF.1 setting for GPIO */
1455:./bsp/inc/SYS.h **** #define SYS_ALT_MFP_PF1_GPIO        NULL                /*!< No ALT_MFP setting for PF.1 */
1456:./bsp/inc/SYS.h **** #define SYS_ALT_MFP1_PF1_GPIO       NULL                /*!< No ALT_MFP1 setting for PF.1 */
1457:./bsp/inc/SYS.h **** #define SYS_ALT_MFP2_PF1_GPIO       NULL                /*!< No ALT_MFP2 setting for PF.1 */
1458:./bsp/inc/SYS.h **** #define SYS_ALT_MFP3_PF1_GPIO       0x00000000UL        /*!< ALT_MFP3 PF.1 setting for GPIO */
1459:./bsp/inc/SYS.h **** #define SYS_ALT_MFP4_PF1_GPIO       NULL                /*!< No ALT_MFP4 setting for PF.1 */
1460:./bsp/inc/SYS.h **** 
1461:./bsp/inc/SYS.h **** #define SYS_GPF_MFP_PF1_XT1_IN      (1UL<<1)            /*!< GPF_MFP PF.1 setting for XT1_IN */
1462:./bsp/inc/SYS.h **** #define SYS_ALT_MFP_PF1_XT1_IN      NULL                /*!< No ALT_MFP setting for PF.1 */
1463:./bsp/inc/SYS.h **** #define SYS_ALT_MFP1_PF1_XT1_IN     NULL                /*!< No ALT_MFP1 setting for PF.1 */
1464:./bsp/inc/SYS.h **** #define SYS_ALT_MFP2_PF1_XT1_IN     NULL                /*!< No ALT_MFP2 setting for PF.1 */
1465:./bsp/inc/SYS.h **** #define SYS_ALT_MFP3_PF1_XT1_IN     0x00000000UL        /*!< ALT_MFP3 PF.1 setting for XT1_IN */
1466:./bsp/inc/SYS.h **** #define SYS_ALT_MFP4_PF1_XT1_IN     NULL                /*!< No ALT_MFP4 setting for PF.1 */
1467:./bsp/inc/SYS.h **** 
1468:./bsp/inc/SYS.h **** #define SYS_GPF_MFP_PF1_BPWM1_CH5   0x00000000UL        /*!< GPF_MFP PF.1 setting for BPWM1_CH5 */
1469:./bsp/inc/SYS.h **** #define SYS_ALT_MFP_PF1_BPWM1_CH5   NULL                /*!< No ALT_MFP setting for PF.1 */
1470:./bsp/inc/SYS.h **** #define SYS_ALT_MFP1_PF1_BPWM1_CH5  NULL                /*!< No ALT_MFP1 setting for PF.1 */
1471:./bsp/inc/SYS.h **** #define SYS_ALT_MFP2_PF1_BPWM1_CH5  NULL                /*!< No ALT_MFP2 setting for PF.1 */
1472:./bsp/inc/SYS.h **** #define SYS_ALT_MFP3_PF1_BPWM1_CH5  (1UL<<23)           /*!< ALT_MFP3 PF.1 setting for BPWM1_CH5 */
1473:./bsp/inc/SYS.h **** #define SYS_ALT_MFP4_PF1_BPWM1_CH5  NULL                /*!< No ALT_MFP4 setting for PF.1 */
1474:./bsp/inc/SYS.h **** 
1475:./bsp/inc/SYS.h **** #define SYS_GPF_MFP_PF1_Msk         (1UL<<1)            /*!< GPE_MFP PF.1 mask */
1476:./bsp/inc/SYS.h **** #define SYS_ALT_MFP_PF1_Msk         NULL                /*!< No ALT_MFP PF.1 mask */
1477:./bsp/inc/SYS.h **** #define SYS_ALT_MFP1_PF1_Msk        NULL                /*!< No ALT_MFP1 PF.1 mask */
1478:./bsp/inc/SYS.h **** #define SYS_ALT_MFP2_PF1_Msk        NULL                /*!< No ALT_MFP2 PF.1 mask */
1479:./bsp/inc/SYS.h **** #define SYS_ALT_MFP3_PF1_Msk        (1UL<<23)           /*!< ALT_MFP3 PF.1 mask */
1480:./bsp/inc/SYS.h **** #define SYS_ALT_MFP4_PF1_Msk        NULL                /*!< No ALT_MFP4 PF.1 mask */
1481:./bsp/inc/SYS.h **** 
1482:./bsp/inc/SYS.h **** //PF.4
1483:./bsp/inc/SYS.h **** #define SYS_GPF_MFP_PF4_GPIO        0x00000000UL        /*!< GPF_MFP PF.4 setting for GPIO */
1484:./bsp/inc/SYS.h **** #define SYS_ALT_MFP_PF4_GPIO        NULL                /*!< No ALT_MFP setting for PF.4 */
1485:./bsp/inc/SYS.h **** #define SYS_ALT_MFP1_PF4_GPIO       NULL                /*!< No ALT_MFP1 setting for PF.4 */
1486:./bsp/inc/SYS.h **** #define SYS_ALT_MFP2_PF4_GPIO       NULL                /*!< No ALT_MFP2 setting for PF.4 */
1487:./bsp/inc/SYS.h **** #define SYS_ALT_MFP3_PF4_GPIO       0x00000000UL        /*!< ALT_MFP3 PF.4 setting for GPIO */
1488:./bsp/inc/SYS.h **** #define SYS_ALT_MFP4_PF4_GPIO       NULL                /*!< No ALT_MFP4 setting for PF.4 */
1489:./bsp/inc/SYS.h **** 
1490:./bsp/inc/SYS.h **** #define SYS_GPF_MFP_PF4_I2C0_SDA    (1UL<<4)            /*!< GPF_MFP PF.4 setting for I2C0_SDA */
1491:./bsp/inc/SYS.h **** #define SYS_ALT_MFP_PF4_I2C0_SDA    NULL                /*!< No ALT_MFP setting for PF.4 */
1492:./bsp/inc/SYS.h **** #define SYS_ALT_MFP1_PF4_I2C0_SDA   NULL                /*!< No ALT_MFP1 setting for PF.4 */
1493:./bsp/inc/SYS.h **** #define SYS_ALT_MFP2_PF4_I2C0_SDA   NULL                /*!< No ALT_MFP2 setting for PF.4 */
1494:./bsp/inc/SYS.h **** #define SYS_ALT_MFP3_PF4_I2C0_SDA   0x00000000UL        /*!< ALT_MFP3 PF.4 setting for I2C0_SDA */
1495:./bsp/inc/SYS.h **** #define SYS_ALT_MFP4_PF4_I2C0_SDA   NULL                /*!< No ALT_MFP4 setting for PF.4 */
1496:./bsp/inc/SYS.h **** 
1497:./bsp/inc/SYS.h **** #define SYS_GPF_MFP_PF4_PWM1_CH4    (1UL<<4)            /*!< GPF_MFP PF.4 setting for PWM1_CH4 */
1498:./bsp/inc/SYS.h **** #define SYS_ALT_MFP_PF4_PWM1_CH4    NULL                /*!< No ALT_MFP setting for PF.4 */
1499:./bsp/inc/SYS.h **** #define SYS_ALT_MFP1_PF4_PWM1_CH4   NULL                /*!< No ALT_MFP1 setting for PF.4 */
1500:./bsp/inc/SYS.h **** #define SYS_ALT_MFP2_PF4_PWM1_CH4   NULL                /*!< No ALT_MFP2 setting for PF.4 */
1501:./bsp/inc/SYS.h **** #define SYS_ALT_MFP3_PF4_PWM1_CH4   (1UL<<10)           /*!< ALT_MFP3 PF.4 setting for PWM1_CH4 */
1502:./bsp/inc/SYS.h **** #define SYS_ALT_MFP4_PF4_PWM1_CH4   NULL                /*!< No ALT_MFP4 setting for PF.4 */
1503:./bsp/inc/SYS.h **** 
1504:./bsp/inc/SYS.h **** #define SYS_GPF_MFP_PF4_Msk         (1UL<<4)            /*!< GPF_MFP PF.4 mask */
1505:./bsp/inc/SYS.h **** #define SYS_ALT_MFP_PF4_Msk         NULL                /*!< No ALT_MFP PF.4 mask */
1506:./bsp/inc/SYS.h **** #define SYS_ALT_MFP1_PF4_Msk        NULL                /*!< No ALT_MFP1 PF.4 mask */
1507:./bsp/inc/SYS.h **** #define SYS_ALT_MFP2_PF4_Msk        NULL                /*!< No ALT_MFP2 PF.4 mask */
1508:./bsp/inc/SYS.h **** #define SYS_ALT_MFP3_PF4_Msk        (1UL<<10)           /*!< ALT_MFP3 PF.4 mask */
1509:./bsp/inc/SYS.h **** #define SYS_ALT_MFP4_PF4_Msk        NULL                /*!< No ALT_MFP4 PF.4 mask */
1510:./bsp/inc/SYS.h **** 
1511:./bsp/inc/SYS.h **** //PF.5
1512:./bsp/inc/SYS.h **** #define SYS_GPF_MFP_PF5_GPIO        0x00000000UL        /*!< GPF_MFP PF.5 setting for GPIO */
1513:./bsp/inc/SYS.h **** #define SYS_ALT_MFP_PF5_GPIO        NULL                /*!< No ALT_MFP setting for PF.5 */
1514:./bsp/inc/SYS.h **** #define SYS_ALT_MFP1_PF5_GPIO       NULL                /*!< No ALT_MFP1 setting for PF.5 */
1515:./bsp/inc/SYS.h **** #define SYS_ALT_MFP2_PF5_GPIO       NULL                /*!< No ALT_MFP2 setting for PF.5 */
1516:./bsp/inc/SYS.h **** #define SYS_ALT_MFP3_PF5_GPIO       0x00000000UL        /*!< ALT_MFP3 PF.5 setting for GPIO */
1517:./bsp/inc/SYS.h **** #define SYS_ALT_MFP4_PF5_GPIO       NULL                /*!< No ALT_MFP4 setting for PF.5 */
1518:./bsp/inc/SYS.h **** 
1519:./bsp/inc/SYS.h **** #define SYS_GPF_MFP_PF5_I2C0_SCL    (1UL<<5)            /*!< GPF_MFP PF.5 setting for I2C0_SCL */
1520:./bsp/inc/SYS.h **** #define SYS_ALT_MFP_PF5_I2C0_SCL    NULL                /*!< No ALT_MFP setting for PF.5 */
1521:./bsp/inc/SYS.h **** #define SYS_ALT_MFP1_PF5_I2C0_SCL   NULL                /*!< No ALT_MFP1 setting for PF.5 */
1522:./bsp/inc/SYS.h **** #define SYS_ALT_MFP2_PF5_I2C0_SCL   NULL                /*!< No ALT_MFP2 setting for PF.5 */
1523:./bsp/inc/SYS.h **** #define SYS_ALT_MFP3_PF5_I2C0_SCL   0x00000000UL        /*!< ALT_MFP3 PF.5 setting for I2C0_SCL */
1524:./bsp/inc/SYS.h **** #define SYS_ALT_MFP4_PF5_I2C0_SCL   NULL                /*!< No ALT_MFP4 setting for PF.5 */
1525:./bsp/inc/SYS.h **** 
1526:./bsp/inc/SYS.h **** #define SYS_GPF_MFP_PF5_PWM1_CH5    (1UL<<5)            /*!< GPF_MFP PF.5 setting for PWM1_CH5 */
1527:./bsp/inc/SYS.h **** #define SYS_ALT_MFP_PF5_PWM1_CH5    NULL                /*!< No ALT_MFP setting for PF.6 */
1528:./bsp/inc/SYS.h **** #define SYS_ALT_MFP1_PF5_PWM1_CH5   NULL                /*!< No ALT_MFP1 setting for PF.5 */
1529:./bsp/inc/SYS.h **** #define SYS_ALT_MFP2_PF5_PWM1_CH5   NULL                /*!< No ALT_MFP2 setting for PF.5 */
1530:./bsp/inc/SYS.h **** #define SYS_ALT_MFP3_PF5_PWM1_CH5   (1UL<<11)           /*!< ALT_MFP3 PF.5 setting for PWM1_CH5 */
1531:./bsp/inc/SYS.h **** #define SYS_ALT_MFP4_PF5_PWM1_CH5   NULL                /*!< No ALT_MFP4 setting for PF.5 */
1532:./bsp/inc/SYS.h **** 
1533:./bsp/inc/SYS.h **** #define SYS_GPF_MFP_PF5_Msk         (1UL<<5)            /*!< GPF_MFP PF.5 mask */
1534:./bsp/inc/SYS.h **** #define SYS_ALT_MFP_PF5_Msk         NULL                /*!< No ALT_MFP PF.5 mask */
1535:./bsp/inc/SYS.h **** #define SYS_ALT_MFP1_PF5_Msk        NULL                /*!< No ALT_MFP1 PF.5 mask */
1536:./bsp/inc/SYS.h **** #define SYS_ALT_MFP2_PF5_Msk        NULL                /*!< No ALT_MFP2 PF.5 mask */
1537:./bsp/inc/SYS.h **** #define SYS_ALT_MFP3_PF5_Msk        (1UL<<11)           /*!< ALT_MFP3 PF.5 mask */
1538:./bsp/inc/SYS.h **** #define SYS_ALT_MFP4_PF5_Msk        NULL                /*!< No ALT_MFP4 PF.5 mask */
1539:./bsp/inc/SYS.h **** 
1540:./bsp/inc/SYS.h **** //PF.6
1541:./bsp/inc/SYS.h **** #define SYS_GPF_MFP_PF6_GPIO        0x00000000UL        /*!< GPF_MFP PF.6 setting for GPIO */
1542:./bsp/inc/SYS.h **** #define SYS_ALT_MFP_PF6_GPIO        NULL                /*!< No ALT_MFP setting for PF.6 */
1543:./bsp/inc/SYS.h **** #define SYS_ALT_MFP1_PF6_GPIO       NULL                /*!< No ALT_MFP1 setting for PF.6 */
1544:./bsp/inc/SYS.h **** #define SYS_ALT_MFP2_PF6_GPIO       NULL                /*!< No ALT_MFP2 setting for PF.6 */
1545:./bsp/inc/SYS.h **** #define SYS_ALT_MFP3_PF6_GPIO       NULL                /*!< No ALT_MFP3 setting for PF.6 */
1546:./bsp/inc/SYS.h **** #define SYS_ALT_MFP4_PF6_GPIO       NULL                /*!< No ALT_MFP4 setting for PF.6 */
1547:./bsp/inc/SYS.h **** 
1548:./bsp/inc/SYS.h **** #define SYS_GPF_MFP_PF6_ICE_CLK     (1UL<<6)            /*!< GPF_MFP PF.6 setting for ICE_CLK */
1549:./bsp/inc/SYS.h **** #define SYS_ALT_MFP_PF6_ICE_CLK     NULL                /*!< No ALT_MFP setting for PF.6 */
1550:./bsp/inc/SYS.h **** #define SYS_ALT_MFP1_PF6_ICE_CLK    NULL                /*!< No ALT_MFP1 setting for PF.6 */
1551:./bsp/inc/SYS.h **** #define SYS_ALT_MFP2_PF6_ICE_CLK    NULL                /*!< No ALT_MFP2 setting for PF.6 */
1552:./bsp/inc/SYS.h **** #define SYS_ALT_MFP3_PF6_ICE_CLK    NULL                /*!< No ALT_MFP3 setting for PF.6 */
1553:./bsp/inc/SYS.h **** #define SYS_ALT_MFP4_PF6_ICE_CLK    NULL                /*!< No ALT_MFP4 setting for PF.6 */
1554:./bsp/inc/SYS.h **** 
1555:./bsp/inc/SYS.h **** #define SYS_GPF_MFP_PF6_Msk         (1UL<<6)            /*!< GPF_MFP PF.6 mask */
1556:./bsp/inc/SYS.h **** #define SYS_ALT_MFP_PF6_Msk         NULL                /*!< No ALT_MFP PF.6 mask */
1557:./bsp/inc/SYS.h **** #define SYS_ALT_MFP1_PF6_Msk        NULL                /*!< No ALT_MFP1 PF.6 mask */
1558:./bsp/inc/SYS.h **** #define SYS_ALT_MFP2_PF6_Msk        NULL                /*!< No ALT_MFP2 PF.6 mask */
1559:./bsp/inc/SYS.h **** #define SYS_ALT_MFP3_PF6_Msk        NuLL                /*!< No ALT_MFP3 PF.6 mask */
1560:./bsp/inc/SYS.h **** #define SYS_ALT_MFP4_PF6_Msk        NULL                /*!< No ALT_MFP4 PF.6 mask */
1561:./bsp/inc/SYS.h **** 
1562:./bsp/inc/SYS.h **** //PF.7
1563:./bsp/inc/SYS.h **** #define SYS_GPF_MFP_PF7_GPIO        0x00000000UL        /*!< GPF_MFP PF.7 setting for GPIO */
1564:./bsp/inc/SYS.h **** #define SYS_ALT_MFP_PF7_GPIO        NULL                /*!< No ALT_MFP setting for PF.7 */
1565:./bsp/inc/SYS.h **** #define SYS_ALT_MFP1_PF7_GPIO       NULL                /*!< No ALT_MFP1 setting for PF.7 */
1566:./bsp/inc/SYS.h **** #define SYS_ALT_MFP2_PF7_GPIO       NULL                /*!< No ALT_MFP2 setting for PF.7 */
1567:./bsp/inc/SYS.h **** #define SYS_ALT_MFP3_PF7_GPIO       NULL                /*!< No ALT_MFP3 setting for PF.7 */
1568:./bsp/inc/SYS.h **** #define SYS_ALT_MFP4_PF7_GPIO       NULL                /*!< No ALT_MFP4 setting for PF.7 */
1569:./bsp/inc/SYS.h **** 
1570:./bsp/inc/SYS.h **** #define SYS_GPF_MFP_PF7_ICE_DAT     (1UL<<7)            /*!< GPF_MFP PF.7 setting for ICE_DAT */
1571:./bsp/inc/SYS.h **** #define SYS_ALT_MFP_PF7_ICE_DAT     NULL                /*!< No ALT_MFP setting for PF.7 */
1572:./bsp/inc/SYS.h **** #define SYS_ALT_MFP1_PF7_ICE_DAT    NULL                /*!< No ALT_MFP1 setting for PF.7 */
1573:./bsp/inc/SYS.h **** #define SYS_ALT_MFP2_PF7_ICE_DAT    NULL                /*!< No ALT_MFP2 setting for PF.7 */
1574:./bsp/inc/SYS.h **** #define SYS_ALT_MFP3_PF7_ICE_DAT    NULL                /*!< No ALT_MFP3 setting for PF.7 */
1575:./bsp/inc/SYS.h **** #define SYS_ALT_MFP4_PF7_ICE_DAT    NULL                /*!< No ALT_MFP4 setting for PF.7 */
1576:./bsp/inc/SYS.h **** 
1577:./bsp/inc/SYS.h **** #define SYS_GPF_MFP_PF7_Msk         (1UL<<7)            /*!< GPF_MFP PF.7 mask */
1578:./bsp/inc/SYS.h **** #define SYS_ALT_MFP_PF7_Msk         NULL                /*!< No ALT_MFP PF.7 mask */
1579:./bsp/inc/SYS.h **** #define SYS_ALT_MFP1_PF7_Msk        NULL                /*!< No ALT_MFP1 PF.7 mask */
1580:./bsp/inc/SYS.h **** #define SYS_ALT_MFP2_PF7_Msk        NULL                /*!< No ALT_MFP2 PF.7 mask */
1581:./bsp/inc/SYS.h **** #define SYS_ALT_MFP3_PF7_Msk        NuLL                /*!< No ALT_MFP3 PF.7 mask */
1582:./bsp/inc/SYS.h **** #define SYS_ALT_MFP4_PF7_Msk        NULL                /*!< No ALT_MFP4 PF.7 mask */
1583:./bsp/inc/SYS.h **** 
1584:./bsp/inc/SYS.h **** //PF.8
1585:./bsp/inc/SYS.h **** #define SYS_GPF_MFP_PF8_GPIO        0x00000000UL        /*!< GPF_MFP PF.8 setting for GPIO */
1586:./bsp/inc/SYS.h **** #define SYS_ALT_MFP_PF8_GPIO        NULL                /*!< No ALT_MFP setting for PF.8 */
1587:./bsp/inc/SYS.h **** #define SYS_ALT_MFP1_PF8_GPIO       NULL                /*!< No ALT_MFP1 setting for PF.8 */
1588:./bsp/inc/SYS.h **** #define SYS_ALT_MFP2_PF8_GPIO       NULL                /*!< No ALT_MFP2 setting for PF.8 */
1589:./bsp/inc/SYS.h **** #define SYS_ALT_MFP3_PF8_GPIO       NULL                /*!< No ALT_MFP3 setting for PF.8 */
1590:./bsp/inc/SYS.h **** #define SYS_ALT_MFP4_PF8_GPIO       NULL                /*!< No ALT_MFP4 setting for PF.8 */
1591:./bsp/inc/SYS.h **** 
1592:./bsp/inc/SYS.h **** #define SYS_GPF_MFP_PF8_CLKO        0x00000000UL        /*!< GPF_MFP PF.8 setting for CLKO */
1593:./bsp/inc/SYS.h **** #define SYS_ALT_MFP_PF8_CLKO        NULL                /*!< No ALT_MFP setting for PF.8 */
1594:./bsp/inc/SYS.h **** #define SYS_ALT_MFP1_PF8_CLKO       NULL                /*!< No ALT_MFP1 setting for PF.8 */
1595:./bsp/inc/SYS.h **** #define SYS_ALT_MFP2_PF8_CLKO       NULL                /*!< No ALT_MFP2 setting for PF.8 */
1596:./bsp/inc/SYS.h **** #define SYS_ALT_MFP3_PF8_CLKO       NULL                /*!< No ALT_MFP3 setting for PF.8 */
1597:./bsp/inc/SYS.h **** #define SYS_ALT_MFP4_PF8_CLKO       NULL                /*!< No ALT_MFP4 setting for PF.8 */
1598:./bsp/inc/SYS.h **** 
1599:./bsp/inc/SYS.h **** #define SYS_GPF_MFP_PF8_Msk         (1UL<<8)            /*!< GPF_MFP PF.8 mask */
1600:./bsp/inc/SYS.h **** #define SYS_ALT_MFP_PF8_Msk         NULL                /*!< No ALT_MFP PF.8 mask */
1601:./bsp/inc/SYS.h **** #define SYS_ALT_MFP1_PF8_Msk        NULL                /*!< No ALT_MFP1 PF.8 mask */
1602:./bsp/inc/SYS.h **** #define SYS_ALT_MFP2_PF8_Msk        NULL                /*!< No ALT_MFP2 PF.8 mask */
1603:./bsp/inc/SYS.h **** #define SYS_ALT_MFP3_PF8_Msk        NuLL                /*!< No ALT_MFP3 PF.8 mask */
1604:./bsp/inc/SYS.h **** #define SYS_ALT_MFP4_PF8_Msk        NULL                /*!< No ALT_MFP4 PF.8 mask */
1605:./bsp/inc/SYS.h **** 
1606:./bsp/inc/SYS.h **** 
1607:./bsp/inc/SYS.h **** /*@}*/ /* end of group NUC131_SYS_EXPORTED_CONSTANTS */
1608:./bsp/inc/SYS.h **** 
1609:./bsp/inc/SYS.h **** /** @addtogroup NUC131_SYS_EXPORTED_FUNCTIONS SYS Exported Functions
1610:./bsp/inc/SYS.h ****   @{
1611:./bsp/inc/SYS.h **** */
1612:./bsp/inc/SYS.h **** 
1613:./bsp/inc/SYS.h **** 
1614:./bsp/inc/SYS.h **** /**
1615:./bsp/inc/SYS.h ****   * @brief      Clear Brown-out detector interrupt flag
1616:./bsp/inc/SYS.h ****   * @param      None
1617:./bsp/inc/SYS.h ****   * @return     None
1618:./bsp/inc/SYS.h ****   * @details    This macro clear Brown-out detector interrupt flag.
1619:./bsp/inc/SYS.h ****   */
1620:./bsp/inc/SYS.h **** #define SYS_CLEAR_BOD_INT_FLAG()        (SYS->BODCR |= SYS_BODCR_BOD_INTF_Msk)
1621:./bsp/inc/SYS.h **** 
1622:./bsp/inc/SYS.h **** /**
1623:./bsp/inc/SYS.h ****   * @brief      Set Brown-out detector function to normal mode
1624:./bsp/inc/SYS.h ****   * @param      None
1625:./bsp/inc/SYS.h ****   * @return     None
1626:./bsp/inc/SYS.h ****   * @details    This macro set Brown-out detector to normal mode.
1627:./bsp/inc/SYS.h ****   *             The register write-protection function should be disabled before using this macro.
1628:./bsp/inc/SYS.h ****   */
1629:./bsp/inc/SYS.h **** #define SYS_CLEAR_BOD_LPM()             (SYS->BODCR &= ~SYS_BODCR_BOD_LPM_Msk)
1630:./bsp/inc/SYS.h **** 
1631:./bsp/inc/SYS.h **** /**
1632:./bsp/inc/SYS.h ****   * @brief      Disable Brown-out detector function
1633:./bsp/inc/SYS.h ****   * @param      None
1634:./bsp/inc/SYS.h ****   * @return     None
1635:./bsp/inc/SYS.h ****   * @details    This macro disable Brown-out detector function.
1636:./bsp/inc/SYS.h ****   *             The register write-protection function should be disabled before using this macro.
1637:./bsp/inc/SYS.h ****   */
1638:./bsp/inc/SYS.h **** #define SYS_DISABLE_BOD()               (SYS->BODCR &= ~SYS_BODCR_BOD_EN_Msk)
1639:./bsp/inc/SYS.h **** 
1640:./bsp/inc/SYS.h **** /**
1641:./bsp/inc/SYS.h ****   * @brief      Enable Brown-out detector function
1642:./bsp/inc/SYS.h ****   * @param      None
1643:./bsp/inc/SYS.h ****   * @return     None
1644:./bsp/inc/SYS.h ****   * @details    This macro enable Brown-out detector function.
1645:./bsp/inc/SYS.h ****   *             The register write-protection function should be disabled before using this macro.
1646:./bsp/inc/SYS.h ****   */
1647:./bsp/inc/SYS.h **** #define SYS_ENABLE_BOD()                (SYS->BODCR |= SYS_BODCR_BOD_EN_Msk)
1648:./bsp/inc/SYS.h **** 
1649:./bsp/inc/SYS.h **** /**
1650:./bsp/inc/SYS.h ****   * @brief      Get Brown-out detector interrupt flag
1651:./bsp/inc/SYS.h ****   * @param      None
1652:./bsp/inc/SYS.h ****   * @retval     0   Brown-out detect interrupt flag is not set.
1653:./bsp/inc/SYS.h ****   * @retval     >=1 Brown-out detect interrupt flag is set.
1654:./bsp/inc/SYS.h ****   * @details    This macro get Brown-out detector interrupt flag.
1655:./bsp/inc/SYS.h ****   */
1656:./bsp/inc/SYS.h **** #define SYS_GET_BOD_INT_FLAG()          (SYS->BODCR & SYS_BODCR_BOD_INTF_Msk)
1657:./bsp/inc/SYS.h **** 
1658:./bsp/inc/SYS.h **** /**
1659:./bsp/inc/SYS.h ****   * @brief      Get Brown-out detector status
1660:./bsp/inc/SYS.h ****   * @param      None
1661:./bsp/inc/SYS.h ****   * @retval     0   System voltage is higher than BOD threshold voltage setting or BOD function is 
1662:./bsp/inc/SYS.h ****   * @retval     >=1 System voltage is lower than BOD threshold voltage setting.
1663:./bsp/inc/SYS.h ****   * @details    This macro get Brown-out detector output status.
1664:./bsp/inc/SYS.h ****   *             If the BOD function is disabled, this function always return 0.
1665:./bsp/inc/SYS.h ****   */
1666:./bsp/inc/SYS.h **** #define SYS_GET_BOD_OUTPUT()            (SYS->BODCR & SYS_BODCR_BOD_OUT_Msk)
1667:./bsp/inc/SYS.h **** 
1668:./bsp/inc/SYS.h **** /**
1669:./bsp/inc/SYS.h ****   * @brief      Enable Brown-out detector interrupt function
1670:./bsp/inc/SYS.h ****   * @param      None
1671:./bsp/inc/SYS.h ****   * @return     None
1672:./bsp/inc/SYS.h ****   * @details    This macro enable Brown-out detector interrupt function.
1673:./bsp/inc/SYS.h ****   *             The register write-protection function should be disabled before using this macro.
1674:./bsp/inc/SYS.h ****   */
1675:./bsp/inc/SYS.h **** #define SYS_DISABLE_BOD_RST()           (SYS->BODCR &= ~SYS_BODCR_BOD_RSTEN_Msk)
1676:./bsp/inc/SYS.h **** 
1677:./bsp/inc/SYS.h **** /**
1678:./bsp/inc/SYS.h ****   * @brief      Enable Brown-out detector reset function
1679:./bsp/inc/SYS.h ****   * @param      None
1680:./bsp/inc/SYS.h ****   * @return     None
1681:./bsp/inc/SYS.h ****   * @details    This macro enable Brown-out detect reset function.
1682:./bsp/inc/SYS.h ****   *             The register write-protection function should be disabled before using this macro.
1683:./bsp/inc/SYS.h ****   */
1684:./bsp/inc/SYS.h **** #define SYS_ENABLE_BOD_RST()            (SYS->BODCR |= SYS_BODCR_BOD_RSTEN_Msk)
1685:./bsp/inc/SYS.h **** 
1686:./bsp/inc/SYS.h **** /**
1687:./bsp/inc/SYS.h ****   * @brief      Set Brown-out detector function low power mode
1688:./bsp/inc/SYS.h ****   * @param      None
1689:./bsp/inc/SYS.h ****   * @return     None
1690:./bsp/inc/SYS.h ****   * @details    This macro set Brown-out detector to low power mode.
1691:./bsp/inc/SYS.h ****   *             The register write-protection function should be disabled before using this macro.
1692:./bsp/inc/SYS.h ****   */
1693:./bsp/inc/SYS.h **** #define SYS_SET_BOD_LPM()               (SYS->BODCR |= SYS_BODCR_BOD_LPM_Msk)
1694:./bsp/inc/SYS.h **** 
1695:./bsp/inc/SYS.h **** /**
1696:./bsp/inc/SYS.h ****   * @brief      Set Brown-out detector voltage level
1697:./bsp/inc/SYS.h ****   * @param[in]  u32Level is Brown-out voltage level. Including :
1698:./bsp/inc/SYS.h ****   *             - \ref SYS_BODCR_BOD_VL_4_4V
1699:./bsp/inc/SYS.h ****   *             - \ref SYS_BODCR_BOD_VL_3_7V
1700:./bsp/inc/SYS.h ****   *             - \ref SYS_BODCR_BOD_VL_2_7V
1701:./bsp/inc/SYS.h ****   *             - \ref SYS_BODCR_BOD_VL_2_2V
1702:./bsp/inc/SYS.h ****   * @return     None
1703:./bsp/inc/SYS.h ****   * @details    This macro set Brown-out detector voltage level.
1704:./bsp/inc/SYS.h ****   *             The write-protection function should be disabled before using this macro.
1705:./bsp/inc/SYS.h ****   */
1706:./bsp/inc/SYS.h **** #define SYS_SET_BOD_LEVEL(u32Level)     (SYS->BODCR = (SYS->BODCR & ~SYS_BODCR_BOD_VL_Msk) | (u32Le
1707:./bsp/inc/SYS.h **** 
1708:./bsp/inc/SYS.h **** /**
1709:./bsp/inc/SYS.h ****   * @brief      Get reset source is from Brown-out detector reset
1710:./bsp/inc/SYS.h ****   * @param      None
1711:./bsp/inc/SYS.h ****   * @retval     0   Previous reset source is not from Brown-out detector reset
1712:./bsp/inc/SYS.h ****   * @retval     >=1 Previous reset source is from Brown-out detector reset
1713:./bsp/inc/SYS.h ****   * @details    This macro get previous reset source is from Brown-out detect reset or not.
1714:./bsp/inc/SYS.h ****   */
1715:./bsp/inc/SYS.h **** #define SYS_IS_BOD_RST()                (SYS->RSTSRC & SYS_RSTSRC_RSTS_BOD_Msk)
1716:./bsp/inc/SYS.h **** 
1717:./bsp/inc/SYS.h **** /**
1718:./bsp/inc/SYS.h ****   * @brief      Get reset source is from CPU reset
1719:./bsp/inc/SYS.h ****   * @param      None
1720:./bsp/inc/SYS.h ****   * @retval     0   Previous reset source is not from CPU reset
1721:./bsp/inc/SYS.h ****   * @retval     >=1 Previous reset source is from CPU reset
1722:./bsp/inc/SYS.h ****   * @details    This macro get previous reset source is from CPU reset.
1723:./bsp/inc/SYS.h ****   */
1724:./bsp/inc/SYS.h **** #define SYS_IS_CPU_RST()                (SYS->RSTSRC & SYS_RSTSRC_RSTS_CPU_Msk)
1725:./bsp/inc/SYS.h **** 
1726:./bsp/inc/SYS.h **** /**
1727:./bsp/inc/SYS.h ****   * @brief      Get reset source is from Power-on Reset
1728:./bsp/inc/SYS.h ****   * @param      None
1729:./bsp/inc/SYS.h ****   * @retval     0   Previous reset source is not from Power-on Reset
1730:./bsp/inc/SYS.h ****   * @retval     >=1 Previous reset source is from Power-on Reset
1731:./bsp/inc/SYS.h ****   * @details    This macro get previous reset source is from Power-on Reset.
1732:./bsp/inc/SYS.h ****   */
1733:./bsp/inc/SYS.h **** #define SYS_IS_POR_RST()                (SYS->RSTSRC & SYS_RSTSRC_RSTS_POR_Msk)
1734:./bsp/inc/SYS.h **** 
1735:./bsp/inc/SYS.h **** /**
1736:./bsp/inc/SYS.h ****   * @brief      Get reset source is from reset pin reset
1737:./bsp/inc/SYS.h ****   * @param      None
1738:./bsp/inc/SYS.h ****   * @retval     0   Previous reset source is not from reset pin reset
1739:./bsp/inc/SYS.h ****   * @retval     >=1 Previous reset source is from reset pin reset
1740:./bsp/inc/SYS.h ****   * @details    This macro get previous reset source is from reset pin reset.
1741:./bsp/inc/SYS.h ****   */
1742:./bsp/inc/SYS.h **** #define SYS_IS_RSTPIN_RST()             (SYS->RSTSRC & SYS_RSTSRC_RSTS_RESET_Msk)
1743:./bsp/inc/SYS.h **** 
1744:./bsp/inc/SYS.h **** /**
1745:./bsp/inc/SYS.h ****   * @brief      Get reset source is from system reset
1746:./bsp/inc/SYS.h ****   * @param      None
1747:./bsp/inc/SYS.h ****   * @retval     0   Previous reset source is not from system reset
1748:./bsp/inc/SYS.h ****   * @retval     >=1 Previous reset source is from system reset
1749:./bsp/inc/SYS.h ****   * @details    This macro get previous reset source is from system reset.
1750:./bsp/inc/SYS.h ****   */
1751:./bsp/inc/SYS.h **** #define SYS_IS_SYSTEM_RST()             (SYS->RSTSRC & SYS_RSTSRC_RSTS_MCU_Msk)
1752:./bsp/inc/SYS.h **** 
1753:./bsp/inc/SYS.h **** /**
1754:./bsp/inc/SYS.h ****   * @brief      Get reset source is from window watch dog reset
1755:./bsp/inc/SYS.h ****   * @param      None
1756:./bsp/inc/SYS.h ****   * @retval     0   Previous reset source is not from window watch dog reset
1757:./bsp/inc/SYS.h ****   * @retval     >=1 Previous reset source is from window watch dog reset
1758:./bsp/inc/SYS.h ****   * @details    This macro get previous reset source is from window watch dog reset.
1759:./bsp/inc/SYS.h ****   */
1760:./bsp/inc/SYS.h **** #define SYS_IS_WDT_RST()                (SYS->RSTSRC & SYS_RSTSRC_RSTS_WDT_Msk)
1761:./bsp/inc/SYS.h **** 
1762:./bsp/inc/SYS.h **** /**
1763:./bsp/inc/SYS.h ****   * @brief      Disable Low-Voltage-Reset function
1764:./bsp/inc/SYS.h ****   * @param      None
1765:./bsp/inc/SYS.h ****   * @return     None
1766:./bsp/inc/SYS.h ****   * @details    This macro disable Low-Voltage-Reset function.
1767:./bsp/inc/SYS.h ****   *             The register write-protection function should be disabled before using this macro.
1768:./bsp/inc/SYS.h ****   */
1769:./bsp/inc/SYS.h **** #define SYS_DISABLE_LVR()               (SYS->BODCR &= ~SYS_BODCR_LVR_EN_Msk)
1770:./bsp/inc/SYS.h **** 
1771:./bsp/inc/SYS.h **** /**
1772:./bsp/inc/SYS.h ****   * @brief      Enable Low-Voltage-Reset function
1773:./bsp/inc/SYS.h ****   * @param      None
1774:./bsp/inc/SYS.h ****   * @return     None
1775:./bsp/inc/SYS.h ****   * @details    This macro enable Low-Voltage-Reset function.
1776:./bsp/inc/SYS.h ****   *             The register write-protection function should be disabled before using this macro.
1777:./bsp/inc/SYS.h ****   */
1778:./bsp/inc/SYS.h **** #define SYS_ENABLE_LVR()                (SYS->BODCR |= SYS_BODCR_LVR_EN_Msk)
1779:./bsp/inc/SYS.h **** 
1780:./bsp/inc/SYS.h **** /**
1781:./bsp/inc/SYS.h ****   * @brief      Disable Power-on Reset function
1782:./bsp/inc/SYS.h ****   * @param      None
1783:./bsp/inc/SYS.h ****   * @return     None
1784:./bsp/inc/SYS.h ****   * @details    This macro disable Power-on Reset function.
1785:./bsp/inc/SYS.h ****   *             The register write-protection function should be disabled before using this macro.
1786:./bsp/inc/SYS.h ****   */
1787:./bsp/inc/SYS.h **** #define SYS_DISABLE_POR()               (SYS->PORCR = 0x5AA5)
1788:./bsp/inc/SYS.h **** 
1789:./bsp/inc/SYS.h **** /**
1790:./bsp/inc/SYS.h ****   * @brief      Enable Power-on Reset function
1791:./bsp/inc/SYS.h ****   * @param      None
1792:./bsp/inc/SYS.h ****   * @return     None
1793:./bsp/inc/SYS.h ****   * @details    This macro enable Power-on Reset function.
1794:./bsp/inc/SYS.h ****   *             The register write-protection function should be disabled before using this macro.
1795:./bsp/inc/SYS.h ****   */
1796:./bsp/inc/SYS.h **** #define SYS_ENABLE_POR()                (SYS->PORCR = 0)
1797:./bsp/inc/SYS.h **** 
1798:./bsp/inc/SYS.h **** /**
1799:./bsp/inc/SYS.h ****   * @brief      Clear reset source flag
1800:./bsp/inc/SYS.h ****   * @param[in]  u32RstSrc is reset source. Including:
1801:./bsp/inc/SYS.h ****   *             - \ref SYS_RSTSRC_RSTS_CPU_Msk
1802:./bsp/inc/SYS.h ****   *             - \ref SYS_RSTSRC_RSTS_SYS_Msk
1803:./bsp/inc/SYS.h ****   *             - \ref SYS_RSTSRC_RSTS_BOD_Msk
1804:./bsp/inc/SYS.h ****   *             - \ref SYS_RSTSRC_RSTS_LVR_Msk
1805:./bsp/inc/SYS.h ****   *             - \ref SYS_RSTSRC_RSTS_WDT_Msk
1806:./bsp/inc/SYS.h ****   *             - \ref SYS_RSTSRC_RSTS_RESET_Msk
1807:./bsp/inc/SYS.h ****   *             - \ref SYS_RSTSRC_RSTS_POR_Msk
1808:./bsp/inc/SYS.h ****   * @return     None
1809:./bsp/inc/SYS.h ****   * @details    This macro clear reset source flag.
1810:./bsp/inc/SYS.h ****   */
1811:./bsp/inc/SYS.h **** #define SYS_CLEAR_RST_SOURCE(u32RstSrc) (SYS->RSTSRC | (u32RstSrc) )
1812:./bsp/inc/SYS.h **** 
1813:./bsp/inc/SYS.h **** 
1814:./bsp/inc/SYS.h **** /**
1815:./bsp/inc/SYS.h ****   * @brief      Enable register write-protection function
1816:./bsp/inc/SYS.h ****   * @param      None
1817:./bsp/inc/SYS.h ****   * @return     None
1818:./bsp/inc/SYS.h ****   * @details    This function enable register write-protection function.
1819:./bsp/inc/SYS.h ****   *             To lock the protected register to forbid write access.
1820:./bsp/inc/SYS.h ****   */
1821:./bsp/inc/SYS.h **** static __INLINE void SYS_LockReg(void)
1822:./bsp/inc/SYS.h **** {
1823:./bsp/inc/SYS.h ****     SYS->REGWRPROT = 0;
1824:./bsp/inc/SYS.h **** }
1825:./bsp/inc/SYS.h **** 
1826:./bsp/inc/SYS.h **** /**
1827:./bsp/inc/SYS.h ****   * @brief      Disable register write-protection function
1828:./bsp/inc/SYS.h ****   * @param      None
1829:./bsp/inc/SYS.h ****   * @return     None
1830:./bsp/inc/SYS.h ****   * @details    This function disable register write-protection function.
1831:./bsp/inc/SYS.h ****   *             To unlock the protected register to allow write access.
1832:./bsp/inc/SYS.h ****   *
1833:./bsp/inc/SYS.h ****   */
1834:./bsp/inc/SYS.h **** static __INLINE void SYS_UnlockReg(void)
1835:./bsp/inc/SYS.h **** {
1836:./bsp/inc/SYS.h ****     while(SYS->REGWRPROT != SYS_REGWRPROT_REGPROTDIS_Msk)
1837:./bsp/inc/SYS.h ****     {
1838:./bsp/inc/SYS.h ****         SYS->REGWRPROT = 0x59;
1839:./bsp/inc/SYS.h ****         SYS->REGWRPROT = 0x16;
 245              		.loc 2 1839 0
 246 0016 1620     		movs	r0, #22
 247              	.LVL15:
1838:./bsp/inc/SYS.h ****         SYS->REGWRPROT = 0x16;
 248              		.loc 2 1838 0
 249 0018 5923     		movs	r3, #89
1840:./bsp/inc/SYS.h ****         SYS->REGWRPROT = 0x88;
 250              		.loc 2 1840 0
 251 001a 8826     		movs	r6, #136
 252              	.L23:
1836:./bsp/inc/SYS.h ****     {
 253              		.loc 2 1836 0
 254 001c A025     		movs	r5, #160
 255 001e 1C4A     		ldr	r2, .L26+4
 256 0020 ED05     		lsls	r5, r5, #23
 257 0022 5468     		ldr	r4, [r2, #4]
 258 0024 012C     		cmp	r4, #1
 259 0026 03D0     		beq	.L25
1838:./bsp/inc/SYS.h ****         SYS->REGWRPROT = 0x16;
 260              		.loc 2 1838 0
 261 0028 5360     		str	r3, [r2, #4]
1839:./bsp/inc/SYS.h ****         SYS->REGWRPROT = 0x88;
 262              		.loc 2 1839 0
 263 002a 5060     		str	r0, [r2, #4]
 264              		.loc 2 1840 0
 265 002c 5660     		str	r6, [r2, #4]
 266 002e F5E7     		b	.L23
 267              	.L25:
 268              	.LBE24:
 269              	.LBE23:
  60:./drive/nuc_uart0.c ****     /* Unlock protected registers */
  61:./drive/nuc_uart0.c ****     SYS_UnlockReg();
  62:./drive/nuc_uart0.c **** 
  63:./drive/nuc_uart0.c ****     /* Enable UART module clock */
  64:./drive/nuc_uart0.c ****     CLK->APBCLK |= CLK_APBCLK_UART0_EN_Msk;
 270              		.loc 1 64 0
 271 0030 8026     		movs	r6, #128
 272 0032 184B     		ldr	r3, .L26+8
 273 0034 7602     		lsls	r6, r6, #9
 274 0036 9868     		ldr	r0, [r3, #8]
  65:./drive/nuc_uart0.c **** 
  66:./drive/nuc_uart0.c ****     /* Select UART module clock source */
  67:./drive/nuc_uart0.c ****     CLK->CLKSEL1 &= ~CLK_CLKSEL1_UART_S_Msk;
  68:./drive/nuc_uart0.c ****     CLK->CLKSEL1 |= CLK_CLKSEL1_UART_S_HXT;
  69:./drive/nuc_uart0.c **** 
  70:./drive/nuc_uart0.c ****     /* Lock protected registers */
  71:./drive/nuc_uart0.c ****     SYS_LockReg();
  72:./drive/nuc_uart0.c **** 
  73:./drive/nuc_uart0.c ****     /* Reset UART IP */
  74:./drive/nuc_uart0.c ****     SYS->IPRSTC2 |=  SYS_IPRSTC2_UART0_RST_Msk;
  75:./drive/nuc_uart0.c ****     SYS->IPRSTC2 &= ~SYS_IPRSTC2_UART0_RST_Msk;
  76:./drive/nuc_uart0.c **** 
  77:./drive/nuc_uart0.c ****     /* Configure UART0 and set UART0 Baudrate */
  78:./drive/nuc_uart0.c ****     UART0->BAUD = UART_BAUD_MODE2 | UART_BAUD_MODE2_DIVIDER(__HXT, baudrate);
  79:./drive/nuc_uart0.c ****     UART0->LCR = UART_WORD_LEN_8 | UART_PARITY_NONE | UART_STOP_BIT_1;
  80:./drive/nuc_uart0.c **** 
  81:./drive/nuc_uart0.c ****     /* Enable Interrupt and install the call back function */
  82:./drive/nuc_uart0.c ****     UART0->IER |= UART_IER_RDA_IEN_Msk /*| UART_IER_THRE_IEN_Msk*/ | UART_IER_TOUT_IEN_Msk ;
  83:./drive/nuc_uart0.c ****     NVIC_EnableIRQ(UART02_IRQn);
  84:./drive/nuc_uart0.c ****     TxEn = 1;
  85:./drive/nuc_uart0.c **** }
 275              		.loc 1 85 0
 276              		@ sp needed
  64:./drive/nuc_uart0.c **** 
 277              		.loc 1 64 0
 278 0038 3043     		orrs	r0, r6
 279 003a 9860     		str	r0, [r3, #8]
  67:./drive/nuc_uart0.c ****     CLK->CLKSEL1 |= CLK_CLKSEL1_UART_S_HXT;
 280              		.loc 1 67 0
 281 003c 5F69     		ldr	r7, [r3, #20]
 282 003e 1648     		ldr	r0, .L26+12
 283 0040 3840     		ands	r0, r7
 284 0042 5861     		str	r0, [r3, #20]
  68:./drive/nuc_uart0.c **** 
 285              		.loc 1 68 0
 286 0044 5869     		ldr	r0, [r3, #20]
 287 0046 5861     		str	r0, [r3, #20]
 288              	.LBB25:
 289              	.LBB26:
1823:./bsp/inc/SYS.h **** }
 290              		.loc 2 1823 0
 291 0048 0023     		movs	r3, #0
 292 004a 5360     		str	r3, [r2, #4]
 293              	.LBE26:
 294              	.LBE25:
  74:./drive/nuc_uart0.c ****     SYS->IPRSTC2 &= ~SYS_IPRSTC2_UART0_RST_Msk;
 295              		.loc 1 74 0
 296 004c EB68     		ldr	r3, [r5, #12]
  78:./drive/nuc_uart0.c ****     UART0->LCR = UART_WORD_LEN_8 | UART_PARITY_NONE | UART_STOP_BIT_1;
 297              		.loc 1 78 0
 298 004e 4808     		lsrs	r0, r1, #1
  74:./drive/nuc_uart0.c ****     SYS->IPRSTC2 &= ~SYS_IPRSTC2_UART0_RST_Msk;
 299              		.loc 1 74 0
 300 0050 3343     		orrs	r3, r6
 301 0052 EB60     		str	r3, [r5, #12]
  75:./drive/nuc_uart0.c **** 
 302              		.loc 1 75 0
 303 0054 EA68     		ldr	r2, [r5, #12]
 304 0056 114B     		ldr	r3, .L26+16
 305 0058 1340     		ands	r3, r2
 306 005a EB60     		str	r3, [r5, #12]
  78:./drive/nuc_uart0.c ****     UART0->LCR = UART_WORD_LEN_8 | UART_PARITY_NONE | UART_STOP_BIT_1;
 307              		.loc 1 78 0
 308 005c 104B     		ldr	r3, .L26+20
 309 005e C018     		adds	r0, r0, r3
 310 0060 FFF7FEFF 		bl	__aeabi_uidiv
 311              	.LVL16:
 312 0064 C023     		movs	r3, #192
  79:./drive/nuc_uart0.c **** 
 313              		.loc 1 79 0
 314 0066 0322     		movs	r2, #3
  82:./drive/nuc_uart0.c ****     NVIC_EnableIRQ(UART02_IRQn);
 315              		.loc 1 82 0
 316 0068 1121     		movs	r1, #17
  78:./drive/nuc_uart0.c ****     UART0->LCR = UART_WORD_LEN_8 | UART_PARITY_NONE | UART_STOP_BIT_1;
 317              		.loc 1 78 0
 318 006a 9B05     		lsls	r3, r3, #22
 319 006c 0238     		subs	r0, r0, #2
 320 006e 1843     		orrs	r0, r3
 321 0070 0C4B     		ldr	r3, .L26+24
 322 0072 5862     		str	r0, [r3, #36]
  79:./drive/nuc_uart0.c **** 
 323              		.loc 1 79 0
 324 0074 DA60     		str	r2, [r3, #12]
  82:./drive/nuc_uart0.c ****     NVIC_EnableIRQ(UART02_IRQn);
 325              		.loc 1 82 0
 326 0076 5A68     		ldr	r2, [r3, #4]
 327 0078 0A43     		orrs	r2, r1
 328 007a 5A60     		str	r2, [r3, #4]
 329              	.LVL17:
 330              	.LBB27:
 331              	.LBB28:
 332              		.file 3 "./bsp/core_cm0.h"
   1:./bsp/core_cm0.h **** /**************************************************************************//**
   2:./bsp/core_cm0.h ****  * @file     core_cm0.h
   3:./bsp/core_cm0.h ****  * @brief    CMSIS Cortex-M0 Core Peripheral Access Layer Header File
   4:./bsp/core_cm0.h ****  * @version  V1.30
   5:./bsp/core_cm0.h ****  * @date     30. October 2009
   6:./bsp/core_cm0.h ****  *
   7:./bsp/core_cm0.h ****  * @note
   8:./bsp/core_cm0.h ****  * Copyright (C) 2009 ARM Limited. All rights reserved.
   9:./bsp/core_cm0.h ****  *
  10:./bsp/core_cm0.h ****  * @par
  11:./bsp/core_cm0.h ****  * ARM Limited (ARM) is supplying this software for use with Cortex-M 
  12:./bsp/core_cm0.h ****  * processor based microcontrollers.  This file can be freely distributed 
  13:./bsp/core_cm0.h ****  * within development tools that are supporting such ARM based processors. 
  14:./bsp/core_cm0.h ****  *
  15:./bsp/core_cm0.h ****  * @par
  16:./bsp/core_cm0.h ****  * THIS SOFTWARE IS PROVIDED "AS IS".  NO WARRANTIES, WHETHER EXPRESS, IMPLIED
  17:./bsp/core_cm0.h ****  * OR STATUTORY, INCLUDING, BUT NOT LIMITED TO, IMPLIED WARRANTIES OF
  18:./bsp/core_cm0.h ****  * MERCHANTABILITY AND FITNESS FOR A PARTICULAR PURPOSE APPLY TO THIS SOFTWARE.
  19:./bsp/core_cm0.h ****  * ARM SHALL NOT, IN ANY CIRCUMSTANCES, BE LIABLE FOR SPECIAL, INCIDENTAL, OR
  20:./bsp/core_cm0.h ****  * CONSEQUENTIAL DAMAGES, FOR ANY REASON WHATSOEVER.
  21:./bsp/core_cm0.h ****  *
  22:./bsp/core_cm0.h ****  ******************************************************************************/
  23:./bsp/core_cm0.h **** 
  24:./bsp/core_cm0.h **** #ifndef __CM0_CORE_H__
  25:./bsp/core_cm0.h **** #define __CM0_CORE_H__
  26:./bsp/core_cm0.h **** 
  27:./bsp/core_cm0.h **** /** @addtogroup CMSIS_CM0_core_LintCinfiguration CMSIS CM0 Core Lint Configuration
  28:./bsp/core_cm0.h ****  *
  29:./bsp/core_cm0.h ****  * List of Lint messages which will be suppressed and not shown:
  30:./bsp/core_cm0.h ****  *   - not yet checked
  31:./bsp/core_cm0.h ****  * .
  32:./bsp/core_cm0.h ****  * Note:  To re-enable a Message, insert a space before 'lint' *
  33:./bsp/core_cm0.h ****  *
  34:./bsp/core_cm0.h ****  */
  35:./bsp/core_cm0.h **** 
  36:./bsp/core_cm0.h **** 
  37:./bsp/core_cm0.h **** /** @addtogroup CMSIS_CM0_core_definitions CM0 Core Definitions
  38:./bsp/core_cm0.h ****   This file defines all structures and symbols for CMSIS core:
  39:./bsp/core_cm0.h ****     - CMSIS version number
  40:./bsp/core_cm0.h ****     - Cortex-M core registers and bitfields
  41:./bsp/core_cm0.h ****     - Cortex-M core peripheral base address
  42:./bsp/core_cm0.h ****   @{
  43:./bsp/core_cm0.h ****  */
  44:./bsp/core_cm0.h **** 
  45:./bsp/core_cm0.h **** #ifdef __cplusplus
  46:./bsp/core_cm0.h ****  extern "C" {
  47:./bsp/core_cm0.h **** #endif 
  48:./bsp/core_cm0.h **** 
  49:./bsp/core_cm0.h **** #define __CM0_CMSIS_VERSION_MAIN  (0x01)                                                       /*!<
  50:./bsp/core_cm0.h **** #define __CM0_CMSIS_VERSION_SUB   (0x30)                                                       /*!<
  51:./bsp/core_cm0.h **** #define __CM0_CMSIS_VERSION       ((__CM0_CMSIS_VERSION_MAIN << 16) | __CM0_CMSIS_VERSION_SUB) /*!<
  52:./bsp/core_cm0.h **** 
  53:./bsp/core_cm0.h **** #define __CORTEX_M                (0x00)                                                       /*!<
  54:./bsp/core_cm0.h **** 
  55:./bsp/core_cm0.h **** #include <stdint.h>                           /* Include standard types */
  56:./bsp/core_cm0.h **** 
  57:./bsp/core_cm0.h **** #if defined (__ICCARM__)
  58:./bsp/core_cm0.h ****   #include <intrinsics.h>                     /* IAR Intrinsics   */
  59:./bsp/core_cm0.h **** #endif
  60:./bsp/core_cm0.h **** 
  61:./bsp/core_cm0.h **** 
  62:./bsp/core_cm0.h **** #ifndef __NVIC_PRIO_BITS
  63:./bsp/core_cm0.h ****   #define __NVIC_PRIO_BITS    2               /*!< standard definition for NVIC Priority Bits */
  64:./bsp/core_cm0.h **** #endif
  65:./bsp/core_cm0.h **** 
  66:./bsp/core_cm0.h **** 
  67:./bsp/core_cm0.h **** 
  68:./bsp/core_cm0.h **** 
  69:./bsp/core_cm0.h **** /**
  70:./bsp/core_cm0.h ****  * IO definitions
  71:./bsp/core_cm0.h ****  *
  72:./bsp/core_cm0.h ****  * define access restrictions to peripheral registers
  73:./bsp/core_cm0.h ****  */
  74:./bsp/core_cm0.h **** 
  75:./bsp/core_cm0.h **** #ifdef __cplusplus
  76:./bsp/core_cm0.h ****   #define     __I     volatile                /*!< defines 'read only' permissions      */
  77:./bsp/core_cm0.h **** #else
  78:./bsp/core_cm0.h ****   #define     __I     volatile const          /*!< defines 'read only' permissions      */
  79:./bsp/core_cm0.h **** #endif
  80:./bsp/core_cm0.h **** #define     __O     volatile                  /*!< defines 'write only' permissions     */
  81:./bsp/core_cm0.h **** #define     __IO    volatile                  /*!< defines 'read / write' permissions   */
  82:./bsp/core_cm0.h **** 
  83:./bsp/core_cm0.h **** /*******************************************************************************
  84:./bsp/core_cm0.h ****  *                 Register Abstraction
  85:./bsp/core_cm0.h ****  ******************************************************************************/
  86:./bsp/core_cm0.h **** /** @addtogroup CMSIS_CM0_core_register CMSIS CM0 Core Register
  87:./bsp/core_cm0.h ****  @{
  88:./bsp/core_cm0.h **** */
  89:./bsp/core_cm0.h **** 
  90:./bsp/core_cm0.h **** 
  91:./bsp/core_cm0.h **** /** @addtogroup CMSIS_CM0_NVIC CMSIS CM0 NVIC
  92:./bsp/core_cm0.h ****   memory mapped structure for Nested Vectored Interrupt Controller (NVIC)
  93:./bsp/core_cm0.h ****   @{
  94:./bsp/core_cm0.h ****  */
  95:./bsp/core_cm0.h **** typedef struct
  96:./bsp/core_cm0.h **** {
  97:./bsp/core_cm0.h ****   __IO uint32_t ISER[1];                      /*!< (Offset: 0x000) Interrupt Set Enable Register   
  98:./bsp/core_cm0.h ****        uint32_t RESERVED0[31];
  99:./bsp/core_cm0.h ****   __IO uint32_t ICER[1];                      /*!< (Offset: 0x080) Interrupt Clear Enable Register 
 100:./bsp/core_cm0.h ****        uint32_t RSERVED1[31];
 101:./bsp/core_cm0.h ****   __IO uint32_t ISPR[1];                      /*!< (Offset: 0x100) Interrupt Set Pending Register  
 102:./bsp/core_cm0.h ****        uint32_t RESERVED2[31];
 103:./bsp/core_cm0.h ****   __IO uint32_t ICPR[1];                      /*!< (Offset: 0x180) Interrupt Clear Pending Register
 104:./bsp/core_cm0.h ****        uint32_t RESERVED3[31];
 105:./bsp/core_cm0.h ****        uint32_t RESERVED4[64];
 106:./bsp/core_cm0.h ****   __IO uint32_t IPR[8];                       /*!< (Offset: 0x3EC) Interrupt Priority Register     
 107:./bsp/core_cm0.h **** }  NVIC_Type;
 108:./bsp/core_cm0.h **** /*@}*/ /* end of group CMSIS_CM0_NVIC */
 109:./bsp/core_cm0.h **** 
 110:./bsp/core_cm0.h **** 
 111:./bsp/core_cm0.h **** /** @addtogroup CMSIS_CM0_SCB CMSIS CM0 SCB
 112:./bsp/core_cm0.h ****   memory mapped structure for System Control Block (SCB)
 113:./bsp/core_cm0.h ****   @{
 114:./bsp/core_cm0.h ****  */
 115:./bsp/core_cm0.h **** typedef struct
 116:./bsp/core_cm0.h **** {
 117:./bsp/core_cm0.h ****   __I  uint32_t CPUID;                        /*!< Offset: 0x00  CPU ID Base Register              
 118:./bsp/core_cm0.h ****   __IO uint32_t ICSR;                         /*!< Offset: 0x04  Interrupt Control State Register  
 119:./bsp/core_cm0.h ****        uint32_t RESERVED0;                                      
 120:./bsp/core_cm0.h ****   __IO uint32_t AIRCR;                        /*!< Offset: 0x0C  Application Interrupt / Reset Cont
 121:./bsp/core_cm0.h ****   __IO uint32_t SCR;                          /*!< Offset: 0x10  System Control Register           
 122:./bsp/core_cm0.h ****   __IO uint32_t CCR;                          /*!< Offset: 0x14  Configuration Control Register    
 123:./bsp/core_cm0.h ****        uint32_t RESERVED1;                                      
 124:./bsp/core_cm0.h ****   __IO uint32_t SHP[2];                       /*!< Offset: 0x1C  System Handlers Priority Registers
 125:./bsp/core_cm0.h ****   __IO uint32_t SHCSR;                        /*!< Offset: 0x24  System Handler Control and State R
 126:./bsp/core_cm0.h ****        uint32_t RESERVED2[2];                                   
 127:./bsp/core_cm0.h ****   __IO uint32_t DFSR;                         /*!< Offset: 0x30  Debug Fault Status Register       
 128:./bsp/core_cm0.h **** } SCB_Type;                                                
 129:./bsp/core_cm0.h **** 
 130:./bsp/core_cm0.h **** /* SCB CPUID Register Definitions */
 131:./bsp/core_cm0.h **** #define SCB_CPUID_IMPLEMENTER_Pos          24                                             /*!< SCB 
 132:./bsp/core_cm0.h **** #define SCB_CPUID_IMPLEMENTER_Msk          (0xFFul << SCB_CPUID_IMPLEMENTER_Pos)          /*!< SCB 
 133:./bsp/core_cm0.h **** 
 134:./bsp/core_cm0.h **** #define SCB_CPUID_VARIANT_Pos              20                                             /*!< SCB 
 135:./bsp/core_cm0.h **** #define SCB_CPUID_VARIANT_Msk              (0xFul << SCB_CPUID_VARIANT_Pos)               /*!< SCB 
 136:./bsp/core_cm0.h **** 
 137:./bsp/core_cm0.h **** #define SCB_CPUID_ARCHITECTURE_Pos         16                                             /*!< SCB 
 138:./bsp/core_cm0.h **** #define SCB_CPUID_ARCHITECTURE_Msk         (0xFul << SCB_CPUID_ARCHITECTURE_Pos)          /*!< SCB 
 139:./bsp/core_cm0.h **** 
 140:./bsp/core_cm0.h **** #define SCB_CPUID_PARTNO_Pos                4                                             /*!< SCB 
 141:./bsp/core_cm0.h **** #define SCB_CPUID_PARTNO_Msk               (0xFFFul << SCB_CPUID_PARTNO_Pos)              /*!< SCB 
 142:./bsp/core_cm0.h **** 
 143:./bsp/core_cm0.h **** #define SCB_CPUID_REVISION_Pos              0                                             /*!< SCB 
 144:./bsp/core_cm0.h **** #define SCB_CPUID_REVISION_Msk             (0xFul << SCB_CPUID_REVISION_Pos)              /*!< SCB 
 145:./bsp/core_cm0.h **** 
 146:./bsp/core_cm0.h **** /* SCB Interrupt Control State Register Definitions */
 147:./bsp/core_cm0.h **** #define SCB_ICSR_NMIPENDSET_Pos            31                                             /*!< SCB 
 148:./bsp/core_cm0.h **** #define SCB_ICSR_NMIPENDSET_Msk            (1ul << SCB_ICSR_NMIPENDSET_Pos)               /*!< SCB 
 149:./bsp/core_cm0.h **** 
 150:./bsp/core_cm0.h **** #define SCB_ICSR_PENDSVSET_Pos             28                                             /*!< SCB 
 151:./bsp/core_cm0.h **** #define SCB_ICSR_PENDSVSET_Msk             (1ul << SCB_ICSR_PENDSVSET_Pos)                /*!< SCB 
 152:./bsp/core_cm0.h **** 
 153:./bsp/core_cm0.h **** #define SCB_ICSR_PENDSVCLR_Pos             27                                             /*!< SCB 
 154:./bsp/core_cm0.h **** #define SCB_ICSR_PENDSVCLR_Msk             (1ul << SCB_ICSR_PENDSVCLR_Pos)                /*!< SCB 
 155:./bsp/core_cm0.h **** 
 156:./bsp/core_cm0.h **** #define SCB_ICSR_PENDSTSET_Pos             26                                             /*!< SCB 
 157:./bsp/core_cm0.h **** #define SCB_ICSR_PENDSTSET_Msk             (1ul << SCB_ICSR_PENDSTSET_Pos)                /*!< SCB 
 158:./bsp/core_cm0.h **** 
 159:./bsp/core_cm0.h **** #define SCB_ICSR_PENDSTCLR_Pos             25                                             /*!< SCB 
 160:./bsp/core_cm0.h **** #define SCB_ICSR_PENDSTCLR_Msk             (1ul << SCB_ICSR_PENDSTCLR_Pos)                /*!< SCB 
 161:./bsp/core_cm0.h **** 
 162:./bsp/core_cm0.h **** #define SCB_ICSR_ISRPREEMPT_Pos            23                                             /*!< SCB 
 163:./bsp/core_cm0.h **** #define SCB_ICSR_ISRPREEMPT_Msk            (1ul << SCB_ICSR_ISRPREEMPT_Pos)               /*!< SCB 
 164:./bsp/core_cm0.h **** 
 165:./bsp/core_cm0.h **** #define SCB_ICSR_ISRPENDING_Pos            22                                             /*!< SCB 
 166:./bsp/core_cm0.h **** #define SCB_ICSR_ISRPENDING_Msk            (1ul << SCB_ICSR_ISRPENDING_Pos)               /*!< SCB 
 167:./bsp/core_cm0.h **** 
 168:./bsp/core_cm0.h **** #define SCB_ICSR_VECTPENDING_Pos           12                                             /*!< SCB 
 169:./bsp/core_cm0.h **** #define SCB_ICSR_VECTPENDING_Msk           (0x1FFul << SCB_ICSR_VECTPENDING_Pos)          /*!< SCB 
 170:./bsp/core_cm0.h **** 
 171:./bsp/core_cm0.h **** #define SCB_ICSR_VECTACTIVE_Pos             0                                             /*!< SCB 
 172:./bsp/core_cm0.h **** #define SCB_ICSR_VECTACTIVE_Msk            (0x1FFul << SCB_ICSR_VECTACTIVE_Pos)           /*!< SCB 
 173:./bsp/core_cm0.h **** 
 174:./bsp/core_cm0.h **** /* SCB Application Interrupt and Reset Control Register Definitions */
 175:./bsp/core_cm0.h **** #define SCB_AIRCR_VECTKEY_Pos              16                                             /*!< SCB 
 176:./bsp/core_cm0.h **** #define SCB_AIRCR_VECTKEY_Msk              (0xFFFFul << SCB_AIRCR_VECTKEY_Pos)            /*!< SCB 
 177:./bsp/core_cm0.h **** 
 178:./bsp/core_cm0.h **** #define SCB_AIRCR_VECTKEYSTAT_Pos          16                                             /*!< SCB 
 179:./bsp/core_cm0.h **** #define SCB_AIRCR_VECTKEYSTAT_Msk          (0xFFFFul << SCB_AIRCR_VECTKEYSTAT_Pos)        /*!< SCB 
 180:./bsp/core_cm0.h **** 
 181:./bsp/core_cm0.h **** #define SCB_AIRCR_ENDIANESS_Pos            15                                             /*!< SCB 
 182:./bsp/core_cm0.h **** #define SCB_AIRCR_ENDIANESS_Msk            (1ul << SCB_AIRCR_ENDIANESS_Pos)               /*!< SCB 
 183:./bsp/core_cm0.h **** 
 184:./bsp/core_cm0.h **** #define SCB_AIRCR_SYSRESETREQ_Pos           2                                             /*!< SCB 
 185:./bsp/core_cm0.h **** #define SCB_AIRCR_SYSRESETREQ_Msk          (1ul << SCB_AIRCR_SYSRESETREQ_Pos)             /*!< SCB 
 186:./bsp/core_cm0.h **** 
 187:./bsp/core_cm0.h **** #define SCB_AIRCR_VECTCLRACTIVE_Pos         1                                             /*!< SCB 
 188:./bsp/core_cm0.h **** #define SCB_AIRCR_VECTCLRACTIVE_Msk        (1ul << SCB_AIRCR_VECTCLRACTIVE_Pos)           /*!< SCB 
 189:./bsp/core_cm0.h **** 
 190:./bsp/core_cm0.h **** /* SCB System Control Register Definitions */
 191:./bsp/core_cm0.h **** #define SCB_SCR_SEVONPEND_Pos               4                                             /*!< SCB 
 192:./bsp/core_cm0.h **** #define SCB_SCR_SEVONPEND_Msk              (1ul << SCB_SCR_SEVONPEND_Pos)                 /*!< SCB 
 193:./bsp/core_cm0.h **** 
 194:./bsp/core_cm0.h **** #define SCB_SCR_SLEEPDEEP_Pos               2                                             /*!< SCB 
 195:./bsp/core_cm0.h **** #define SCB_SCR_SLEEPDEEP_Msk              (1ul << SCB_SCR_SLEEPDEEP_Pos)                 /*!< SCB 
 196:./bsp/core_cm0.h **** 
 197:./bsp/core_cm0.h **** #define SCB_SCR_SLEEPONEXIT_Pos             1                                             /*!< SCB 
 198:./bsp/core_cm0.h **** #define SCB_SCR_SLEEPONEXIT_Msk            (1ul << SCB_SCR_SLEEPONEXIT_Pos)               /*!< SCB 
 199:./bsp/core_cm0.h **** 
 200:./bsp/core_cm0.h **** /* SCB Configuration Control Register Definitions */
 201:./bsp/core_cm0.h **** #define SCB_CCR_STKALIGN_Pos                9                                             /*!< SCB 
 202:./bsp/core_cm0.h **** #define SCB_CCR_STKALIGN_Msk               (1ul << SCB_CCR_STKALIGN_Pos)                  /*!< SCB 
 203:./bsp/core_cm0.h **** 
 204:./bsp/core_cm0.h **** #define SCB_CCR_UNALIGN_TRP_Pos             3                                             /*!< SCB 
 205:./bsp/core_cm0.h **** #define SCB_CCR_UNALIGN_TRP_Msk            (1ul << SCB_CCR_UNALIGN_TRP_Pos)               /*!< SCB 
 206:./bsp/core_cm0.h **** 
 207:./bsp/core_cm0.h **** /* SCB System Handler Control and State Register Definitions */
 208:./bsp/core_cm0.h **** #define SCB_SHCSR_SVCALLPENDED_Pos         15                                             /*!< SCB 
 209:./bsp/core_cm0.h **** #define SCB_SHCSR_SVCALLPENDED_Msk         (1ul << SCB_SHCSR_SVCALLPENDED_Pos)            /*!< SCB 
 210:./bsp/core_cm0.h **** 
 211:./bsp/core_cm0.h **** /* SCB Debug Fault Status Register Definitions */
 212:./bsp/core_cm0.h **** #define SCB_DFSR_EXTERNAL_Pos               4                                             /*!< SCB 
 213:./bsp/core_cm0.h **** #define SCB_DFSR_EXTERNAL_Msk              (1ul << SCB_DFSR_EXTERNAL_Pos)                 /*!< SCB 
 214:./bsp/core_cm0.h **** 
 215:./bsp/core_cm0.h **** #define SCB_DFSR_VCATCH_Pos                 3                                             /*!< SCB 
 216:./bsp/core_cm0.h **** #define SCB_DFSR_VCATCH_Msk                (1ul << SCB_DFSR_VCATCH_Pos)                   /*!< SCB 
 217:./bsp/core_cm0.h **** 
 218:./bsp/core_cm0.h **** #define SCB_DFSR_DWTTRAP_Pos                2                                             /*!< SCB 
 219:./bsp/core_cm0.h **** #define SCB_DFSR_DWTTRAP_Msk               (1ul << SCB_DFSR_DWTTRAP_Pos)                  /*!< SCB 
 220:./bsp/core_cm0.h **** 
 221:./bsp/core_cm0.h **** #define SCB_DFSR_BKPT_Pos                   1                                             /*!< SCB 
 222:./bsp/core_cm0.h **** #define SCB_DFSR_BKPT_Msk                  (1ul << SCB_DFSR_BKPT_Pos)                     /*!< SCB 
 223:./bsp/core_cm0.h **** 
 224:./bsp/core_cm0.h **** #define SCB_DFSR_HALTED_Pos                 0                                             /*!< SCB 
 225:./bsp/core_cm0.h **** #define SCB_DFSR_HALTED_Msk                (1ul << SCB_DFSR_HALTED_Pos)                   /*!< SCB 
 226:./bsp/core_cm0.h **** /*@}*/ /* end of group CMSIS_CM0_SCB */
 227:./bsp/core_cm0.h **** 
 228:./bsp/core_cm0.h **** 
 229:./bsp/core_cm0.h **** /** @addtogroup CMSIS_CM0_SysTick CMSIS CM0 SysTick
 230:./bsp/core_cm0.h ****   memory mapped structure for SysTick
 231:./bsp/core_cm0.h ****   @{
 232:./bsp/core_cm0.h ****  */
 233:./bsp/core_cm0.h **** typedef struct
 234:./bsp/core_cm0.h **** {
 235:./bsp/core_cm0.h ****   __IO uint32_t CTRL;                         /*!< Offset: 0x00  SysTick Control and Status Registe
 236:./bsp/core_cm0.h ****   __IO uint32_t LOAD;                         /*!< Offset: 0x04  SysTick Reload Value Register     
 237:./bsp/core_cm0.h ****   __IO uint32_t VAL;                          /*!< Offset: 0x08  SysTick Current Value Register    
 238:./bsp/core_cm0.h ****   __I  uint32_t CALIB;                        /*!< Offset: 0x0C  SysTick Calibration Register      
 239:./bsp/core_cm0.h **** } SysTick_Type;
 240:./bsp/core_cm0.h **** 
 241:./bsp/core_cm0.h **** /* SysTick Control / Status Register Definitions */
 242:./bsp/core_cm0.h **** #define SysTick_CTRL_COUNTFLAG_Pos         16                                             /*!< SysT
 243:./bsp/core_cm0.h **** #define SysTick_CTRL_COUNTFLAG_Msk         (1ul << SysTick_CTRL_COUNTFLAG_Pos)            /*!< SysT
 244:./bsp/core_cm0.h **** 
 245:./bsp/core_cm0.h **** #define SysTick_CTRL_CLKSOURCE_Pos          2                                             /*!< SysT
 246:./bsp/core_cm0.h **** #define SysTick_CTRL_CLKSOURCE_Msk         (1ul << SysTick_CTRL_CLKSOURCE_Pos)            /*!< SysT
 247:./bsp/core_cm0.h **** 
 248:./bsp/core_cm0.h **** #define SysTick_CTRL_TICKINT_Pos            1                                             /*!< SysT
 249:./bsp/core_cm0.h **** #define SysTick_CTRL_TICKINT_Msk           (1ul << SysTick_CTRL_TICKINT_Pos)              /*!< SysT
 250:./bsp/core_cm0.h **** 
 251:./bsp/core_cm0.h **** #define SysTick_CTRL_ENABLE_Pos             0                                             /*!< SysT
 252:./bsp/core_cm0.h **** #define SysTick_CTRL_ENABLE_Msk            (1ul << SysTick_CTRL_ENABLE_Pos)               /*!< SysT
 253:./bsp/core_cm0.h **** 
 254:./bsp/core_cm0.h **** /* SysTick Reload Register Definitions */
 255:./bsp/core_cm0.h **** #define SysTick_LOAD_RELOAD_Pos             0                                             /*!< SysT
 256:./bsp/core_cm0.h **** #define SysTick_LOAD_RELOAD_Msk            (0xFFFFFFul << SysTick_LOAD_RELOAD_Pos)        /*!< SysT
 257:./bsp/core_cm0.h **** 
 258:./bsp/core_cm0.h **** /* SysTick Current Register Definitions */
 259:./bsp/core_cm0.h **** #define SysTick_VAL_CURRENT_Pos             0                                             /*!< SysT
 260:./bsp/core_cm0.h **** #define SysTick_VAL_CURRENT_Msk            (0xFFFFFFul << SysTick_VAL_CURRENT_Pos)        /*!< SysT
 261:./bsp/core_cm0.h **** 
 262:./bsp/core_cm0.h **** /* SysTick Calibration Register Definitions */
 263:./bsp/core_cm0.h **** #define SysTick_CALIB_NOREF_Pos            31                                             /*!< SysT
 264:./bsp/core_cm0.h **** #define SysTick_CALIB_NOREF_Msk            (1ul << SysTick_CALIB_NOREF_Pos)               /*!< SysT
 265:./bsp/core_cm0.h **** 
 266:./bsp/core_cm0.h **** #define SysTick_CALIB_SKEW_Pos             30                                             /*!< SysT
 267:./bsp/core_cm0.h **** #define SysTick_CALIB_SKEW_Msk             (1ul << SysTick_CALIB_SKEW_Pos)                /*!< SysT
 268:./bsp/core_cm0.h **** 
 269:./bsp/core_cm0.h **** #define SysTick_CALIB_TENMS_Pos             0                                             /*!< SysT
 270:./bsp/core_cm0.h **** #define SysTick_CALIB_TENMS_Msk            (0xFFFFFFul << SysTick_VAL_CURRENT_Pos)        /*!< SysT
 271:./bsp/core_cm0.h **** /*@}*/ /* end of group CMSIS_CM0_SysTick */
 272:./bsp/core_cm0.h **** 
 273:./bsp/core_cm0.h **** 
 274:./bsp/core_cm0.h **** /** @addtogroup CMSIS_CM0_CoreDebug CMSIS CM0 Core Debug
 275:./bsp/core_cm0.h ****   memory mapped structure for Core Debug Register
 276:./bsp/core_cm0.h ****   @{
 277:./bsp/core_cm0.h ****  */
 278:./bsp/core_cm0.h **** typedef struct
 279:./bsp/core_cm0.h **** {
 280:./bsp/core_cm0.h ****   __IO uint32_t DHCSR;                        /*!< Offset: 0x00  Debug Halting Control and Status R
 281:./bsp/core_cm0.h ****   __O  uint32_t DCRSR;                        /*!< Offset: 0x04  Debug Core Register Selector Regis
 282:./bsp/core_cm0.h ****   __IO uint32_t DCRDR;                        /*!< Offset: 0x08  Debug Core Register Data Register 
 283:./bsp/core_cm0.h ****   __IO uint32_t DEMCR;                        /*!< Offset: 0x0C  Debug Exception and Monitor Contro
 284:./bsp/core_cm0.h **** } CoreDebug_Type;
 285:./bsp/core_cm0.h **** 
 286:./bsp/core_cm0.h **** /* Debug Halting Control and Status Register */
 287:./bsp/core_cm0.h **** #define CoreDebug_DHCSR_DBGKEY_Pos         16                                             /*!< Core
 288:./bsp/core_cm0.h **** #define CoreDebug_DHCSR_DBGKEY_Msk         (0xFFFFul << CoreDebug_DHCSR_DBGKEY_Pos)       /*!< Core
 289:./bsp/core_cm0.h **** 
 290:./bsp/core_cm0.h **** #define CoreDebug_DHCSR_S_RESET_ST_Pos     25                                             /*!< Core
 291:./bsp/core_cm0.h **** #define CoreDebug_DHCSR_S_RESET_ST_Msk     (1ul << CoreDebug_DHCSR_S_RESET_ST_Pos)        /*!< Core
 292:./bsp/core_cm0.h **** 
 293:./bsp/core_cm0.h **** #define CoreDebug_DHCSR_S_RETIRE_ST_Pos    24                                             /*!< Core
 294:./bsp/core_cm0.h **** #define CoreDebug_DHCSR_S_RETIRE_ST_Msk    (1ul << CoreDebug_DHCSR_S_RETIRE_ST_Pos)       /*!< Core
 295:./bsp/core_cm0.h **** 
 296:./bsp/core_cm0.h **** #define CoreDebug_DHCSR_S_LOCKUP_Pos       19                                             /*!< Core
 297:./bsp/core_cm0.h **** #define CoreDebug_DHCSR_S_LOCKUP_Msk       (1ul << CoreDebug_DHCSR_S_LOCKUP_Pos)          /*!< Core
 298:./bsp/core_cm0.h **** 
 299:./bsp/core_cm0.h **** #define CoreDebug_DHCSR_S_SLEEP_Pos        18                                             /*!< Core
 300:./bsp/core_cm0.h **** #define CoreDebug_DHCSR_S_SLEEP_Msk        (1ul << CoreDebug_DHCSR_S_SLEEP_Pos)           /*!< Core
 301:./bsp/core_cm0.h **** 
 302:./bsp/core_cm0.h **** #define CoreDebug_DHCSR_S_HALT_Pos         17                                             /*!< Core
 303:./bsp/core_cm0.h **** #define CoreDebug_DHCSR_S_HALT_Msk         (1ul << CoreDebug_DHCSR_S_HALT_Pos)            /*!< Core
 304:./bsp/core_cm0.h **** 
 305:./bsp/core_cm0.h **** #define CoreDebug_DHCSR_S_REGRDY_Pos       16                                             /*!< Core
 306:./bsp/core_cm0.h **** #define CoreDebug_DHCSR_S_REGRDY_Msk       (1ul << CoreDebug_DHCSR_S_REGRDY_Pos)          /*!< Core
 307:./bsp/core_cm0.h **** 
 308:./bsp/core_cm0.h **** #define CoreDebug_DHCSR_C_MASKINTS_Pos      3                                             /*!< Core
 309:./bsp/core_cm0.h **** #define CoreDebug_DHCSR_C_MASKINTS_Msk     (1ul << CoreDebug_DHCSR_C_MASKINTS_Pos)        /*!< Core
 310:./bsp/core_cm0.h **** 
 311:./bsp/core_cm0.h **** #define CoreDebug_DHCSR_C_STEP_Pos          2                                             /*!< Core
 312:./bsp/core_cm0.h **** #define CoreDebug_DHCSR_C_STEP_Msk         (1ul << CoreDebug_DHCSR_C_STEP_Pos)            /*!< Core
 313:./bsp/core_cm0.h **** 
 314:./bsp/core_cm0.h **** #define CoreDebug_DHCSR_C_HALT_Pos          1                                             /*!< Core
 315:./bsp/core_cm0.h **** #define CoreDebug_DHCSR_C_HALT_Msk         (1ul << CoreDebug_DHCSR_C_HALT_Pos)            /*!< Core
 316:./bsp/core_cm0.h **** 
 317:./bsp/core_cm0.h **** #define CoreDebug_DHCSR_C_DEBUGEN_Pos       0                                             /*!< Core
 318:./bsp/core_cm0.h **** #define CoreDebug_DHCSR_C_DEBUGEN_Msk      (1ul << CoreDebug_DHCSR_C_DEBUGEN_Pos)         /*!< Core
 319:./bsp/core_cm0.h **** 
 320:./bsp/core_cm0.h **** /* Debug Core Register Selector Register */
 321:./bsp/core_cm0.h **** #define CoreDebug_DCRSR_REGWnR_Pos         16                                             /*!< Core
 322:./bsp/core_cm0.h **** #define CoreDebug_DCRSR_REGWnR_Msk         (1ul << CoreDebug_DCRSR_REGWnR_Pos)            /*!< Core
 323:./bsp/core_cm0.h **** 
 324:./bsp/core_cm0.h **** #define CoreDebug_DCRSR_REGSEL_Pos          0                                             /*!< Core
 325:./bsp/core_cm0.h **** #define CoreDebug_DCRSR_REGSEL_Msk         (0x1Ful << CoreDebug_DCRSR_REGSEL_Pos)         /*!< Core
 326:./bsp/core_cm0.h **** 
 327:./bsp/core_cm0.h **** /* Debug Exception and Monitor Control Register */
 328:./bsp/core_cm0.h **** #define CoreDebug_DEMCR_DWTENA_Pos         24                                             /*!< Core
 329:./bsp/core_cm0.h **** #define CoreDebug_DEMCR_DWTENA_Msk         (1ul << CoreDebug_DEMCR_DWTENA_Pos)            /*!< Core
 330:./bsp/core_cm0.h **** 
 331:./bsp/core_cm0.h **** #define CoreDebug_DEMCR_VC_HARDERR_Pos     10                                             /*!< Core
 332:./bsp/core_cm0.h **** #define CoreDebug_DEMCR_VC_HARDERR_Msk     (1ul << CoreDebug_DEMCR_VC_HARDERR_Pos)        /*!< Core
 333:./bsp/core_cm0.h **** 
 334:./bsp/core_cm0.h **** #define CoreDebug_DEMCR_VC_CORERESET_Pos    0                                             /*!< Core
 335:./bsp/core_cm0.h **** #define CoreDebug_DEMCR_VC_CORERESET_Msk   (1ul << CoreDebug_DEMCR_VC_CORERESET_Pos)      /*!< Core
 336:./bsp/core_cm0.h **** /*@}*/ /* end of group CMSIS_CM0_CoreDebug */
 337:./bsp/core_cm0.h **** 
 338:./bsp/core_cm0.h **** 
 339:./bsp/core_cm0.h **** /* Memory mapping of Cortex-M0 Hardware */
 340:./bsp/core_cm0.h **** #define SCS_BASE            (0xE000E000)                              /*!< System Control Space Bas
 341:./bsp/core_cm0.h **** #define CoreDebug_BASE      (0xE000EDF0)                              /*!< Core Debug Base Address 
 342:./bsp/core_cm0.h **** #define SysTick_BASE        (SCS_BASE +  0x0010)                      /*!< SysTick Base Address    
 343:./bsp/core_cm0.h **** #define NVIC_BASE           (SCS_BASE +  0x0100)                      /*!< NVIC Base Address       
 344:./bsp/core_cm0.h **** #define SCB_BASE            (SCS_BASE +  0x0D00)                      /*!< System Control Block Bas
 345:./bsp/core_cm0.h **** 
 346:./bsp/core_cm0.h **** #define SCB                 ((SCB_Type *)           SCB_BASE)         /*!< SCB configuration struct
 347:./bsp/core_cm0.h **** #define SysTick             ((SysTick_Type *)       SysTick_BASE)     /*!< SysTick configuration st
 348:./bsp/core_cm0.h **** #define NVIC                ((NVIC_Type *)          NVIC_BASE)        /*!< NVIC configuration struc
 349:./bsp/core_cm0.h **** #define CoreDebug           ((CoreDebug_Type *)     CoreDebug_BASE)   /*!< Core Debug configuration
 350:./bsp/core_cm0.h **** 
 351:./bsp/core_cm0.h **** /*@}*/ /* end of group CMSIS_CM0_core_register */
 352:./bsp/core_cm0.h **** 
 353:./bsp/core_cm0.h **** 
 354:./bsp/core_cm0.h **** /*******************************************************************************
 355:./bsp/core_cm0.h ****  *                Hardware Abstraction Layer
 356:./bsp/core_cm0.h ****  ******************************************************************************/
 357:./bsp/core_cm0.h **** 
 358:./bsp/core_cm0.h **** 
 359:./bsp/core_cm0.h **** #if defined ( __CC_ARM   )
 360:./bsp/core_cm0.h ****   #define __ASM            __asm                                      /*!< asm keyword for ARM Comp
 361:./bsp/core_cm0.h ****   #define __INLINE         __inline                                   /*!< inline keyword for ARM C
 362:./bsp/core_cm0.h ****   #define __STATIC_INLINE  static __inline
 363:./bsp/core_cm0.h **** #elif defined ( __ICCARM__ )
 364:./bsp/core_cm0.h ****   #define __ASM           __asm                                       /*!< asm keyword for IAR Comp
 365:./bsp/core_cm0.h ****   #define __INLINE        inline                                      /*!< inline keyword for IAR C
 366:./bsp/core_cm0.h ****   #define __STATIC_INLINE  static inline
 367:./bsp/core_cm0.h **** #elif defined   (  __GNUC__  )
 368:./bsp/core_cm0.h ****   #define __ASM            __asm                                      /*!< asm keyword for GNU Comp
 369:./bsp/core_cm0.h ****   #define __INLINE         inline                                     /*!< inline keyword for GNU C
 370:./bsp/core_cm0.h ****   #define __STATIC_INLINE  static inline
 371:./bsp/core_cm0.h **** #elif defined   (  __TASKING__  )
 372:./bsp/core_cm0.h ****   #define __ASM            __asm                                      /*!< asm keyword for TASKING 
 373:./bsp/core_cm0.h ****   #define __INLINE         inline                                     /*!< inline keyword for TASKI
 374:./bsp/core_cm0.h ****   #define __STATIC_INLINE  static inline
 375:./bsp/core_cm0.h **** #endif
 376:./bsp/core_cm0.h **** 
 377:./bsp/core_cm0.h **** 
 378:./bsp/core_cm0.h **** /* ###################  Compiler specific Intrinsics  ########################### */
 379:./bsp/core_cm0.h **** 
 380:./bsp/core_cm0.h **** #if defined ( __CC_ARM   ) /*------------------RealView Compiler -----------------*/
 381:./bsp/core_cm0.h **** /* ARM armcc specific functions */
 382:./bsp/core_cm0.h **** 
 383:./bsp/core_cm0.h **** #define __enable_fault_irq                __enable_fiq
 384:./bsp/core_cm0.h **** #define __disable_fault_irq               __disable_fiq
 385:./bsp/core_cm0.h **** 
 386:./bsp/core_cm0.h **** #define __NOP                             __nop
 387:./bsp/core_cm0.h **** #define __WFI                             __wfi
 388:./bsp/core_cm0.h **** #define __WFE                             __wfe
 389:./bsp/core_cm0.h **** #define __SEV                             __sev
 390:./bsp/core_cm0.h **** #define __ISB()                           __isb(0)
 391:./bsp/core_cm0.h **** #define __DSB()                           __dsb(0)
 392:./bsp/core_cm0.h **** #define __DMB()                           __dmb(0)
 393:./bsp/core_cm0.h **** #define __REV                             __rev
 394:./bsp/core_cm0.h **** 
 395:./bsp/core_cm0.h **** 
 396:./bsp/core_cm0.h **** /* intrinsic void __enable_irq();     */
 397:./bsp/core_cm0.h **** /* intrinsic void __disable_irq();    */
 398:./bsp/core_cm0.h **** 
 399:./bsp/core_cm0.h **** 
 400:./bsp/core_cm0.h **** /**
 401:./bsp/core_cm0.h ****  * @brief  Return the Process Stack Pointer
 402:./bsp/core_cm0.h ****  *
 403:./bsp/core_cm0.h ****  * @return ProcessStackPointer
 404:./bsp/core_cm0.h ****  *
 405:./bsp/core_cm0.h ****  * Return the actual process stack pointer
 406:./bsp/core_cm0.h ****  */
 407:./bsp/core_cm0.h **** extern uint32_t __get_PSP(void);
 408:./bsp/core_cm0.h **** 
 409:./bsp/core_cm0.h **** /**
 410:./bsp/core_cm0.h ****  * @brief  Set the Process Stack Pointer
 411:./bsp/core_cm0.h ****  *
 412:./bsp/core_cm0.h ****  * @param  topOfProcStack  Process Stack Pointer
 413:./bsp/core_cm0.h ****  *
 414:./bsp/core_cm0.h ****  * Assign the value ProcessStackPointer to the MSP 
 415:./bsp/core_cm0.h ****  * (process stack pointer) Cortex processor register
 416:./bsp/core_cm0.h ****  */
 417:./bsp/core_cm0.h **** extern void __set_PSP(uint32_t topOfProcStack);
 418:./bsp/core_cm0.h **** 
 419:./bsp/core_cm0.h **** /**
 420:./bsp/core_cm0.h ****  * @brief  Return the Main Stack Pointer
 421:./bsp/core_cm0.h ****  *
 422:./bsp/core_cm0.h ****  * @return Main Stack Pointer
 423:./bsp/core_cm0.h ****  *
 424:./bsp/core_cm0.h ****  * Return the current value of the MSP (main stack pointer)
 425:./bsp/core_cm0.h ****  * Cortex processor register
 426:./bsp/core_cm0.h ****  */
 427:./bsp/core_cm0.h **** extern uint32_t __get_MSP(void);
 428:./bsp/core_cm0.h **** 
 429:./bsp/core_cm0.h **** /**
 430:./bsp/core_cm0.h ****  * @brief  Set the Main Stack Pointer
 431:./bsp/core_cm0.h ****  *
 432:./bsp/core_cm0.h ****  * @param  topOfMainStack  Main Stack Pointer
 433:./bsp/core_cm0.h ****  *
 434:./bsp/core_cm0.h ****  * Assign the value mainStackPointer to the MSP 
 435:./bsp/core_cm0.h ****  * (main stack pointer) Cortex processor register
 436:./bsp/core_cm0.h ****  */
 437:./bsp/core_cm0.h **** extern void __set_MSP(uint32_t topOfMainStack);
 438:./bsp/core_cm0.h **** 
 439:./bsp/core_cm0.h **** /**
 440:./bsp/core_cm0.h ****  * @brief  Reverse byte order in unsigned short value
 441:./bsp/core_cm0.h ****  *
 442:./bsp/core_cm0.h ****  * @param   value  value to reverse
 443:./bsp/core_cm0.h ****  * @return         reversed value
 444:./bsp/core_cm0.h ****  *
 445:./bsp/core_cm0.h ****  * Reverse byte order in unsigned short value
 446:./bsp/core_cm0.h ****  */
 447:./bsp/core_cm0.h **** extern uint32_t __REV16(uint16_t value);
 448:./bsp/core_cm0.h **** 
 449:./bsp/core_cm0.h **** /**
 450:./bsp/core_cm0.h ****  * @brief  Reverse byte order in signed short value with sign extension to integer
 451:./bsp/core_cm0.h ****  *
 452:./bsp/core_cm0.h ****  * @param   value  value to reverse
 453:./bsp/core_cm0.h ****  * @return         reversed value
 454:./bsp/core_cm0.h ****  *
 455:./bsp/core_cm0.h ****  * Reverse byte order in signed short value with sign extension to integer
 456:./bsp/core_cm0.h ****  */
 457:./bsp/core_cm0.h **** extern int32_t __REVSH(int16_t value);
 458:./bsp/core_cm0.h **** 
 459:./bsp/core_cm0.h **** 
 460:./bsp/core_cm0.h **** #if (__ARMCC_VERSION < 400000)
 461:./bsp/core_cm0.h **** 
 462:./bsp/core_cm0.h **** /**
 463:./bsp/core_cm0.h ****  * @brief  Return the Priority Mask value
 464:./bsp/core_cm0.h ****  *
 465:./bsp/core_cm0.h ****  * @return PriMask
 466:./bsp/core_cm0.h ****  *
 467:./bsp/core_cm0.h ****  * Return state of the priority mask bit from the priority mask register
 468:./bsp/core_cm0.h ****  */
 469:./bsp/core_cm0.h **** extern uint32_t __get_PRIMASK(void);
 470:./bsp/core_cm0.h **** 
 471:./bsp/core_cm0.h **** /**
 472:./bsp/core_cm0.h ****  * @brief  Set the Priority Mask value
 473:./bsp/core_cm0.h ****  *
 474:./bsp/core_cm0.h ****  * @param   priMask  PriMask
 475:./bsp/core_cm0.h ****  *
 476:./bsp/core_cm0.h ****  * Set the priority mask bit in the priority mask register
 477:./bsp/core_cm0.h ****  */
 478:./bsp/core_cm0.h **** extern void __set_PRIMASK(uint32_t priMask);
 479:./bsp/core_cm0.h **** 
 480:./bsp/core_cm0.h **** /**
 481:./bsp/core_cm0.h ****  * @brief  Return the Control Register value
 482:./bsp/core_cm0.h ****  * 
 483:./bsp/core_cm0.h ****  * @return Control value
 484:./bsp/core_cm0.h ****  *
 485:./bsp/core_cm0.h ****  * Return the content of the control register
 486:./bsp/core_cm0.h ****  */
 487:./bsp/core_cm0.h **** extern uint32_t __get_CONTROL(void);
 488:./bsp/core_cm0.h **** 
 489:./bsp/core_cm0.h **** /**
 490:./bsp/core_cm0.h ****  * @brief  Set the Control Register value
 491:./bsp/core_cm0.h ****  *
 492:./bsp/core_cm0.h ****  * @param  control  Control value
 493:./bsp/core_cm0.h ****  *
 494:./bsp/core_cm0.h ****  * Set the control register
 495:./bsp/core_cm0.h ****  */
 496:./bsp/core_cm0.h **** extern void __set_CONTROL(uint32_t control);
 497:./bsp/core_cm0.h **** 
 498:./bsp/core_cm0.h **** #else  /* (__ARMCC_VERSION >= 400000)  */
 499:./bsp/core_cm0.h **** 
 500:./bsp/core_cm0.h **** 
 501:./bsp/core_cm0.h **** /**
 502:./bsp/core_cm0.h ****  * @brief  Return the Priority Mask value
 503:./bsp/core_cm0.h ****  *
 504:./bsp/core_cm0.h ****  * @return PriMask
 505:./bsp/core_cm0.h ****  *
 506:./bsp/core_cm0.h ****  * Return state of the priority mask bit from the priority mask register
 507:./bsp/core_cm0.h ****  */
 508:./bsp/core_cm0.h **** static __INLINE uint32_t __get_PRIMASK(void)
 509:./bsp/core_cm0.h **** {
 510:./bsp/core_cm0.h ****   register uint32_t __regPriMask         __ASM("primask");
 511:./bsp/core_cm0.h ****   return(__regPriMask);
 512:./bsp/core_cm0.h **** }
 513:./bsp/core_cm0.h **** 
 514:./bsp/core_cm0.h **** /**
 515:./bsp/core_cm0.h ****  * @brief  Set the Priority Mask value
 516:./bsp/core_cm0.h ****  *
 517:./bsp/core_cm0.h ****  * @param  priMask  PriMask
 518:./bsp/core_cm0.h ****  *
 519:./bsp/core_cm0.h ****  * Set the priority mask bit in the priority mask register
 520:./bsp/core_cm0.h ****  */
 521:./bsp/core_cm0.h **** static __INLINE void __set_PRIMASK(uint32_t priMask)
 522:./bsp/core_cm0.h **** {
 523:./bsp/core_cm0.h ****   register uint32_t __regPriMask         __ASM("primask");
 524:./bsp/core_cm0.h ****   __regPriMask = (priMask);
 525:./bsp/core_cm0.h **** }
 526:./bsp/core_cm0.h **** 
 527:./bsp/core_cm0.h **** /**
 528:./bsp/core_cm0.h ****  * @brief  Return the Control Register value
 529:./bsp/core_cm0.h ****  * 
 530:./bsp/core_cm0.h ****  * @return Control value
 531:./bsp/core_cm0.h ****  *
 532:./bsp/core_cm0.h ****  * Return the content of the control register
 533:./bsp/core_cm0.h ****  */
 534:./bsp/core_cm0.h **** static __INLINE uint32_t __get_CONTROL(void)
 535:./bsp/core_cm0.h **** {
 536:./bsp/core_cm0.h ****   register uint32_t __regControl         __ASM("control");
 537:./bsp/core_cm0.h ****   return(__regControl);
 538:./bsp/core_cm0.h **** }
 539:./bsp/core_cm0.h **** 
 540:./bsp/core_cm0.h **** /**
 541:./bsp/core_cm0.h ****  * @brief  Set the Control Register value
 542:./bsp/core_cm0.h ****  *
 543:./bsp/core_cm0.h ****  * @param  control  Control value
 544:./bsp/core_cm0.h ****  *
 545:./bsp/core_cm0.h ****  * Set the control register
 546:./bsp/core_cm0.h ****  */
 547:./bsp/core_cm0.h **** static __INLINE void __set_CONTROL(uint32_t control)
 548:./bsp/core_cm0.h **** {
 549:./bsp/core_cm0.h ****   register uint32_t __regControl         __ASM("control");
 550:./bsp/core_cm0.h ****   __regControl = control;
 551:./bsp/core_cm0.h **** }
 552:./bsp/core_cm0.h **** 
 553:./bsp/core_cm0.h **** #endif /* __ARMCC_VERSION  */ 
 554:./bsp/core_cm0.h **** 
 555:./bsp/core_cm0.h **** 
 556:./bsp/core_cm0.h **** 
 557:./bsp/core_cm0.h **** #elif (defined (__ICCARM__)) /*------------------ ICC Compiler -------------------*/
 558:./bsp/core_cm0.h **** /* IAR iccarm specific functions */
 559:./bsp/core_cm0.h **** 
 560:./bsp/core_cm0.h **** #define __enable_irq                              __enable_interrupt        /*!< global Interrupt e
 561:./bsp/core_cm0.h **** #define __disable_irq                             __disable_interrupt       /*!< global Interrupt d
 562:./bsp/core_cm0.h **** 
 563:./bsp/core_cm0.h **** static __INLINE void __enable_fault_irq()         { __ASM ("cpsie f"); }
 564:./bsp/core_cm0.h **** static __INLINE void __disable_fault_irq()        { __ASM ("cpsid f"); }
 565:./bsp/core_cm0.h **** 
 566:./bsp/core_cm0.h **** #define __NOP                                     __no_operation            /*!< no operation intri
 567:./bsp/core_cm0.h **** static __INLINE  void __WFI()                     { __ASM ("wfi"); }
 568:./bsp/core_cm0.h **** static __INLINE  void __WFE()                     { __ASM ("wfe"); }
 569:./bsp/core_cm0.h **** static __INLINE  void __SEV()                     { __ASM ("sev"); }
 570:./bsp/core_cm0.h **** 
 571:./bsp/core_cm0.h **** /* intrinsic void __ISB(void)                                     */
 572:./bsp/core_cm0.h **** /* intrinsic void __DSB(void)                                     */
 573:./bsp/core_cm0.h **** /* intrinsic void __DMB(void)                                     */
 574:./bsp/core_cm0.h **** /* intrinsic void __set_PRIMASK();                                */
 575:./bsp/core_cm0.h **** /* intrinsic void __get_PRIMASK();                                */
 576:./bsp/core_cm0.h **** 
 577:./bsp/core_cm0.h **** 
 578:./bsp/core_cm0.h **** /* intrinsic uint32_t __REV(uint32_t value);                      */
 579:./bsp/core_cm0.h **** /* intrinsic uint32_t __REVSH(uint32_t value);                    */
 580:./bsp/core_cm0.h **** 
 581:./bsp/core_cm0.h **** 
 582:./bsp/core_cm0.h **** /**
 583:./bsp/core_cm0.h ****  * @brief  Return the Process Stack Pointer
 584:./bsp/core_cm0.h ****  *
 585:./bsp/core_cm0.h ****  * @return ProcessStackPointer
 586:./bsp/core_cm0.h ****  *
 587:./bsp/core_cm0.h ****  * Return the actual process stack pointer
 588:./bsp/core_cm0.h ****  */
 589:./bsp/core_cm0.h **** extern uint32_t __get_PSP(void);
 590:./bsp/core_cm0.h **** 
 591:./bsp/core_cm0.h **** /**
 592:./bsp/core_cm0.h ****  * @brief  Set the Process Stack Pointer
 593:./bsp/core_cm0.h ****  *
 594:./bsp/core_cm0.h ****  * @param  topOfProcStack  Process Stack Pointer
 595:./bsp/core_cm0.h ****  *
 596:./bsp/core_cm0.h ****  * Assign the value ProcessStackPointer to the MSP 
 597:./bsp/core_cm0.h ****  * (process stack pointer) Cortex processor register
 598:./bsp/core_cm0.h ****  */
 599:./bsp/core_cm0.h **** extern void __set_PSP(uint32_t topOfProcStack);
 600:./bsp/core_cm0.h **** 
 601:./bsp/core_cm0.h **** /**
 602:./bsp/core_cm0.h ****  * @brief  Return the Main Stack Pointer
 603:./bsp/core_cm0.h ****  *
 604:./bsp/core_cm0.h ****  * @return Main Stack Pointer
 605:./bsp/core_cm0.h ****  *
 606:./bsp/core_cm0.h ****  * Return the current value of the MSP (main stack pointer)
 607:./bsp/core_cm0.h ****  * Cortex processor register
 608:./bsp/core_cm0.h ****  */
 609:./bsp/core_cm0.h **** extern uint32_t __get_MSP(void);
 610:./bsp/core_cm0.h **** 
 611:./bsp/core_cm0.h **** /**
 612:./bsp/core_cm0.h ****  * @brief  Set the Main Stack Pointer
 613:./bsp/core_cm0.h ****  *
 614:./bsp/core_cm0.h ****  * @param  topOfMainStack  Main Stack Pointer
 615:./bsp/core_cm0.h ****  *
 616:./bsp/core_cm0.h ****  * Assign the value mainStackPointer to the MSP 
 617:./bsp/core_cm0.h ****  * (main stack pointer) Cortex processor register
 618:./bsp/core_cm0.h ****  */
 619:./bsp/core_cm0.h **** extern void __set_MSP(uint32_t topOfMainStack);
 620:./bsp/core_cm0.h **** 
 621:./bsp/core_cm0.h **** /**
 622:./bsp/core_cm0.h ****  * @brief  Reverse byte order in unsigned short value
 623:./bsp/core_cm0.h ****  *
 624:./bsp/core_cm0.h ****  * @param  value  value to reverse
 625:./bsp/core_cm0.h ****  * @return        reversed value
 626:./bsp/core_cm0.h ****  *
 627:./bsp/core_cm0.h ****  * Reverse byte order in unsigned short value
 628:./bsp/core_cm0.h ****  */
 629:./bsp/core_cm0.h **** extern uint32_t __REV16(uint16_t value);
 630:./bsp/core_cm0.h **** 
 631:./bsp/core_cm0.h **** 
 632:./bsp/core_cm0.h **** 
 633:./bsp/core_cm0.h **** 
 634:./bsp/core_cm0.h **** 
 635:./bsp/core_cm0.h **** #elif (defined (__GNUC__)) /*------------------ GNU Compiler ---------------------*/
 636:./bsp/core_cm0.h **** /* GNU gcc specific functions */
 637:./bsp/core_cm0.h **** 
 638:./bsp/core_cm0.h **** static __INLINE void __enable_irq()               { __ASM volatile ("cpsie i"); }
 639:./bsp/core_cm0.h **** static __INLINE void __disable_irq()              { __ASM volatile ("cpsid i"); }
 640:./bsp/core_cm0.h **** 
 641:./bsp/core_cm0.h **** static __INLINE void __enable_fault_irq()         { __ASM volatile ("cpsie f"); }
 642:./bsp/core_cm0.h **** static __INLINE void __disable_fault_irq()        { __ASM volatile ("cpsid f"); }
 643:./bsp/core_cm0.h **** 
 644:./bsp/core_cm0.h **** static __INLINE void __NOP()                      { __ASM volatile ("nop"); }
 645:./bsp/core_cm0.h **** static __INLINE void __WFI()                      { __ASM volatile ("wfi"); }
 646:./bsp/core_cm0.h **** static __INLINE void __WFE()                      { __ASM volatile ("wfe"); }
 647:./bsp/core_cm0.h **** static __INLINE void __SEV()                      { __ASM volatile ("sev"); }
 648:./bsp/core_cm0.h **** static __INLINE void __ISB()                      { __ASM volatile ("isb"); }
 649:./bsp/core_cm0.h **** static __INLINE void __DSB()                      { __ASM volatile ("dsb"); }
 650:./bsp/core_cm0.h **** static __INLINE void __DMB()                      { __ASM volatile ("dmb"); }
 651:./bsp/core_cm0.h **** 
 652:./bsp/core_cm0.h **** 
 653:./bsp/core_cm0.h **** /**
 654:./bsp/core_cm0.h ****  * @brief  Return the Process Stack Pointer
 655:./bsp/core_cm0.h ****  *
 656:./bsp/core_cm0.h ****  * @return ProcessStackPointer
 657:./bsp/core_cm0.h ****  *
 658:./bsp/core_cm0.h ****  * Return the actual process stack pointer
 659:./bsp/core_cm0.h ****  */
 660:./bsp/core_cm0.h **** extern uint32_t __get_PSP(void);
 661:./bsp/core_cm0.h **** 
 662:./bsp/core_cm0.h **** /**
 663:./bsp/core_cm0.h ****  * @brief  Set the Process Stack Pointer
 664:./bsp/core_cm0.h ****  *
 665:./bsp/core_cm0.h ****  * @param  topOfProcStack  Process Stack Pointer
 666:./bsp/core_cm0.h ****  *
 667:./bsp/core_cm0.h ****  * Assign the value ProcessStackPointer to the MSP 
 668:./bsp/core_cm0.h ****  * (process stack pointer) Cortex processor register
 669:./bsp/core_cm0.h ****  */
 670:./bsp/core_cm0.h **** extern void __set_PSP(uint32_t topOfProcStack);
 671:./bsp/core_cm0.h **** 
 672:./bsp/core_cm0.h **** /**
 673:./bsp/core_cm0.h ****  * @brief  Return the Main Stack Pointer
 674:./bsp/core_cm0.h ****  *
 675:./bsp/core_cm0.h ****  * @return Main Stack Pointer
 676:./bsp/core_cm0.h ****  *
 677:./bsp/core_cm0.h ****  * Return the current value of the MSP (main stack pointer)
 678:./bsp/core_cm0.h ****  * Cortex processor register
 679:./bsp/core_cm0.h ****  */
 680:./bsp/core_cm0.h **** extern uint32_t __get_MSP(void);
 681:./bsp/core_cm0.h **** 
 682:./bsp/core_cm0.h **** /**
 683:./bsp/core_cm0.h ****  * @brief  Set the Main Stack Pointer
 684:./bsp/core_cm0.h ****  *
 685:./bsp/core_cm0.h ****  * @param  topOfMainStack  Main Stack Pointer
 686:./bsp/core_cm0.h ****  *
 687:./bsp/core_cm0.h ****  * Assign the value mainStackPointer to the MSP 
 688:./bsp/core_cm0.h ****  * (main stack pointer) Cortex processor register
 689:./bsp/core_cm0.h ****  */
 690:./bsp/core_cm0.h **** extern void __set_MSP(uint32_t topOfMainStack);
 691:./bsp/core_cm0.h **** 
 692:./bsp/core_cm0.h **** /**
 693:./bsp/core_cm0.h ****  * @brief  Return the Priority Mask value
 694:./bsp/core_cm0.h ****  *
 695:./bsp/core_cm0.h ****  * @return PriMask
 696:./bsp/core_cm0.h ****  *
 697:./bsp/core_cm0.h ****  * Return state of the priority mask bit from the priority mask register
 698:./bsp/core_cm0.h ****  */
 699:./bsp/core_cm0.h **** extern uint32_t  __get_PRIMASK(void);
 700:./bsp/core_cm0.h **** 
 701:./bsp/core_cm0.h **** /**
 702:./bsp/core_cm0.h ****  * @brief  Set the Priority Mask value
 703:./bsp/core_cm0.h ****  *
 704:./bsp/core_cm0.h ****  * @param  priMask  PriMask
 705:./bsp/core_cm0.h ****  *
 706:./bsp/core_cm0.h ****  * Set the priority mask bit in the priority mask register
 707:./bsp/core_cm0.h ****  */
 708:./bsp/core_cm0.h **** extern void __set_PRIMASK(uint32_t priMask);
 709:./bsp/core_cm0.h **** 
 710:./bsp/core_cm0.h **** /**
 711:./bsp/core_cm0.h ****  * @brief  Return the Control Register value
 712:./bsp/core_cm0.h **** * 
 713:./bsp/core_cm0.h **** *  @return Control value
 714:./bsp/core_cm0.h ****  *
 715:./bsp/core_cm0.h ****  * Return the content of the control register
 716:./bsp/core_cm0.h ****  */
 717:./bsp/core_cm0.h **** extern uint32_t __get_CONTROL(void);
 718:./bsp/core_cm0.h **** 
 719:./bsp/core_cm0.h **** /**
 720:./bsp/core_cm0.h ****  * @brief  Set the Control Register value
 721:./bsp/core_cm0.h ****  *
 722:./bsp/core_cm0.h ****  * @param  control  Control value
 723:./bsp/core_cm0.h ****  *
 724:./bsp/core_cm0.h ****  * Set the control register
 725:./bsp/core_cm0.h ****  */
 726:./bsp/core_cm0.h **** extern void __set_CONTROL(uint32_t control);
 727:./bsp/core_cm0.h **** 
 728:./bsp/core_cm0.h **** /**
 729:./bsp/core_cm0.h ****  * @brief  Reverse byte order in integer value
 730:./bsp/core_cm0.h ****  *
 731:./bsp/core_cm0.h ****  * @param  value  value to reverse
 732:./bsp/core_cm0.h ****  * @return        reversed value
 733:./bsp/core_cm0.h ****  *
 734:./bsp/core_cm0.h ****  * Reverse byte order in integer value
 735:./bsp/core_cm0.h ****  */
 736:./bsp/core_cm0.h **** extern uint32_t __REV(uint32_t value);
 737:./bsp/core_cm0.h **** 
 738:./bsp/core_cm0.h **** /**
 739:./bsp/core_cm0.h ****  * @brief  Reverse byte order in unsigned short value
 740:./bsp/core_cm0.h ****  *
 741:./bsp/core_cm0.h ****  * @param  value  value to reverse
 742:./bsp/core_cm0.h ****  * @return        reversed value
 743:./bsp/core_cm0.h ****  *
 744:./bsp/core_cm0.h ****  * Reverse byte order in unsigned short value
 745:./bsp/core_cm0.h ****  */
 746:./bsp/core_cm0.h **** extern uint32_t __REV16(uint16_t value);
 747:./bsp/core_cm0.h **** 
 748:./bsp/core_cm0.h **** /**
 749:./bsp/core_cm0.h ****  * @brief  Reverse byte order in signed short value with sign extension to integer
 750:./bsp/core_cm0.h ****  *
 751:./bsp/core_cm0.h ****  * @param  value  value to reverse
 752:./bsp/core_cm0.h ****  * @return        reversed value
 753:./bsp/core_cm0.h ****  *
 754:./bsp/core_cm0.h ****  * Reverse byte order in signed short value with sign extension to integer
 755:./bsp/core_cm0.h ****  */
 756:./bsp/core_cm0.h **** extern int32_t __REVSH(int16_t value);
 757:./bsp/core_cm0.h **** 
 758:./bsp/core_cm0.h **** 
 759:./bsp/core_cm0.h **** #elif (defined (__TASKING__)) /*------------------ TASKING Compiler ---------------------*/
 760:./bsp/core_cm0.h **** /* TASKING carm specific functions */
 761:./bsp/core_cm0.h **** 
 762:./bsp/core_cm0.h **** /*
 763:./bsp/core_cm0.h ****  * The CMSIS functions have been implemented as intrinsics in the compiler.
 764:./bsp/core_cm0.h ****  * Please use "carm -?i" to get an up to date list of all instrinsics,
 765:./bsp/core_cm0.h ****  * Including the CMSIS ones.
 766:./bsp/core_cm0.h ****  */
 767:./bsp/core_cm0.h **** 
 768:./bsp/core_cm0.h **** #endif
 769:./bsp/core_cm0.h **** 
 770:./bsp/core_cm0.h **** 
 771:./bsp/core_cm0.h **** /** @addtogroup CMSIS_CM0_Core_FunctionInterface CMSIS CM0 Core Function Interface
 772:./bsp/core_cm0.h ****   Core  Function Interface containing:
 773:./bsp/core_cm0.h ****   - Core NVIC Functions
 774:./bsp/core_cm0.h ****   - Core SysTick Functions
 775:./bsp/core_cm0.h ****   - Core Reset Functions
 776:./bsp/core_cm0.h **** */
 777:./bsp/core_cm0.h **** /*@{*/
 778:./bsp/core_cm0.h **** 
