   1              		.syntax unified
   2              		.cpu cortex-m0
   3              		.fpu softvfp
   4              		.eabi_attribute 20, 1
   5              		.eabi_attribute 21, 1
   6              		.eabi_attribute 23, 3
   7              		.eabi_attribute 24, 1
   8              		.eabi_attribute 25, 1
   9              		.eabi_attribute 26, 1
  10              		.eabi_attribute 30, 4
  11              		.eabi_attribute 34, 0
  12              		.eabi_attribute 18, 4
  13              		.thumb
  14              		.syntax unified
  15              		.file	"system_NUC131.c"
  16              		.text
  17              	.Ltext0:
  18              		.cfi_sections	.debug_frame
  19              		.global	__aeabi_uidiv
  20              		.section	.text.SystemCoreClockUpdate,"ax",%progbits
  21              		.align	1
  22              		.global	SystemCoreClockUpdate
  23              		.code	16
  24              		.thumb_func
  26              	SystemCoreClockUpdate:
  27              	.LFB59:
  28              		.file 1 "./bsp/system_NUC131.c"
   1:./bsp/system_NUC131.c **** /**************************************************************************//**
   2:./bsp/system_NUC131.c ****  * @file     system_NUC131.c
   3:./bsp/system_NUC131.c ****  * @version  V3.0
   4:./bsp/system_NUC131.c ****  * $Revision: 4 $
   5:./bsp/system_NUC131.c ****  * $Date: 14/07/22 9:41a $
   6:./bsp/system_NUC131.c ****  * @brief    NUC131 Series CMSIS System File
   7:./bsp/system_NUC131.c ****  *
   8:./bsp/system_NUC131.c ****  * @note
   9:./bsp/system_NUC131.c ****  * Copyright (C) 2014 Nuvoton Technology Corp. All rights reserved.
  10:./bsp/system_NUC131.c ****  *
  11:./bsp/system_NUC131.c ****  ******************************************************************************/
  12:./bsp/system_NUC131.c **** #include <stdint.h>
  13:./bsp/system_NUC131.c **** #include "NUC131.h"
  14:./bsp/system_NUC131.c **** 
  15:./bsp/system_NUC131.c **** 
  16:./bsp/system_NUC131.c **** #define PLLCON_SETTING  CLK_PLLCON_48MHz_HXT
  17:./bsp/system_NUC131.c **** #define PLL_CLOCK       48000000
  18:./bsp/system_NUC131.c **** 
  19:./bsp/system_NUC131.c **** /*----------------------------------------------------------------------------
  20:./bsp/system_NUC131.c ****   Clock Variable definitions
  21:./bsp/system_NUC131.c ****  *----------------------------------------------------------------------------*/
  22:./bsp/system_NUC131.c **** uint32_t SystemCoreClock  = __HSI;             /*!< System Clock Frequency (Core Clock) */
  23:./bsp/system_NUC131.c **** uint32_t CyclesPerUs      = (__HSI / 1000000); /* Cycles per micro second */
  24:./bsp/system_NUC131.c **** uint32_t PllClock         = __HSI;             /*!< PLL Output Clock Frequency */
  25:./bsp/system_NUC131.c **** uint32_t gau32ClkSrcTbl[] = {__HXT, NULL, __HSI, __LIRC, NULL, NULL, NULL, __HIRC};
  26:./bsp/system_NUC131.c **** 
  27:./bsp/system_NUC131.c **** 
  28:./bsp/system_NUC131.c **** /*----------------------------------------------------------------------------
  29:./bsp/system_NUC131.c ****   Clock functions
  30:./bsp/system_NUC131.c ****   This function is used to update the variable SystemCoreClock
  31:./bsp/system_NUC131.c ****   and must be called whenever the core clock is changed.
  32:./bsp/system_NUC131.c ****  *----------------------------------------------------------------------------*/
  33:./bsp/system_NUC131.c **** void SystemCoreClockUpdate(void)             /* Get Core Clock Frequency      */
  34:./bsp/system_NUC131.c **** {
  29              		.loc 1 34 0
  30              		.cfi_startproc
  31              		@ args = 0, pretend = 0, frame = 8
  32              		@ frame_needed = 0, uses_anonymous_args = 0
  33              	.LVL0:
  34 0000 37B5     		push	{r0, r1, r2, r4, r5, lr}
  35              	.LCFI0:
  36              		.cfi_def_cfa_offset 24
  37              		.cfi_offset 0, -24
  38              		.cfi_offset 1, -20
  39              		.cfi_offset 2, -16
  40              		.cfi_offset 4, -12
  41              		.cfi_offset 5, -8
  42              		.cfi_offset 14, -4
  43              	.LBB6:
  44              	.LBB7:
  45              		.file 2 "./bsp/inc/CLK.h"
   1:./bsp/inc/CLK.h **** /**************************************************************************//**
   2:./bsp/inc/CLK.h ****  * @file     clk.h
   3:./bsp/inc/CLK.h ****  * @version  V3.0
   4:./bsp/inc/CLK.h ****  * $Revision: 10 $
   5:./bsp/inc/CLK.h ****  * $Date: 14/06/25 10:26a $
   6:./bsp/inc/CLK.h ****  * @brief    NUC131 Series Clock Control Driver Header File
   7:./bsp/inc/CLK.h ****  *
   8:./bsp/inc/CLK.h ****  * @note
   9:./bsp/inc/CLK.h ****  * Copyright (C) 2014 Nuvoton Technology Corp. All rights reserved.
  10:./bsp/inc/CLK.h ****  *
  11:./bsp/inc/CLK.h ****  ******************************************************************************/
  12:./bsp/inc/CLK.h **** #ifndef __CLK_H__
  13:./bsp/inc/CLK.h **** #define __CLK_H__
  14:./bsp/inc/CLK.h **** 
  15:./bsp/inc/CLK.h **** #ifdef __cplusplus
  16:./bsp/inc/CLK.h **** extern "C"
  17:./bsp/inc/CLK.h **** {
  18:./bsp/inc/CLK.h **** #endif
  19:./bsp/inc/CLK.h **** 
  20:./bsp/inc/CLK.h **** /** @addtogroup NUC131_Device_Driver NUC131 Device Driver
  21:./bsp/inc/CLK.h ****   @{
  22:./bsp/inc/CLK.h **** */
  23:./bsp/inc/CLK.h **** 
  24:./bsp/inc/CLK.h **** /** @addtogroup NUC131_CLK_Driver CLK Driver
  25:./bsp/inc/CLK.h ****   @{
  26:./bsp/inc/CLK.h **** */
  27:./bsp/inc/CLK.h **** 
  28:./bsp/inc/CLK.h **** /** @addtogroup NUC131_CLK_EXPORTED_CONSTANTS CLK Exported Constants
  29:./bsp/inc/CLK.h ****   @{
  30:./bsp/inc/CLK.h **** */
  31:./bsp/inc/CLK.h **** 
  32:./bsp/inc/CLK.h **** #define FREQ_25MHZ         25000000
  33:./bsp/inc/CLK.h **** #define FREQ_50MHZ         50000000
  34:./bsp/inc/CLK.h **** #define FREQ_100MHZ       100000000
  35:./bsp/inc/CLK.h **** #define FREQ_200MHZ       200000000
  36:./bsp/inc/CLK.h **** 
  37:./bsp/inc/CLK.h **** /*-------------------------------------------------------------------------------------------------
  38:./bsp/inc/CLK.h **** /*  PWRCON constant definitions.                                                                   
  39:./bsp/inc/CLK.h **** /*-------------------------------------------------------------------------------------------------
  40:./bsp/inc/CLK.h **** #define CLK_PWRCON_HXT_EN       (0x01UL<<CLK_PWRCON_XTL12M_EN_Pos) /*!< Enable 4~24 MHz External Hi
  41:./bsp/inc/CLK.h **** #define CLK_PWRCON_HIRC_EN      (0x01UL<<CLK_PWRCON_OSC22M_EN_Pos) /*!< Enable 22.1184 MHz Internal
  42:./bsp/inc/CLK.h **** #define CLK_PWRCON_LIRC_EN      (0x01UL<<CLK_PWRCON_OSC10K_EN_Pos) /*!< Enable 10 kHz Internal Low 
  43:./bsp/inc/CLK.h **** 
  44:./bsp/inc/CLK.h **** 
  45:./bsp/inc/CLK.h **** /*-------------------------------------------------------------------------------------------------
  46:./bsp/inc/CLK.h **** /*  CLKSEL0 constant definitions.                                                                  
  47:./bsp/inc/CLK.h **** /*-------------------------------------------------------------------------------------------------
  48:./bsp/inc/CLK.h **** #define CLK_CLKSEL0_HCLK_S_HXT          (0x0UL<<CLK_CLKSEL0_HCLK_S_Pos)   /*!< Setting HCLK clock s
  49:./bsp/inc/CLK.h **** #define CLK_CLKSEL0_HCLK_S_PLL          (0x2UL<<CLK_CLKSEL0_HCLK_S_Pos)   /*!< Setting HCLK clock s
  50:./bsp/inc/CLK.h **** #define CLK_CLKSEL0_HCLK_S_LIRC         (0x3UL<<CLK_CLKSEL0_HCLK_S_Pos)   /*!< Setting HCLK clock s
  51:./bsp/inc/CLK.h **** #define CLK_CLKSEL0_HCLK_S_HIRC         (0x7UL<<CLK_CLKSEL0_HCLK_S_Pos)   /*!< Setting HCLK clock s
  52:./bsp/inc/CLK.h **** 
  53:./bsp/inc/CLK.h **** #define CLK_CLKSEL0_STCLK_S_HXT         (0x0UL<<CLK_CLKSEL0_STCLK_S_Pos)  /*!< Setting STCLK clock 
  54:./bsp/inc/CLK.h **** #define CLK_CLKSEL0_STCLK_S_HXT_DIV2    (0x2UL<<CLK_CLKSEL0_STCLK_S_Pos)  /*!< Setting STCLK clock 
  55:./bsp/inc/CLK.h **** #define CLK_CLKSEL0_STCLK_S_HCLK_DIV2   (0x3UL<<CLK_CLKSEL0_STCLK_S_Pos)  /*!< Setting STCLK clock 
  56:./bsp/inc/CLK.h **** #define CLK_CLKSEL0_STCLK_S_HIRC_DIV2   (0x7UL<<CLK_CLKSEL0_STCLK_S_Pos)  /*!< Setting STCLK clock 
  57:./bsp/inc/CLK.h **** 
  58:./bsp/inc/CLK.h **** 
  59:./bsp/inc/CLK.h **** /*-------------------------------------------------------------------------------------------------
  60:./bsp/inc/CLK.h **** /*  CLKSEL1 constant definitions.                                                                  
  61:./bsp/inc/CLK.h **** /*-------------------------------------------------------------------------------------------------
  62:./bsp/inc/CLK.h **** #define CLK_CLKSEL1_WDT_S_LXT           (0x1UL<<CLK_CLKSEL1_WDT_S_Pos)    /*!< Setting WDT clock so
  63:./bsp/inc/CLK.h **** #define CLK_CLKSEL1_WDT_S_HCLK_DIV2048  (0x2UL<<CLK_CLKSEL1_WDT_S_Pos)    /*!< Setting WDT clock so
  64:./bsp/inc/CLK.h **** #define CLK_CLKSEL1_WDT_S_LIRC          (0x3UL<<CLK_CLKSEL1_WDT_S_Pos)    /*!< Setting WDT clock so
  65:./bsp/inc/CLK.h **** 
  66:./bsp/inc/CLK.h **** #define CLK_CLKSEL1_ADC_S_HXT           (0x0UL<<CLK_CLKSEL1_ADC_S_Pos)    /*!< Setting ADC clock so
  67:./bsp/inc/CLK.h **** #define CLK_CLKSEL1_ADC_S_PLL           (0x1UL<<CLK_CLKSEL1_ADC_S_Pos)    /*!< Setting ADC clock so
  68:./bsp/inc/CLK.h **** #define CLK_CLKSEL1_ADC_S_HCLK          (0x2UL<<CLK_CLKSEL1_ADC_S_Pos)    /*!< Setting ADC clock so
  69:./bsp/inc/CLK.h **** #define CLK_CLKSEL1_ADC_S_HIRC          (0x3UL<<CLK_CLKSEL1_ADC_S_Pos)    /*!< Setting ADC clock so
  70:./bsp/inc/CLK.h **** 
  71:./bsp/inc/CLK.h **** #define CLK_CLKSEL1_SPI0_S_PLL          (0x0UL<<CLK_CLKSEL1_SPI0_S_Pos)   /*!< Setting SPI0 clock s
  72:./bsp/inc/CLK.h **** #define CLK_CLKSEL1_SPI0_S_HCLK         (0x1UL<<CLK_CLKSEL1_SPI0_S_Pos)   /*!< Setting SPI0 clock s
  73:./bsp/inc/CLK.h **** 
  74:./bsp/inc/CLK.h **** #define CLK_CLKSEL1_TMR0_S_HXT          (0x0UL<<CLK_CLKSEL1_TMR0_S_Pos)   /*!< Setting TMR0 clock s
  75:./bsp/inc/CLK.h **** #define CLK_CLKSEL1_TMR0_S_HCLK         (0x2UL<<CLK_CLKSEL1_TMR0_S_Pos)   /*!< Setting TMR0 clock s
  76:./bsp/inc/CLK.h **** #define CLK_CLKSEL1_TMR0_S_EXT_TRG      (0x3UL<<CLK_CLKSEL1_TMR0_S_Pos)   /*!< Setting TMR0 clock s
  77:./bsp/inc/CLK.h **** #define CLK_CLKSEL1_TMR0_S_LIRC         (0x5UL<<CLK_CLKSEL1_TMR0_S_Pos)   /*!< Setting TMR0 clock s
  78:./bsp/inc/CLK.h **** #define CLK_CLKSEL1_TMR0_S_HIRC         (0x7UL<<CLK_CLKSEL1_TMR0_S_Pos)   /*!< Setting TMR0 clock s
  79:./bsp/inc/CLK.h **** #define CLK_CLKSEL1_TMR1_S_HXT          (0x0UL<<CLK_CLKSEL1_TMR1_S_Pos)   /*!< Setting TMR1 clock s
  80:./bsp/inc/CLK.h **** #define CLK_CLKSEL1_TMR1_S_HCLK         (0x2UL<<CLK_CLKSEL1_TMR1_S_Pos)   /*!< Setting TMR1 clock s
  81:./bsp/inc/CLK.h **** #define CLK_CLKSEL1_TMR1_S_EXT_TRG      (0x3UL<<CLK_CLKSEL1_TMR1_S_Pos)   /*!< Setting TMR1 clock s
  82:./bsp/inc/CLK.h **** #define CLK_CLKSEL1_TMR1_S_LIRC         (0x5UL<<CLK_CLKSEL1_TMR1_S_Pos)   /*!< Setting TMR1 clock s
  83:./bsp/inc/CLK.h **** #define CLK_CLKSEL1_TMR1_S_HIRC         (0x7UL<<CLK_CLKSEL1_TMR1_S_Pos)   /*!< Setting TMR1 clock s
  84:./bsp/inc/CLK.h **** #define CLK_CLKSEL1_TMR2_S_HXT          (0x0UL<<CLK_CLKSEL1_TMR2_S_Pos)   /*!< Setting TMR2 clock s
  85:./bsp/inc/CLK.h **** #define CLK_CLKSEL1_TMR2_S_HCLK         (0x2UL<<CLK_CLKSEL1_TMR2_S_Pos)   /*!< Setting TMR2 clock s
  86:./bsp/inc/CLK.h **** #define CLK_CLKSEL1_TMR2_S_EXT_TRG      (0x3UL<<CLK_CLKSEL1_TMR2_S_Pos)   /*!< Setting TMR2 clock s
  87:./bsp/inc/CLK.h **** #define CLK_CLKSEL1_TMR2_S_LIRC         (0x5UL<<CLK_CLKSEL1_TMR2_S_Pos)   /*!< Setting TMR2 clock s
  88:./bsp/inc/CLK.h **** #define CLK_CLKSEL1_TMR2_S_HIRC         (0x7UL<<CLK_CLKSEL1_TMR2_S_Pos)   /*!< Setting TMR2 clock s
  89:./bsp/inc/CLK.h **** #define CLK_CLKSEL1_TMR3_S_HXT          (0x0UL<<CLK_CLKSEL1_TMR3_S_Pos)   /*!< Setting TMR3 clock s
  90:./bsp/inc/CLK.h **** #define CLK_CLKSEL1_TMR3_S_HCLK         (0x2UL<<CLK_CLKSEL1_TMR3_S_Pos)   /*!< Setting TMR3 clock s
  91:./bsp/inc/CLK.h **** #define CLK_CLKSEL1_TMR3_S_EXT_TRG      (0x3UL<<CLK_CLKSEL1_TMR3_S_Pos)   /*!< Setting TMR3 clock s
  92:./bsp/inc/CLK.h **** #define CLK_CLKSEL1_TMR3_S_LIRC         (0x5UL<<CLK_CLKSEL1_TMR3_S_Pos)   /*!< Setting TMR3 clock s
  93:./bsp/inc/CLK.h **** #define CLK_CLKSEL1_TMR3_S_HIRC         (0x7UL<<CLK_CLKSEL1_TMR3_S_Pos)   /*!< Setting TMR3 clock s
  94:./bsp/inc/CLK.h **** 
  95:./bsp/inc/CLK.h **** #define CLK_CLKSEL1_UART_S_HXT          (0x0UL<<CLK_CLKSEL1_UART_S_Pos)   /*!< Setting UART clock s
  96:./bsp/inc/CLK.h **** #define CLK_CLKSEL1_UART_S_PLL          (0x1UL<<CLK_CLKSEL1_UART_S_Pos)   /*!< Setting UART clock s
  97:./bsp/inc/CLK.h **** #define CLK_CLKSEL1_UART_S_HIRC         (0x3UL<<CLK_CLKSEL1_UART_S_Pos)   /*!< Setting UART clock s
  98:./bsp/inc/CLK.h **** 
  99:./bsp/inc/CLK.h **** 
 100:./bsp/inc/CLK.h **** /*-------------------------------------------------------------------------------------------------
 101:./bsp/inc/CLK.h **** /*  CLKSEL2 constant definitions.                                                                  
 102:./bsp/inc/CLK.h **** /*-------------------------------------------------------------------------------------------------
 103:./bsp/inc/CLK.h **** #define CLK_CLKSEL2_FRQDIV_S_HXT        (0x0UL<<CLK_CLKSEL2_FRQDIV_S_Pos) /*!< Setting FRQDIV clock
 104:./bsp/inc/CLK.h **** #define CLK_CLKSEL2_FRQDIV_S_HCLK       (0x2UL<<CLK_CLKSEL2_FRQDIV_S_Pos) /*!< Setting FRQDIV clock
 105:./bsp/inc/CLK.h **** #define CLK_CLKSEL2_FRQDIV_S_HIRC       (0x3UL<<CLK_CLKSEL2_FRQDIV_S_Pos) /*!< Setting FRQDIV clock
 106:./bsp/inc/CLK.h **** 
 107:./bsp/inc/CLK.h **** #define CLK_CLKSEL2_WWDT_S_HCLK_DIV2048 (0x2UL<<CLK_CLKSEL2_WWDT_S_Pos)   /*!< Setting WWDT clock s
 108:./bsp/inc/CLK.h **** #define CLK_CLKSEL2_WWDT_S_LIRC         (0x3UL<<CLK_CLKSEL2_WWDT_S_Pos)   /*!< Setting WWDT clock s
 109:./bsp/inc/CLK.h **** 
 110:./bsp/inc/CLK.h **** 
 111:./bsp/inc/CLK.h **** /*-------------------------------------------------------------------------------------------------
 112:./bsp/inc/CLK.h **** /*  CLKSEL3 constant definitions.                                                                  
 113:./bsp/inc/CLK.h **** /*-------------------------------------------------------------------------------------------------
 114:./bsp/inc/CLK.h **** #define CLK_CLKSEL3_PWM0_S_PLL          (0x0UL<<CLK_CLKSEL3_PWM0_S_Pos)    /*!< Setting PWM0 clock 
 115:./bsp/inc/CLK.h **** #define CLK_CLKSEL3_PWM0_S_PCLK         (0x1UL<<CLK_CLKSEL3_PWM0_S_Pos)    /*!< Setting PWM0 clock 
 116:./bsp/inc/CLK.h **** #define CLK_CLKSEL3_PWM1_S_PLL          (0x0UL<<CLK_CLKSEL3_PWM1_S_Pos)    /*!< Setting PWM1 clock 
 117:./bsp/inc/CLK.h **** #define CLK_CLKSEL3_PWM1_S_PCLK         (0x1UL<<CLK_CLKSEL3_PWM1_S_Pos)    /*!< Setting PWM1 clock 
 118:./bsp/inc/CLK.h **** 
 119:./bsp/inc/CLK.h **** #define CLK_CLKSEL3_BPWM0_S_PLL         (0x0UL<<CLK_CLKSEL3_BPWM0_S_Pos)    /*!< Setting BPWM0 cloc
 120:./bsp/inc/CLK.h **** #define CLK_CLKSEL3_BPWM0_S_PCLK        (0x1UL<<CLK_CLKSEL3_BPWM0_S_Pos)    /*!< Setting BPWM0 cloc
 121:./bsp/inc/CLK.h **** #define CLK_CLKSEL3_BPWM1_S_PLL         (0x0UL<<CLK_CLKSEL3_BPWM1_S_Pos)    /*!< Setting BPWM1 cloc
 122:./bsp/inc/CLK.h **** #define CLK_CLKSEL3_BPWM1_S_PCLK        (0x1UL<<CLK_CLKSEL3_BPWM1_S_Pos)    /*!< Setting BPWM1 cloc
 123:./bsp/inc/CLK.h **** 
 124:./bsp/inc/CLK.h **** 
 125:./bsp/inc/CLK.h **** /*-------------------------------------------------------------------------------------------------
 126:./bsp/inc/CLK.h **** /*  CLKDIV constant definitions.                                                                   
 127:./bsp/inc/CLK.h **** /*-------------------------------------------------------------------------------------------------
 128:./bsp/inc/CLK.h **** #define CLK_CLKDIV_HCLK(x)  ((x)-1)                             /*!< CLKDIV Setting for HCLK clock 
 129:./bsp/inc/CLK.h **** #define CLK_CLKDIV_UART(x) (((x)-1) << CLK_CLKDIV_UART_N_Pos)   /*!< CLKDIV Setting for UART clock 
 130:./bsp/inc/CLK.h **** #define CLK_CLKDIV_ADC(x)  (((x)-1) << CLK_CLKDIV_ADC_N_Pos)    /*!< CLKDIV Setting for ADC clock d
 131:./bsp/inc/CLK.h **** 
 132:./bsp/inc/CLK.h **** 
 133:./bsp/inc/CLK.h **** /*-------------------------------------------------------------------------------------------------
 134:./bsp/inc/CLK.h **** /*  PLLCON constant definitions. PLL = FIN * NF / NR / NO                                          
 135:./bsp/inc/CLK.h **** /*-------------------------------------------------------------------------------------------------
 136:./bsp/inc/CLK.h **** #define CLK_PLLCON_PLL_SRC_HXT   0x00000000UL    /*!< For PLL clock source is HXT.  3.2MHz < FIN < 
 137:./bsp/inc/CLK.h **** #define CLK_PLLCON_PLL_SRC_HIRC  0x00080000UL    /*!< For PLL clock source is HIRC. 3.2MHz < FIN < 
 138:./bsp/inc/CLK.h **** 
 139:./bsp/inc/CLK.h **** #define CLK_PLLCON_NR(x)         (((x)-2)<<9)    /*!< x must be constant and 2 <= x <= 33.  1.6MHz 
 140:./bsp/inc/CLK.h **** #define CLK_PLLCON_NF(x)          ((x)-2)        /*!< x must be constant and 2 <= x <= 513. 100MHz 
 141:./bsp/inc/CLK.h **** 
 142:./bsp/inc/CLK.h **** #define CLK_PLLCON_NO_1          0x0000UL        /*!< For output divider is 1 */
 143:./bsp/inc/CLK.h **** #define CLK_PLLCON_NO_2          0x4000UL        /*!< For output divider is 2 */
 144:./bsp/inc/CLK.h **** #define CLK_PLLCON_NO_4          0xC000UL        /*!< For output divider is 4 */
 145:./bsp/inc/CLK.h **** 
 146:./bsp/inc/CLK.h **** #if (__HXT == 12000000)
 147:./bsp/inc/CLK.h **** #define CLK_PLLCON_50MHz_HXT   (CLK_PLLCON_PLL_SRC_HXT | CLK_PLLCON_NR(3) | CLK_PLLCON_NF( 25) | CL
 148:./bsp/inc/CLK.h **** #define CLK_PLLCON_48MHz_HXT   (CLK_PLLCON_PLL_SRC_HXT | CLK_PLLCON_NR(7) | CLK_PLLCON_NF(112) | CL
 149:./bsp/inc/CLK.h **** #define CLK_PLLCON_36MHz_HXT   (CLK_PLLCON_PLL_SRC_HXT | CLK_PLLCON_NR(7) | CLK_PLLCON_NF( 84) | CL
 150:./bsp/inc/CLK.h **** #define CLK_PLLCON_32MHz_HXT   (CLK_PLLCON_PLL_SRC_HXT | CLK_PLLCON_NR(6) | CLK_PLLCON_NF( 64) | CL
 151:./bsp/inc/CLK.h **** #define CLK_PLLCON_24MHz_HXT   (CLK_PLLCON_PLL_SRC_HXT | CLK_PLLCON_NR(2) | CLK_PLLCON_NF( 16) | CL
 152:./bsp/inc/CLK.h **** #else
 153:./bsp/inc/CLK.h **** # error "The PLL pre-definitions are only valid when external crystal is 12MHz"
 154:./bsp/inc/CLK.h **** #endif
 155:./bsp/inc/CLK.h **** 
 156:./bsp/inc/CLK.h **** #define CLK_PLLCON_50MHz_HIRC (CLK_PLLCON_PLL_SRC_HIRC | CLK_PLLCON_NR(13) | CLK_PLLCON_NF( 59) | C
 157:./bsp/inc/CLK.h **** #define CLK_PLLCON_48MHz_HIRC (CLK_PLLCON_PLL_SRC_HIRC | CLK_PLLCON_NR(13) | CLK_PLLCON_NF(113) | C
 158:./bsp/inc/CLK.h **** #define CLK_PLLCON_36MHz_HIRC (CLK_PLLCON_PLL_SRC_HIRC | CLK_PLLCON_NR(12) | CLK_PLLCON_NF( 78) | C
 159:./bsp/inc/CLK.h **** #define CLK_PLLCON_32MHz_HIRC (CLK_PLLCON_PLL_SRC_HIRC | CLK_PLLCON_NR( 9) | CLK_PLLCON_NF( 52) | C
 160:./bsp/inc/CLK.h **** #define CLK_PLLCON_24MHz_HIRC (CLK_PLLCON_PLL_SRC_HIRC | CLK_PLLCON_NR( 3) | CLK_PLLCON_NF( 13) | C
 161:./bsp/inc/CLK.h **** 
 162:./bsp/inc/CLK.h **** 
 163:./bsp/inc/CLK.h **** /*-------------------------------------------------------------------------------------------------
 164:./bsp/inc/CLK.h **** /*  MODULE constant definitions.                                                                   
 165:./bsp/inc/CLK.h **** /*-------------------------------------------------------------------------------------------------
 166:./bsp/inc/CLK.h **** 
 167:./bsp/inc/CLK.h **** /* APBCLK(31:30)|CLKSEL(29:28)|CLKSEL_Msk(27:25) |CLKSEL_Pos(24:20)|CLKDIV(19:18)|CLKDIV_Msk(17:10)
 168:./bsp/inc/CLK.h **** 
 169:./bsp/inc/CLK.h **** #define MODULE_APBCLK(x)        (((x) >>30) & 0x3)    /*!< Calculate APBCLK offset on MODULE index,
 170:./bsp/inc/CLK.h **** #define MODULE_CLKSEL(x)        (((x) >>28) & 0x3)    /*!< Calculate CLKSEL offset on MODULE index,
 171:./bsp/inc/CLK.h **** #define MODULE_CLKSEL_Msk(x)    (((x) >>25) & 0x7)    /*!< Calculate CLKSEL mask offset on MODULE i
 172:./bsp/inc/CLK.h **** #define MODULE_CLKSEL_Pos(x)    (((x) >>20) & 0x1f)   /*!< Calculate CLKSEL position offset on MODU
 173:./bsp/inc/CLK.h **** #define MODULE_CLKDIV(x)        (((x) >>18) & 0x3)    /*!< Calculate APBCLK CLKDIV on MODULE index,
 174:./bsp/inc/CLK.h **** #define MODULE_CLKDIV_Msk(x)    (((x) >>10) & 0xff)   /*!< Calculate CLKDIV mask offset on MODULE i
 175:./bsp/inc/CLK.h **** #define MODULE_CLKDIV_Pos(x)    (((x) >>5 ) & 0x1f)   /*!< Calculate CLKDIV position offset on MODU
 176:./bsp/inc/CLK.h **** #define MODULE_IP_EN_Pos(x)     (((x) >>0 ) & 0x1f)   /*!< Calculate APBCLK offset on MODULE index 
 177:./bsp/inc/CLK.h **** #define MODULE_NoMsk            0x0                 /*!< Not mask on MODULE index */
 178:./bsp/inc/CLK.h **** #define NA                      MODULE_NoMsk        /*!< Not Available */
 179:./bsp/inc/CLK.h **** 
 180:./bsp/inc/CLK.h **** #define MODULE_APBCLK_ENC(x)        (((x) & 0x03) << 30)   /*!< MODULE index, 0x0:AHBCLK, 0x1:APBCL
 181:./bsp/inc/CLK.h **** #define MODULE_CLKSEL_ENC(x)        (((x) & 0x03) << 28)   /*!< CLKSEL offset on MODULE index, 0x0:
 182:./bsp/inc/CLK.h **** #define MODULE_CLKSEL_Msk_ENC(x)    (((x) & 0x07) << 25)   /*!< CLKSEL mask offset on MODULE index 
 183:./bsp/inc/CLK.h **** #define MODULE_CLKSEL_Pos_ENC(x)    (((x) & 0x1f) << 20)   /*!< CLKSEL position offset on MODULE in
 184:./bsp/inc/CLK.h **** #define MODULE_CLKDIV_ENC(x)        (((x) & 0x03) << 18)   /*!< APBCLK CLKDIV on MODULE index, 0x0:
 185:./bsp/inc/CLK.h **** #define MODULE_CLKDIV_Msk_ENC(x)    (((x) & 0xff) << 10)   /*!< CLKDIV mask offset on MODULE index 
 186:./bsp/inc/CLK.h **** #define MODULE_CLKDIV_Pos_ENC(x)    (((x) & 0x1f) <<  5)   /*!< CLKDIV position offset on MODULE in
 187:./bsp/inc/CLK.h **** #define MODULE_IP_EN_Pos_ENC(x)     (((x) & 0x1f) <<  0)   /*!< APBCLK offset on MODULE index */
 188:./bsp/inc/CLK.h **** 
 189:./bsp/inc/CLK.h **** 
 190:./bsp/inc/CLK.h **** #define ISP_MODULE     (MODULE_APBCLK_ENC( 0)|MODULE_IP_EN_Pos_ENC(CLK_AHBCLK_ISP_EN_Pos)  |\
 191:./bsp/inc/CLK.h ****                         MODULE_CLKSEL_ENC(NA)|MODULE_CLKSEL_Msk_ENC(NA)|MODULE_CLKSEL_Pos_ENC(NA)|\
 192:./bsp/inc/CLK.h ****                         MODULE_CLKDIV_ENC(NA)|MODULE_CLKDIV_Msk_ENC(NA)|MODULE_CLKDIV_Pos_ENC(NA)) 
 193:./bsp/inc/CLK.h **** 
 194:./bsp/inc/CLK.h **** #define WDT_MODULE     (MODULE_APBCLK_ENC( 1)|MODULE_IP_EN_Pos_ENC(CLK_APBCLK_WDT_EN_Pos)  |\
 195:./bsp/inc/CLK.h ****                         MODULE_CLKSEL_ENC( 1)|MODULE_CLKSEL_Msk_ENC( 3)|MODULE_CLKSEL_Pos_ENC( 0)|\
 196:./bsp/inc/CLK.h ****                         MODULE_CLKDIV_ENC(NA)|MODULE_CLKDIV_Msk_ENC(NA)|MODULE_CLKDIV_Pos_ENC(NA)) 
 197:./bsp/inc/CLK.h **** 
 198:./bsp/inc/CLK.h **** #define TMR0_MODULE    (MODULE_APBCLK_ENC( 1)|MODULE_IP_EN_Pos_ENC(CLK_APBCLK_TMR0_EN_Pos) |\
 199:./bsp/inc/CLK.h ****                         MODULE_CLKSEL_ENC( 1)|MODULE_CLKSEL_Msk_ENC( 7)|MODULE_CLKSEL_Pos_ENC( 8)|\
 200:./bsp/inc/CLK.h ****                         MODULE_CLKDIV_ENC(NA)|MODULE_CLKDIV_Msk_ENC(NA)|MODULE_CLKDIV_Pos_ENC(NA)) 
 201:./bsp/inc/CLK.h **** 
 202:./bsp/inc/CLK.h **** #define TMR1_MODULE    (MODULE_APBCLK_ENC( 1)|MODULE_IP_EN_Pos_ENC(CLK_APBCLK_TMR1_EN_Pos) |\
 203:./bsp/inc/CLK.h ****                         MODULE_CLKSEL_ENC( 1)|MODULE_CLKSEL_Msk_ENC( 7)|MODULE_CLKSEL_Pos_ENC(12)|\
 204:./bsp/inc/CLK.h ****                         MODULE_CLKDIV_ENC(NA)|MODULE_CLKDIV_Msk_ENC(NA)|MODULE_CLKDIV_Pos_ENC(NA)) 
 205:./bsp/inc/CLK.h **** 
 206:./bsp/inc/CLK.h **** #define TMR2_MODULE    (MODULE_APBCLK_ENC( 1)|MODULE_IP_EN_Pos_ENC(CLK_APBCLK_TMR2_EN_Pos) |\
 207:./bsp/inc/CLK.h ****                         MODULE_CLKSEL_ENC( 1)|MODULE_CLKSEL_Msk_ENC( 7)|MODULE_CLKSEL_Pos_ENC(16)|\
 208:./bsp/inc/CLK.h ****                         MODULE_CLKDIV_ENC(NA)|MODULE_CLKDIV_Msk_ENC(NA)|MODULE_CLKDIV_Pos_ENC(NA)) 
 209:./bsp/inc/CLK.h **** 
 210:./bsp/inc/CLK.h **** #define TMR3_MODULE    (MODULE_APBCLK_ENC( 1)|MODULE_IP_EN_Pos_ENC(CLK_APBCLK_TMR3_EN_Pos) |\
 211:./bsp/inc/CLK.h ****                         MODULE_CLKSEL_ENC( 1)|MODULE_CLKSEL_Msk_ENC( 7)|MODULE_CLKSEL_Pos_ENC(20)|\
 212:./bsp/inc/CLK.h ****                         MODULE_CLKDIV_ENC(NA)|MODULE_CLKDIV_Msk_ENC(NA)|MODULE_CLKDIV_Pos_ENC(NA)) 
 213:./bsp/inc/CLK.h **** 
 214:./bsp/inc/CLK.h **** #define FDIV_MODULE    (MODULE_APBCLK_ENC( 1)|MODULE_IP_EN_Pos_ENC(CLK_APBCLK_FDIV_EN_Pos) |\
 215:./bsp/inc/CLK.h ****                         MODULE_CLKSEL_ENC( 2)|MODULE_CLKSEL_Msk_ENC( 3)|MODULE_CLKSEL_Pos_ENC( 2)|\
 216:./bsp/inc/CLK.h ****                         MODULE_CLKDIV_ENC(NA)|MODULE_CLKDIV_Msk_ENC(NA)|MODULE_CLKDIV_Pos_ENC(NA)) 
 217:./bsp/inc/CLK.h **** 
 218:./bsp/inc/CLK.h **** #define I2C0_MODULE    (MODULE_APBCLK_ENC( 1)|MODULE_IP_EN_Pos_ENC(CLK_APBCLK_I2C0_EN_Pos) |\
 219:./bsp/inc/CLK.h ****                         MODULE_CLKSEL_ENC(NA)|MODULE_CLKSEL_Msk_ENC(NA)|MODULE_CLKSEL_Pos_ENC(NA)|\
 220:./bsp/inc/CLK.h ****                         MODULE_CLKDIV_ENC(NA)|MODULE_CLKDIV_Msk_ENC(NA)|MODULE_CLKDIV_Pos_ENC(NA)) 
 221:./bsp/inc/CLK.h **** 
 222:./bsp/inc/CLK.h **** #define I2C1_MODULE    (MODULE_APBCLK_ENC( 1)|MODULE_IP_EN_Pos_ENC(CLK_APBCLK_I2C1_EN_Pos) |\
 223:./bsp/inc/CLK.h ****                         MODULE_CLKSEL_ENC(NA)|MODULE_CLKSEL_Msk_ENC(NA)|MODULE_CLKSEL_Pos_ENC(NA)|\
 224:./bsp/inc/CLK.h ****                         MODULE_CLKDIV_ENC(NA)|MODULE_CLKDIV_Msk_ENC(NA)|MODULE_CLKDIV_Pos_ENC(NA)) 
 225:./bsp/inc/CLK.h **** 
 226:./bsp/inc/CLK.h **** #define SPI0_MODULE    (MODULE_APBCLK_ENC( 1)|MODULE_IP_EN_Pos_ENC(CLK_APBCLK_SPI0_EN_Pos) |\
 227:./bsp/inc/CLK.h ****                         MODULE_CLKSEL_ENC( 1)|MODULE_CLKSEL_Msk_ENC( 1)|MODULE_CLKSEL_Pos_ENC( 4)|\
 228:./bsp/inc/CLK.h ****                         MODULE_CLKDIV_ENC(NA)|MODULE_CLKDIV_Msk_ENC(NA)|MODULE_CLKDIV_Pos_ENC(NA)) 
 229:./bsp/inc/CLK.h **** 
 230:./bsp/inc/CLK.h **** #define UART0_MODULE   (MODULE_APBCLK_ENC( 1)|MODULE_IP_EN_Pos_ENC(CLK_APBCLK_UART0_EN_Pos)|\
 231:./bsp/inc/CLK.h ****                         MODULE_CLKSEL_ENC( 1)|MODULE_CLKSEL_Msk_ENC( 3)|MODULE_CLKSEL_Pos_ENC(24)|\
 232:./bsp/inc/CLK.h ****                         MODULE_CLKDIV_ENC( 0)|MODULE_CLKDIV_Msk_ENC(0x0F)|MODULE_CLKDIV_Pos_ENC( 8)
 233:./bsp/inc/CLK.h **** 
 234:./bsp/inc/CLK.h **** #define UART1_MODULE   (MODULE_APBCLK_ENC( 1)|MODULE_IP_EN_Pos_ENC(CLK_APBCLK_UART1_EN_Pos)|\
 235:./bsp/inc/CLK.h ****                         MODULE_CLKSEL_ENC( 1)|MODULE_CLKSEL_Msk_ENC( 3)|MODULE_CLKSEL_Pos_ENC(24)|\
 236:./bsp/inc/CLK.h ****                         MODULE_CLKDIV_ENC( 0)|MODULE_CLKDIV_Msk_ENC(0x0F)|MODULE_CLKDIV_Pos_ENC( 8)
 237:./bsp/inc/CLK.h **** 
 238:./bsp/inc/CLK.h **** #define UART2_MODULE   (MODULE_APBCLK_ENC( 1)|MODULE_IP_EN_Pos_ENC(CLK_APBCLK_UART2_EN_Pos)|\
 239:./bsp/inc/CLK.h ****                         MODULE_CLKSEL_ENC( 1)|MODULE_CLKSEL_Msk_ENC( 3)|MODULE_CLKSEL_Pos_ENC(24)|\
 240:./bsp/inc/CLK.h ****                         MODULE_CLKDIV_ENC( 0)|MODULE_CLKDIV_Msk_ENC(0x0F)|MODULE_CLKDIV_Pos_ENC( 8)
 241:./bsp/inc/CLK.h **** 
 242:./bsp/inc/CLK.h **** #define CAN0_MODULE    (MODULE_APBCLK_ENC( 1)|MODULE_IP_EN_Pos_ENC(CLK_APBCLK_CAN0_EN_Pos) |\
 243:./bsp/inc/CLK.h ****                         MODULE_CLKSEL_ENC(NA)|MODULE_CLKSEL_Msk_ENC(NA)|MODULE_CLKSEL_Pos_ENC(NA)|\
 244:./bsp/inc/CLK.h ****                         MODULE_CLKDIV_ENC(NA)|MODULE_CLKDIV_Msk_ENC(NA)|MODULE_CLKDIV_Pos_ENC(NA)) 
 245:./bsp/inc/CLK.h **** 
 246:./bsp/inc/CLK.h **** #define ADC_MODULE     (MODULE_APBCLK_ENC( 1)|MODULE_IP_EN_Pos_ENC(CLK_APBCLK_ADC_EN_Pos)  |\
 247:./bsp/inc/CLK.h ****                         MODULE_CLKSEL_ENC( 1)|MODULE_CLKSEL_Msk_ENC( 3)|MODULE_CLKSEL_Pos_ENC( 2)|\
 248:./bsp/inc/CLK.h ****                         MODULE_CLKDIV_ENC( 0)|MODULE_CLKDIV_Msk_ENC(0xFF)|MODULE_CLKDIV_Pos_ENC(16)
 249:./bsp/inc/CLK.h **** 
 250:./bsp/inc/CLK.h **** #define WWDT_MODULE    (MODULE_APBCLK_ENC( 1)|MODULE_IP_EN_Pos_ENC(CLK_APBCLK_WDT_EN_Pos) |\
 251:./bsp/inc/CLK.h ****                         MODULE_CLKSEL_ENC( 2)|MODULE_CLKSEL_Msk_ENC( 3)|MODULE_CLKSEL_Pos_ENC(16)|\
 252:./bsp/inc/CLK.h ****                         MODULE_CLKDIV_ENC(NA)|MODULE_CLKDIV_Msk_ENC(NA)|MODULE_CLKDIV_Pos_ENC(NA)) 
 253:./bsp/inc/CLK.h **** 
 254:./bsp/inc/CLK.h **** #define UART3_MODULE   (MODULE_APBCLK_ENC(2UL)|MODULE_IP_EN_Pos_ENC(CLK_APBCLK1_UART3_EN_Pos)|\
 255:./bsp/inc/CLK.h ****                         MODULE_CLKSEL_ENC( 1)|MODULE_CLKSEL_Msk_ENC( 3)|MODULE_CLKSEL_Pos_ENC(24)|\
 256:./bsp/inc/CLK.h ****                         MODULE_CLKDIV_ENC( 0)|MODULE_CLKDIV_Msk_ENC(0x0F)|MODULE_CLKDIV_Pos_ENC( 8)
 257:./bsp/inc/CLK.h **** 
 258:./bsp/inc/CLK.h **** #define UART4_MODULE   (MODULE_APBCLK_ENC(2UL)|MODULE_IP_EN_Pos_ENC(CLK_APBCLK1_UART4_EN_Pos)|\
 259:./bsp/inc/CLK.h ****                         MODULE_CLKSEL_ENC( 1)|MODULE_CLKSEL_Msk_ENC( 3)|MODULE_CLKSEL_Pos_ENC(24)|\
 260:./bsp/inc/CLK.h ****                         MODULE_CLKDIV_ENC( 0)|MODULE_CLKDIV_Msk_ENC(0x0F)|MODULE_CLKDIV_Pos_ENC( 8)
 261:./bsp/inc/CLK.h **** 
 262:./bsp/inc/CLK.h **** #define UART5_MODULE   (MODULE_APBCLK_ENC(2UL)|MODULE_IP_EN_Pos_ENC(CLK_APBCLK1_UART5_EN_Pos)|\
 263:./bsp/inc/CLK.h ****                         MODULE_CLKSEL_ENC( 1)|MODULE_CLKSEL_Msk_ENC( 3)|MODULE_CLKSEL_Pos_ENC(24)|\
 264:./bsp/inc/CLK.h ****                         MODULE_CLKDIV_ENC( 0)|MODULE_CLKDIV_Msk_ENC(0x0F)|MODULE_CLKDIV_Pos_ENC( 8)
 265:./bsp/inc/CLK.h **** 
 266:./bsp/inc/CLK.h **** #define PWM0_MODULE    (MODULE_APBCLK_ENC(2UL)|MODULE_IP_EN_Pos_ENC(CLK_APBCLK1_PWM0_EN_Pos)|\
 267:./bsp/inc/CLK.h ****                         MODULE_CLKSEL_ENC( 2)|MODULE_CLKSEL_Msk_ENC( 1)|MODULE_CLKSEL_Pos_ENC(16)|\
 268:./bsp/inc/CLK.h ****                         MODULE_CLKDIV_ENC(NA)|MODULE_CLKDIV_Msk_ENC(NA)|MODULE_CLKDIV_Pos_ENC(NA)) 
 269:./bsp/inc/CLK.h **** 
 270:./bsp/inc/CLK.h **** #define PWM1_MODULE    (MODULE_APBCLK_ENC(2UL)|MODULE_IP_EN_Pos_ENC(CLK_APBCLK1_PWM1_EN_Pos)|\
 271:./bsp/inc/CLK.h ****                         MODULE_CLKSEL_ENC( 2)|MODULE_CLKSEL_Msk_ENC( 1)|MODULE_CLKSEL_Pos_ENC(17)|\
 272:./bsp/inc/CLK.h ****                         MODULE_CLKDIV_ENC(NA)|MODULE_CLKDIV_Msk_ENC(NA)|MODULE_CLKDIV_Pos_ENC(NA)) 
 273:./bsp/inc/CLK.h **** 
 274:./bsp/inc/CLK.h **** #define BPWM0_MODULE   (MODULE_APBCLK_ENC(2UL)|MODULE_IP_EN_Pos_ENC(CLK_APBCLK1_BPWM0_EN_Pos)|\
 275:./bsp/inc/CLK.h ****                         MODULE_CLKSEL_ENC( 2)|MODULE_CLKSEL_Msk_ENC( 1)|MODULE_CLKSEL_Pos_ENC(17)|\
 276:./bsp/inc/CLK.h ****                         MODULE_CLKDIV_ENC(NA)|MODULE_CLKDIV_Msk_ENC(NA)|MODULE_CLKDIV_Pos_ENC(NA)) 
 277:./bsp/inc/CLK.h **** 
 278:./bsp/inc/CLK.h **** #define BPWM1_MODULE   (MODULE_APBCLK_ENC(2UL)|MODULE_IP_EN_Pos_ENC(CLK_APBCLK1_BPWM1_EN_Pos)|\
 279:./bsp/inc/CLK.h ****                         MODULE_CLKSEL_ENC( 2)|MODULE_CLKSEL_Msk_ENC( 1)|MODULE_CLKSEL_Pos_ENC(19)|\
 280:./bsp/inc/CLK.h ****                         MODULE_CLKDIV_ENC(NA)|MODULE_CLKDIV_Msk_ENC(NA)|MODULE_CLKDIV_Pos_ENC(NA)) 
 281:./bsp/inc/CLK.h **** 
 282:./bsp/inc/CLK.h **** 
 283:./bsp/inc/CLK.h **** /*@}*/ /* end of group NUC131_CLK_EXPORTED_CONSTANTS */
 284:./bsp/inc/CLK.h **** 
 285:./bsp/inc/CLK.h **** 
 286:./bsp/inc/CLK.h **** /** @addtogroup NUC131_CLK_EXPORTED_FUNCTIONS CLK Exported Functions
 287:./bsp/inc/CLK.h ****   @{
 288:./bsp/inc/CLK.h **** */
 289:./bsp/inc/CLK.h **** 
 290:./bsp/inc/CLK.h **** 
 291:./bsp/inc/CLK.h **** /**
 292:./bsp/inc/CLK.h ****   * @brief      Get PLL clock frequency
 293:./bsp/inc/CLK.h ****   * @param      None
 294:./bsp/inc/CLK.h ****   * @return     PLL frequency
 295:./bsp/inc/CLK.h ****   * @details    This function get PLL frequency. The frequency unit is Hz.
 296:./bsp/inc/CLK.h ****   */
 297:./bsp/inc/CLK.h **** __STATIC_INLINE uint32_t CLK_GetPLLClockFreq(void)
 298:./bsp/inc/CLK.h **** {
 299:./bsp/inc/CLK.h ****     uint32_t u32PllFreq = 0, u32PllReg;
 300:./bsp/inc/CLK.h ****     uint32_t u32FIN, u32NF, u32NR, u32NO;
 301:./bsp/inc/CLK.h ****     uint8_t au8NoTbl[4] = {1, 2, 2, 4};
  46              		.loc 2 301 0
  47 0002 01AD     		add	r5, sp, #4
  48 0004 0422     		movs	r2, #4
  49 0006 1C49     		ldr	r1, .L11
  50 0008 2800     		movs	r0, r5
  51 000a FFF7FEFF 		bl	memcpy
  52              	.LVL1:
 302:./bsp/inc/CLK.h **** 
 303:./bsp/inc/CLK.h ****     u32PllReg = CLK->PLLCON;
 304:./bsp/inc/CLK.h **** 
 305:./bsp/inc/CLK.h ****     if(u32PllReg & (CLK_PLLCON_PD_Msk | CLK_PLLCON_OE_Msk))
  53              		.loc 2 305 0
  54 000e A022     		movs	r2, #160
 303:./bsp/inc/CLK.h **** 
  55              		.loc 2 303 0
  56 0010 1A4C     		ldr	r4, .L11+4
  57              		.loc 2 305 0
  58 0012 D202     		lsls	r2, r2, #11
 303:./bsp/inc/CLK.h **** 
  59              		.loc 2 303 0
  60 0014 236A     		ldr	r3, [r4, #32]
  61              	.LVL2:
 306:./bsp/inc/CLK.h ****         return 0;           /* PLL is in power down mode or fix low */
  62              		.loc 2 306 0
  63 0016 0020     		movs	r0, #0
 305:./bsp/inc/CLK.h ****         return 0;           /* PLL is in power down mode or fix low */
  64              		.loc 2 305 0
  65 0018 1342     		tst	r3, r2
  66 001a 15D1     		bne	.L2
 307:./bsp/inc/CLK.h **** 
 308:./bsp/inc/CLK.h ****     if(u32PllReg & CLK_PLLCON_PLL_SRC_HIRC)
  67              		.loc 2 308 0
  68 001c 1A03     		lsls	r2, r3, #12
  69 001e 01D4     		bmi	.L6
 309:./bsp/inc/CLK.h ****         u32FIN = __HIRC;    /* PLL source clock from HIRC */
 310:./bsp/inc/CLK.h ****     else
 311:./bsp/inc/CLK.h ****         u32FIN = __HXT;     /* PLL source clock from HXT */
  70              		.loc 2 311 0
  71 0020 1748     		ldr	r0, .L11+8
  72 0022 00E0     		b	.L3
  73              	.L6:
 309:./bsp/inc/CLK.h ****         u32FIN = __HIRC;    /* PLL source clock from HIRC */
  74              		.loc 2 309 0
  75 0024 1748     		ldr	r0, .L11+12
  76              	.L3:
  77              	.LVL3:
 312:./bsp/inc/CLK.h **** 
 313:./bsp/inc/CLK.h ****     if(u32PllReg & CLK_PLLCON_BP_Msk)
  78              		.loc 2 313 0
  79 0026 9A03     		lsls	r2, r3, #14
  80 0028 0ED4     		bmi	.L2
  81              	.LVL4:
 314:./bsp/inc/CLK.h ****         return u32FIN;      /* PLL is in bypass mode */
 315:./bsp/inc/CLK.h **** 
 316:./bsp/inc/CLK.h ****     /* PLL is output enabled in normal work mode */
 317:./bsp/inc/CLK.h ****     u32NO = au8NoTbl[((u32PllReg & CLK_PLLCON_OUT_DV_Msk) >> CLK_PLLCON_OUT_DV_Pos)];
 318:./bsp/inc/CLK.h ****     u32NF = ((u32PllReg & CLK_PLLCON_FB_DV_Msk) >> CLK_PLLCON_FB_DV_Pos) + 2;
 319:./bsp/inc/CLK.h ****     u32NR = ((u32PllReg & CLK_PLLCON_IN_DV_Msk) >> CLK_PLLCON_IN_DV_Pos) + 2;
 320:./bsp/inc/CLK.h **** 
 321:./bsp/inc/CLK.h ****     /* u32FIN is shifted 2 bits to avoid overflow */
 322:./bsp/inc/CLK.h ****     u32PllFreq = (((u32FIN >> 2) * u32NF) / (u32NR * u32NO) << 2);
  82              		.loc 2 322 0
  83 002a DA05     		lsls	r2, r3, #23
  84 002c D20D     		lsrs	r2, r2, #23
  85 002e 0232     		adds	r2, r2, #2
  86 0030 8008     		lsrs	r0, r0, #2
  87              	.LVL5:
  88 0032 5043     		muls	r0, r2
 317:./bsp/inc/CLK.h ****     u32NF = ((u32PllReg & CLK_PLLCON_FB_DV_Msk) >> CLK_PLLCON_FB_DV_Pos) + 2;
  89              		.loc 2 317 0
  90 0034 1A04     		lsls	r2, r3, #16
  91 0036 920F     		lsrs	r2, r2, #30
  92              		.loc 2 322 0
  93 0038 9B04     		lsls	r3, r3, #18
  94              	.LVL6:
  95 003a A95C     		ldrb	r1, [r5, r2]
  96 003c DB0E     		lsrs	r3, r3, #27
  97 003e 0233     		adds	r3, r3, #2
  98 0040 5943     		muls	r1, r3
  99 0042 FFF7FEFF 		bl	__aeabi_uidiv
 100              	.LVL7:
 101 0046 8000     		lsls	r0, r0, #2
 102              	.LVL8:
 103              	.L2:
 104              	.LBE7:
 105              	.LBE6:
  35:./bsp/system_NUC131.c ****     uint32_t u32Freq, u32ClkSrc;
  36:./bsp/system_NUC131.c ****     uint32_t u32HclkDiv;
  37:./bsp/system_NUC131.c **** 
  38:./bsp/system_NUC131.c ****     /* Update PLL Clock */
  39:./bsp/system_NUC131.c ****     PllClock = CLK_GetPLLClockFreq();
  40:./bsp/system_NUC131.c **** 
  41:./bsp/system_NUC131.c ****     u32ClkSrc = CLK->CLKSEL0 & CLK_CLKSEL0_HCLK_S_Msk;
 106              		.loc 1 41 0
 107 0048 0723     		movs	r3, #7
  39:./bsp/system_NUC131.c **** 
 108              		.loc 1 39 0
 109 004a 0F4D     		ldr	r5, .L11+16
 110 004c 2860     		str	r0, [r5]
 111              		.loc 1 41 0
 112 004e 2269     		ldr	r2, [r4, #16]
 113 0050 1340     		ands	r3, r2
 114              	.LVL9:
  42:./bsp/system_NUC131.c **** 
  43:./bsp/system_NUC131.c ****     if(u32ClkSrc != CLK_CLKSEL0_HCLK_S_PLL)
 115              		.loc 1 43 0
 116 0052 022B     		cmp	r3, #2
 117 0054 02D0     		beq	.L4
  44:./bsp/system_NUC131.c ****     {
  45:./bsp/system_NUC131.c ****         /* Use the clock sources directly */
  46:./bsp/system_NUC131.c ****         u32Freq = gau32ClkSrcTbl[u32ClkSrc];
 118              		.loc 1 46 0
 119 0056 9B00     		lsls	r3, r3, #2
 120              	.LVL10:
 121 0058 EB18     		adds	r3, r5, r3
 122 005a 5868     		ldr	r0, [r3, #4]
 123              	.LVL11:
 124              	.L4:
  47:./bsp/system_NUC131.c ****     }
  48:./bsp/system_NUC131.c ****     else
  49:./bsp/system_NUC131.c ****     {
  50:./bsp/system_NUC131.c ****         /* Use PLL clock */
  51:./bsp/system_NUC131.c ****         u32Freq = PllClock;
  52:./bsp/system_NUC131.c ****     }
  53:./bsp/system_NUC131.c **** 
  54:./bsp/system_NUC131.c ****     u32HclkDiv = (CLK->CLKDIV & CLK_CLKDIV_HCLK_N_Msk) + 1;
  55:./bsp/system_NUC131.c **** 
  56:./bsp/system_NUC131.c ****     /* Update System Core Clock */
  57:./bsp/system_NUC131.c ****     SystemCoreClock = u32Freq / u32HclkDiv;
 125              		.loc 1 57 0
 126 005c 0F23     		movs	r3, #15
  54:./bsp/system_NUC131.c **** 
 127              		.loc 1 54 0
 128 005e A169     		ldr	r1, [r4, #24]
 129              	.LVL12:
  58:./bsp/system_NUC131.c **** 
  59:./bsp/system_NUC131.c ****     CyclesPerUs = (SystemCoreClock + 500000) / 1000000;
  60:./bsp/system_NUC131.c **** }
 130              		.loc 1 60 0
 131              		@ sp needed
  57:./bsp/system_NUC131.c **** 
 132              		.loc 1 57 0
 133 0060 1940     		ands	r1, r3
 134              	.LVL13:
 135 0062 0131     		adds	r1, r1, #1
 136              	.LVL14:
 137 0064 FFF7FEFF 		bl	__aeabi_uidiv
 138              	.LVL15:
  59:./bsp/system_NUC131.c **** }
 139              		.loc 1 59 0
 140 0068 084B     		ldr	r3, .L11+20
  57:./bsp/system_NUC131.c **** 
 141              		.loc 1 57 0
 142 006a 6862     		str	r0, [r5, #36]
  59:./bsp/system_NUC131.c **** }
 143              		.loc 1 59 0
 144 006c 0849     		ldr	r1, .L11+24
 145 006e C018     		adds	r0, r0, r3
 146 0070 FFF7FEFF 		bl	__aeabi_uidiv
 147              	.LVL16:
 148 0074 A862     		str	r0, [r5, #40]
 149              		.loc 1 60 0
 150 0076 37BD     		pop	{r0, r1, r2, r4, r5, pc}
 151              	.L12:
 152              		.align	2
 153              	.L11:
 154 0078 00000000 		.word	.LANCHOR0
 155 007c 00020050 		.word	1342177792
 156 0080 001BB700 		.word	12000000
 157 0084 00805101 		.word	22118400
 158 0088 00000000 		.word	.LANCHOR1
 159 008c 20A10700 		.word	500000
 160 0090 40420F00 		.word	1000000
 161              		.cfi_endproc
 162              	.LFE59:
 164              		.section	.text.SystemInit,"ax",%progbits
 165              		.align	1
 166              		.global	SystemInit
 167              		.code	16
 168              		.thumb_func
 170              	SystemInit:
 171              	.LFB61:
  61:./bsp/system_NUC131.c **** 
  62:./bsp/system_NUC131.c **** static inline
  63:./bsp/system_NUC131.c **** void SYS_Init(void)
  64:./bsp/system_NUC131.c **** {
  65:./bsp/system_NUC131.c ****     /*---------------------------------------------------------------------------------------------
  66:./bsp/system_NUC131.c ****     /* Init System Clock                                                                           
  67:./bsp/system_NUC131.c ****     /*---------------------------------------------------------------------------------------------
  68:./bsp/system_NUC131.c **** 
  69:./bsp/system_NUC131.c **** 
  70:./bsp/system_NUC131.c **** }
  71:./bsp/system_NUC131.c **** 
  72:./bsp/system_NUC131.c **** /*-------------------------------------------------------------------------------------------------
  73:./bsp/system_NUC131.c **** /* Function: SystemInit                                                                            
  74:./bsp/system_NUC131.c **** /*                                                                                                 
  75:./bsp/system_NUC131.c **** /* Parameters:                                                                                     
  76:./bsp/system_NUC131.c **** /*      None                                                                                       
  77:./bsp/system_NUC131.c **** /*                                                                                                 
  78:./bsp/system_NUC131.c **** /* Returns:                                                                                        
  79:./bsp/system_NUC131.c **** /*      None                                                                                       
  80:./bsp/system_NUC131.c **** /*                                                                                                 
  81:./bsp/system_NUC131.c **** /* Description:                                                                                    
  82:./bsp/system_NUC131.c **** /*      The necessary initialization of system.                                                    
  83:./bsp/system_NUC131.c **** /*                                                                                                 
  84:./bsp/system_NUC131.c **** /*-------------------------------------------------------------------------------------------------
  85:./bsp/system_NUC131.c **** void SystemInit(void)
  86:./bsp/system_NUC131.c **** {
 172              		.loc 1 86 0
 173              		.cfi_startproc
 174              		@ args = 0, pretend = 0, frame = 0
 175              		@ frame_needed = 0, uses_anonymous_args = 0
 176 0000 10B5     		push	{r4, lr}
 177              	.LCFI1:
 178              		.cfi_def_cfa_offset 8
 179              		.cfi_offset 4, -8
 180              		.cfi_offset 14, -4
 181              	.LBB12:
 182              	.LBB13:
 183              		.file 3 "./bsp/inc/SYS.h"
   1:./bsp/inc/SYS.h **** /**************************************************************************//**
   2:./bsp/inc/SYS.h ****  * @file     sys.h
   3:./bsp/inc/SYS.h ****  * @version  V3.00
   4:./bsp/inc/SYS.h ****  * $Revision: 16 $
   5:./bsp/inc/SYS.h ****  * $Date: 14/07/25 8:55a $
   6:./bsp/inc/SYS.h ****  * @brief    NUC131 Series SYS Driver Header File
   7:./bsp/inc/SYS.h ****  *
   8:./bsp/inc/SYS.h ****  * @note
   9:./bsp/inc/SYS.h ****  * Copyright (C) 2014 Nuvoton Technology Corp. All rights reserved.
  10:./bsp/inc/SYS.h ****  *
  11:./bsp/inc/SYS.h ****  ******************************************************************************/
  12:./bsp/inc/SYS.h **** #ifndef __SYS_H__
  13:./bsp/inc/SYS.h **** #define __SYS_H__
  14:./bsp/inc/SYS.h **** 
  15:./bsp/inc/SYS.h **** #ifdef __cplusplus
  16:./bsp/inc/SYS.h **** extern "C"
  17:./bsp/inc/SYS.h **** {
  18:./bsp/inc/SYS.h **** #endif
  19:./bsp/inc/SYS.h **** 
  20:./bsp/inc/SYS.h **** /** @addtogroup NUC131_Device_Driver NUC131 Device Driver
  21:./bsp/inc/SYS.h ****   @{
  22:./bsp/inc/SYS.h **** */
  23:./bsp/inc/SYS.h **** 
  24:./bsp/inc/SYS.h **** /** @addtogroup NUC131_SYS_Driver SYS Driver
  25:./bsp/inc/SYS.h ****   @{
  26:./bsp/inc/SYS.h **** */
  27:./bsp/inc/SYS.h **** 
  28:./bsp/inc/SYS.h **** /** @addtogroup NUC131_SYS_EXPORTED_CONSTANTS SYS Exported Constants
  29:./bsp/inc/SYS.h ****   @{
  30:./bsp/inc/SYS.h **** */
  31:./bsp/inc/SYS.h **** 
  32:./bsp/inc/SYS.h **** 
  33:./bsp/inc/SYS.h **** /*-------------------------------------------------------------------------------------------------
  34:./bsp/inc/SYS.h **** /*  Module Reset Control Resister constant definitions.                                            
  35:./bsp/inc/SYS.h **** /*-------------------------------------------------------------------------------------------------
  36:./bsp/inc/SYS.h **** #define GPIO_RST    ((0x4<<24) | SYS_IPRSTC2_GPIO_RST_Pos  ) /*!< GPIO reset is one of the SYS_Rese
  37:./bsp/inc/SYS.h **** #define TMR0_RST    ((0x4<<24) | SYS_IPRSTC2_TMR0_RST_Pos  ) /*!< TMR0 reset is one of the SYS_Rese
  38:./bsp/inc/SYS.h **** #define TMR1_RST    ((0x4<<24) | SYS_IPRSTC2_TMR1_RST_Pos  ) /*!< TMR1 reset is one of the SYS_Rese
  39:./bsp/inc/SYS.h **** #define TMR2_RST    ((0x4<<24) | SYS_IPRSTC2_TMR2_RST_Pos  ) /*!< TMR2 reset is one of the SYS_Rese
  40:./bsp/inc/SYS.h **** #define TMR3_RST    ((0x4<<24) | SYS_IPRSTC2_TMR3_RST_Pos  ) /*!< TMR3 reset is one of the SYS_Rese
  41:./bsp/inc/SYS.h **** #define I2C0_RST    ((0x4<<24) | SYS_IPRSTC2_I2C0_RST_Pos  ) /*!< I2C0 reset is one of the SYS_Rese
  42:./bsp/inc/SYS.h **** #define I2C1_RST    ((0x4<<24) | SYS_IPRSTC2_I2C1_RST_Pos  ) /*!< I2C1 reset is one of the SYS_Rese
  43:./bsp/inc/SYS.h **** #define SPI0_RST    ((0x4<<24) | SYS_IPRSTC2_SPI0_RST_Pos  ) /*!< SPI0 reset is one of the SYS_Rese
  44:./bsp/inc/SYS.h **** #define UART0_RST   ((0x4<<24) | SYS_IPRSTC2_UART0_RST_Pos ) /*!< UART0 reset is one of the SYS_Res
  45:./bsp/inc/SYS.h **** #define UART1_RST   ((0x4<<24) | SYS_IPRSTC2_UART1_RST_Pos ) /*!< UART1 reset is one of the SYS_Res
  46:./bsp/inc/SYS.h **** #define UART2_RST   ((0x4<<24) | SYS_IPRSTC2_UART2_RST_Pos ) /*!< UART2 reset is one of the SYS_Res
  47:./bsp/inc/SYS.h **** #define CAN0_RST    ((0x4<<24) | SYS_IPRSTC2_CAN0_RST_Pos  ) /*!< CAN0 reset is one of the SYS_Rese
  48:./bsp/inc/SYS.h **** #define ADC_RST     ((0x4<<24) | SYS_IPRSTC2_ADC_RST_Pos   ) /*!< ADC reset is one of the SYS_Reset
  49:./bsp/inc/SYS.h **** #define UART3_RST   ((0x8<<24) | SYS_IPRSTC3_UART3_RST_Pos ) /*!< UART3 reset is one of the SYS_Res
  50:./bsp/inc/SYS.h **** #define UART4_RST   ((0x8<<24) | SYS_IPRSTC3_UART4_RST_Pos ) /*!< UART4 reset is one of the SYS_Res
  51:./bsp/inc/SYS.h **** #define UART5_RST   ((0x8<<24) | SYS_IPRSTC3_UART5_RST_Pos ) /*!< UART5 reset is one of the SYS_Res
  52:./bsp/inc/SYS.h **** #define PWM0_RST    ((0x8<<24) | SYS_IPRSTC3_PWM0_RST_Pos )  /*!< PWM0 reset is one of the SYS_Rese
  53:./bsp/inc/SYS.h **** #define PWM1_RST    ((0x8<<24) | SYS_IPRSTC3_PWM1_RST_Pos )  /*!< PWM1 reset is one of the SYS_Rese
  54:./bsp/inc/SYS.h **** #define BPWM0_RST   ((0x8<<24) | SYS_IPRSTC3_BPWM0_RST_Pos ) /*!< BPWM0 reset is one of the SYS_Res
  55:./bsp/inc/SYS.h **** #define BPWM1_RST   ((0x8<<24) | SYS_IPRSTC3_BPWM1_RST_Pos ) /*!< BPWM1 reset is one of the SYS_Res
  56:./bsp/inc/SYS.h **** 
  57:./bsp/inc/SYS.h **** 
  58:./bsp/inc/SYS.h **** /*-------------------------------------------------------------------------------------------------
  59:./bsp/inc/SYS.h **** /*  Brown Out Detector Threshold Voltage Selection constant definitions.                           
  60:./bsp/inc/SYS.h **** /*-------------------------------------------------------------------------------------------------
  61:./bsp/inc/SYS.h **** #define SYS_BODCR_BOD_RST_EN            (1UL<<SYS_BODCR_BOD_RSTEN_Pos)    /*!< Brown-out Reset Enab
  62:./bsp/inc/SYS.h **** #define SYS_BODCR_BOD_INTERRUPT_EN      (0UL<<SYS_BODCR_BOD_RSTEN_Pos)    /*!< Brown-out Interrupt 
  63:./bsp/inc/SYS.h **** #define SYS_BODCR_BOD_VL_4_4V           (3UL<<SYS_BODCR_BOD_VL_Pos)       /*!< Setting Brown Out De
  64:./bsp/inc/SYS.h **** #define SYS_BODCR_BOD_VL_3_7V           (2UL<<SYS_BODCR_BOD_VL_Pos)       /*!< Setting Brown Out De
  65:./bsp/inc/SYS.h **** #define SYS_BODCR_BOD_VL_2_7V           (1UL<<SYS_BODCR_BOD_VL_Pos)       /*!< Setting Brown Out De
  66:./bsp/inc/SYS.h **** #define SYS_BODCR_BOD_VL_2_2V           (0UL<<SYS_BODCR_BOD_VL_Pos)       /*!< Setting Brown Out De
  67:./bsp/inc/SYS.h **** 
  68:./bsp/inc/SYS.h **** 
  69:./bsp/inc/SYS.h **** /*-------------------------------------------------------------------------------------------------
  70:./bsp/inc/SYS.h **** /*  Multi-Function constant definitions.                                                           
  71:./bsp/inc/SYS.h **** /*-------------------------------------------------------------------------------------------------
  72:./bsp/inc/SYS.h **** 
  73:./bsp/inc/SYS.h **** /* How to use below #define?
  74:./bsp/inc/SYS.h **** Example: If user want to set PA.0 as ADC0 and PA.1 as ADC1 in initial function,
  75:./bsp/inc/SYS.h ****          user can issue following command to achieve it.
  76:./bsp/inc/SYS.h **** 
  77:./bsp/inc/SYS.h ****          SYS->GPA_MFP  = SYS_GPA_MFP_PA0_ADC0  | SYS_GPA_MFP_PA1_ADC1;
  78:./bsp/inc/SYS.h ****          SYS->ALT_MFP3 = SYS_ALT_MFP3_PA0_ADC0 | SYS_ALT_MFP3_PA1_ADC1;
  79:./bsp/inc/SYS.h ****          SYS->ALT_MFP4 = SYS_ALT_MFP4_PA0_ADC0 | SYS_ALT_MFP4_PA1_ADC1;
  80:./bsp/inc/SYS.h **** */
  81:./bsp/inc/SYS.h **** 
  82:./bsp/inc/SYS.h **** //PA.0
  83:./bsp/inc/SYS.h **** #define SYS_GPA_MFP_PA0_GPIO        0x00000000UL        /*!< GPA_MFP PA.0 setting for GPIO */
  84:./bsp/inc/SYS.h **** #define SYS_ALT_MFP_PA0_GPIO        NULL                /*!< No ALT_MFP setting for PA.0 */
  85:./bsp/inc/SYS.h **** #define SYS_ALT_MFP1_PA0_GPIO       NULL                /*!< No ALT_MFP1 setting for PA.0 */
  86:./bsp/inc/SYS.h **** #define SYS_ALT_MFP2_PA0_GPIO       NULL                /*!< No ALT_MFP2 setting for PA.0 */
  87:./bsp/inc/SYS.h **** #define SYS_ALT_MFP3_PA0_GPIO       0x00000000UL        /*!< ALT_MFP3 PA.0 setting for GPIO */
  88:./bsp/inc/SYS.h **** #define SYS_ALT_MFP4_PA0_GPIO       0x00000000UL        /*!< ALT_MFP4 PA.0 setting for GPIO */
  89:./bsp/inc/SYS.h **** 
  90:./bsp/inc/SYS.h **** #define SYS_GPA_MFP_PA0_ADC0        (1UL<<0)            /*!< GPA_MFP PA.0 setting for ADC0 */
  91:./bsp/inc/SYS.h **** #define SYS_ALT_MFP_PA0_ADC0        NULL                /*!< No ALT_MFP setting for PA.0 */
  92:./bsp/inc/SYS.h **** #define SYS_ALT_MFP1_PA0_ADC0       NULL                /*!< No ALT_MFP1 setting for PA.0 */
  93:./bsp/inc/SYS.h **** #define SYS_ALT_MFP2_PA0_ADC0       NULL                /*!< No ALT_MFP2 setting for PA.0 */
  94:./bsp/inc/SYS.h **** #define SYS_ALT_MFP3_PA0_ADC0       0x00000000UL        /*!< ALT_MFP3 PA.0 setting for ADC0 */
  95:./bsp/inc/SYS.h **** #define SYS_ALT_MFP4_PA0_ADC0       0x00000000UL        /*!< ALT_MFP4 PA.0 setting for ADC0 */
  96:./bsp/inc/SYS.h **** 
  97:./bsp/inc/SYS.h **** #define SYS_GPA_MFP_PA0_I2C1_SCL    (1UL<<0)            /*!< GPA_MFP PA.0 setting for I2C1_SCL */
  98:./bsp/inc/SYS.h **** #define SYS_ALT_MFP_PA0_I2C1_SCL    NULL                /*!< No ALT_MFP setting for PA.0 */
  99:./bsp/inc/SYS.h **** #define SYS_ALT_MFP1_PA0_I2C1_SCL   NULL                /*!< No ALT_MFP1 setting for PA.0 */
 100:./bsp/inc/SYS.h **** #define SYS_ALT_MFP2_PA0_I2C1_SCL   NULL                /*!< No ALT_MFP2 setting for PA.0 */
 101:./bsp/inc/SYS.h **** #define SYS_ALT_MFP3_PA0_I2C1_SCL   0x00000000UL        /*!< ALT_MFP3 PA.0 setting for I2C1_SCL */
 102:./bsp/inc/SYS.h **** #define SYS_ALT_MFP4_PA0_I2C1_SCL   (1UL<<12)           /*!< ALT_MFP4 PA.0 setting for I2C1_SCL */
 103:./bsp/inc/SYS.h **** 
 104:./bsp/inc/SYS.h **** #define SYS_GPA_MFP_PA0_UART5_TXD   (1UL<<0)            /*!< GPA_MFP PA.0 setting for UART5_TXD */
 105:./bsp/inc/SYS.h **** #define SYS_ALT_MFP_PA0_UART5_TXD   NULL                /*!< No ALT_MFP setting for PA.0 */
 106:./bsp/inc/SYS.h **** #define SYS_ALT_MFP1_PA0_UART5_TXD  NULL                /*!< No ALT_MFP1 setting for PA.0 */
 107:./bsp/inc/SYS.h **** #define SYS_ALT_MFP2_PA0_UART5_TXD  NULL                /*!< No ALT_MFP2 setting for PA.0 */
 108:./bsp/inc/SYS.h **** #define SYS_ALT_MFP3_PA0_UART5_TXD  0x00000000UL        /*!< ALT_MFP3 PA.0 setting for UART5_TXD */
 109:./bsp/inc/SYS.h **** #define SYS_ALT_MFP4_PA0_UART5_TXD  (1UL<<7)            /*!< ALT_MFP4 PA.0 setting for UART5_TXD */
 110:./bsp/inc/SYS.h **** 
 111:./bsp/inc/SYS.h **** #define SYS_GPA_MFP_PA0_PWM0_CH4    (1UL<<0)            /*!< GPA_MFP PA.0 setting for PWM0_CH4 */
 112:./bsp/inc/SYS.h **** #define SYS_ALT_MFP_PA0_PWM0_CH4    NULL                /*!< No ALT_MFP setting for PA.0 */
 113:./bsp/inc/SYS.h **** #define SYS_ALT_MFP1_PA0_PWM0_CH4   NULL                /*!< No ALT_MFP1 setting for PA.0 */
 114:./bsp/inc/SYS.h **** #define SYS_ALT_MFP2_PA0_PWM0_CH4   NULL                /*!< No ALT_MFP2 setting for PA.0 */
 115:./bsp/inc/SYS.h **** #define SYS_ALT_MFP3_PA0_PWM0_CH4   (1UL<<4)            /*!< ALT_MFP3 PA.0 setting for PWM0_CH4 */
 116:./bsp/inc/SYS.h **** #define SYS_ALT_MFP4_PA0_PWM0_CH4   0x00000000UL        /*!< ALT_MFP4 PA.0 setting for PWM0_CH4 */
 117:./bsp/inc/SYS.h **** 
 118:./bsp/inc/SYS.h **** #define SYS_GPA_MFP_PA0_Msk         (1UL<<0)            /*!< GPA_MFP PA.0 mask */
 119:./bsp/inc/SYS.h **** #define SYS_ALT_MFP_PA0_Msk         NULL                /*!< No ALT_MFP PA.0 mask */
 120:./bsp/inc/SYS.h **** #define SYS_ALT_MFP1_PA0_Msk        NULL                /*!< No ALT_MFP1 PA.0 mask */
 121:./bsp/inc/SYS.h **** #define SYS_ALT_MFP2_PA0_Msk        NULL                /*!< No ALT_MFP2 PA.0 mask */
 122:./bsp/inc/SYS.h **** #define SYS_ALT_MFP3_PA0_Msk        (1UL<<4)            /*!< ALT_MFP3 PA.0 mask */
 123:./bsp/inc/SYS.h **** #define SYS_ALT_MFP4_PA0_Msk        (1UL<<12)|(1UL<<7)  /*!< ALT_MFP4 PA.0 mask */
 124:./bsp/inc/SYS.h **** 
 125:./bsp/inc/SYS.h **** //PA.1
 126:./bsp/inc/SYS.h **** #define SYS_GPA_MFP_PA1_GPIO        0x00000000UL        /*!< GPA_MFP PA.1 setting for GPIO */
 127:./bsp/inc/SYS.h **** #define SYS_ALT_MFP_PA1_GPIO        NULL                /*!< No ALT_MFP setting for PA.1 */
 128:./bsp/inc/SYS.h **** #define SYS_ALT_MFP1_PA1_GPIO       NULL                /*!< No ALT_MFP1 setting for PA.1 */
 129:./bsp/inc/SYS.h **** #define SYS_ALT_MFP2_PA1_GPIO       NULL                /*!< No ALT_MFP2 setting for PA.1 */
 130:./bsp/inc/SYS.h **** #define SYS_ALT_MFP3_PA1_GPIO       0x00000000UL        /*!< ALT_MFP3 PA.1 setting for GPIO */
 131:./bsp/inc/SYS.h **** #define SYS_ALT_MFP4_PA1_GPIO       0x00000000UL        /*!< ALT_MFP4 PA.1 setting for GPIO */
 132:./bsp/inc/SYS.h **** 
 133:./bsp/inc/SYS.h **** #define SYS_GPA_MFP_PA1_ADC1        (1UL<<1)            /*!< GPA_MFP PA.1 setting for ADC1 */
 134:./bsp/inc/SYS.h **** #define SYS_ALT_MFP_PA1_ADC1        NULL                /*!< No ALT_MFP setting for PA.1 */
 135:./bsp/inc/SYS.h **** #define SYS_ALT_MFP1_PA1_ADC1       NULL                /*!< No ALT_MFP1 setting for PA.1 */
 136:./bsp/inc/SYS.h **** #define SYS_ALT_MFP2_PA1_ADC1       NULL                /*!< No ALT_MFP2 setting for PA.1 */
 137:./bsp/inc/SYS.h **** #define SYS_ALT_MFP3_PA1_ADC1       0x00000000UL        /*!< ALT_MFP3 PA.1 setting for ADC1 */
 138:./bsp/inc/SYS.h **** #define SYS_ALT_MFP4_PA1_ADC1       0x00000000UL        /*!< ALT_MFP4 PA.1 setting for ADC1 */
 139:./bsp/inc/SYS.h **** 
 140:./bsp/inc/SYS.h **** #define SYS_GPA_MFP_PA1_I2C1_SDA    (1UL<<1)            /*!< GPA_MFP PA.1 setting for I2C1_SDA */
 141:./bsp/inc/SYS.h **** #define SYS_ALT_MFP_PA1_I2C1_SDA    NULL                /*!< No ALT_MFP setting for PA.1 */
 142:./bsp/inc/SYS.h **** #define SYS_ALT_MFP1_PA1_I2C1_SDA   NULL                /*!< No ALT_MFP1 setting for PA.1 */
 143:./bsp/inc/SYS.h **** #define SYS_ALT_MFP2_PA1_I2C1_SDA   NULL                /*!< No ALT_MFP2 setting for PA.1 */
 144:./bsp/inc/SYS.h **** #define SYS_ALT_MFP3_PA1_I2C1_SDA   0x00000000UL        /*!< ALT_MFP3 PA.1 setting for I2C1_SDA */
 145:./bsp/inc/SYS.h **** #define SYS_ALT_MFP4_PA1_I2C1_SDA   (1UL<<13)           /*!< ALT_MFP4 PA.1 setting for I2C1_SDA */
 146:./bsp/inc/SYS.h **** 
 147:./bsp/inc/SYS.h **** #define SYS_GPA_MFP_PA1_UART5_RXD   (1UL<<1)            /*!< GPA_MFP PA.1 setting for UART5_RXD */
 148:./bsp/inc/SYS.h **** #define SYS_ALT_MFP_PA1_UART5_RXD   NULL                /*!< No ALT_MFP setting for PA.1 */
 149:./bsp/inc/SYS.h **** #define SYS_ALT_MFP1_PA1_UART5_RXD  NULL                /*!< No ALT_MFP1 setting for PA.1 */
 150:./bsp/inc/SYS.h **** #define SYS_ALT_MFP2_PA1_UART5_RXD  NULL                /*!< No ALT_MFP2 setting for PA.1 */
 151:./bsp/inc/SYS.h **** #define SYS_ALT_MFP3_PA1_UART5_RXD  0x00000000UL        /*!< ALT_MFP3 PA.1 setting for UART5_RXD */
 152:./bsp/inc/SYS.h **** #define SYS_ALT_MFP4_PA1_UART5_RXD  (1UL<<6)            /*!< ALT_MFP4 PA.1 setting for UART5_RXD */
 153:./bsp/inc/SYS.h **** 
 154:./bsp/inc/SYS.h **** #define SYS_GPA_MFP_PA1_PWM0_CH5    (1UL<<1)            /*!< GPA_MFP PA.1 setting for PWM0_CH5 */
 155:./bsp/inc/SYS.h **** #define SYS_ALT_MFP_PA1_PWM0_CH5    NULL                /*!< No ALT_MFP setting for PA.1 */
 156:./bsp/inc/SYS.h **** #define SYS_ALT_MFP1_PA1_PWM0_CH5   NULL                /*!< No ALT_MFP1 setting for PA.1 */
 157:./bsp/inc/SYS.h **** #define SYS_ALT_MFP2_PA1_PWM0_CH5   NULL                /*!< No ALT_MFP2 setting for PA.1 */
 158:./bsp/inc/SYS.h **** #define SYS_ALT_MFP3_PA1_PWM0_CH5   (1UL<<5)            /*!< ALT_MFP3 PA.1 setting for PWM0_CH5 */
 159:./bsp/inc/SYS.h **** #define SYS_ALT_MFP4_PA1_PWM0_CH5   0x00000000UL        /*!< ALT_MFP4 PA.1 setting for PWM0_CH5 */
 160:./bsp/inc/SYS.h **** 
 161:./bsp/inc/SYS.h **** #define SYS_GPA_MFP_PA1_Msk         (1UL<<1)            /*!< GPA_MFP PA.1 mask */
 162:./bsp/inc/SYS.h **** #define SYS_ALT_MFP_PA1_Msk         NULL                /*!< No ALT_MFP PA.1 mask */
 163:./bsp/inc/SYS.h **** #define SYS_ALT_MFP1_PA1_Msk        NULL                /*!< No ALT_MFP1 PA.1 mask */
 164:./bsp/inc/SYS.h **** #define SYS_ALT_MFP2_PA1_Msk        NULL                /*!< No ALT_MFP2 PA.1 mask */
 165:./bsp/inc/SYS.h **** #define SYS_ALT_MFP3_PA1_Msk        (1UL<<5)            /*!< ALT_MFP3 PA.1 mask */
 166:./bsp/inc/SYS.h **** #define SYS_ALT_MFP4_PA1_Msk        (1UL<<13)|(1UL<<6)  /*!< ALT_MFP4 PA.1 mask */
 167:./bsp/inc/SYS.h **** 
 168:./bsp/inc/SYS.h **** //PA.2
 169:./bsp/inc/SYS.h **** #define SYS_GPA_MFP_PA2_GPIO        0x00000000UL        /*!< GPA_MFP PA.2 setting for GPIO */
 170:./bsp/inc/SYS.h **** #define SYS_ALT_MFP_PA2_GPIO        NULL                /*!< No ALT_MFP setting for PA.2 */
 171:./bsp/inc/SYS.h **** #define SYS_ALT_MFP1_PA2_GPIO       NULL                /*!< No ALT_MFP1 setting for PA.2 */
 172:./bsp/inc/SYS.h **** #define SYS_ALT_MFP2_PA2_GPIO       NULL                /*!< No ALT_MFP2 setting for PA.2 */
 173:./bsp/inc/SYS.h **** #define SYS_ALT_MFP3_PA2_GPIO       0x00000000UL        /*!< ALT_MFP3 PA.2 setting for GPIO */
 174:./bsp/inc/SYS.h **** #define SYS_ALT_MFP4_PA2_GPIO       0x00000000UL        /*!< ALT_MFP4 PA.2 setting for GPIO */
 175:./bsp/inc/SYS.h **** 
 176:./bsp/inc/SYS.h **** #define SYS_GPA_MFP_PA2_ADC2        (1UL<<2)            /*!< GPA_MFP PA.2 setting for ADC2 */
 177:./bsp/inc/SYS.h **** #define SYS_ALT_MFP_PA2_ADC2        NULL                /*!< No ALT_MFP setting for PA.2 */
 178:./bsp/inc/SYS.h **** #define SYS_ALT_MFP1_PA2_ADC2       NULL                /*!< No ALT_MFP1 setting for PA.2 */
 179:./bsp/inc/SYS.h **** #define SYS_ALT_MFP2_PA2_ADC2       NULL                /*!< No ALT_MFP2 setting for PA.2 */
 180:./bsp/inc/SYS.h **** #define SYS_ALT_MFP3_PA2_ADC2       0x00000000UL        /*!< ALT_MFP3 PA.2 setting for ADC2 */
 181:./bsp/inc/SYS.h **** #define SYS_ALT_MFP4_PA2_ADC2       0x00000000UL        /*!< ALT_MFP4 PA.2 setting for ADC2 */
 182:./bsp/inc/SYS.h **** 
 183:./bsp/inc/SYS.h **** #define SYS_GPA_MFP_PA2_UART3_TXD   (1UL<<2)            /*!< GPA_MFP PA.2 setting for UART3_TXD */
 184:./bsp/inc/SYS.h **** #define SYS_ALT_MFP_PA2_UART3_TXD   NULL                /*!< No ALT_MFP setting for PA.2 */
 185:./bsp/inc/SYS.h **** #define SYS_ALT_MFP1_PA2_UART3_TXD  NULL                /*!< No ALT_MFP1 setting for PA.2 */
 186:./bsp/inc/SYS.h **** #define SYS_ALT_MFP2_PA2_UART3_TXD  NULL                /*!< No ALT_MFP2 setting for PA.2 */
 187:./bsp/inc/SYS.h **** #define SYS_ALT_MFP3_PA2_UART3_TXD  0x00000000UL        /*!< ALT_MFP3 PA.2 setting for UART3_TXD */
 188:./bsp/inc/SYS.h **** #define SYS_ALT_MFP4_PA2_UART3_TXD  (1UL<<3)            /*!< ALT_MFP4 PA.2 setting for UART3_TXD */
 189:./bsp/inc/SYS.h **** 
 190:./bsp/inc/SYS.h **** #define SYS_GPA_MFP_PA2_PWM1_CH0    (1UL<<2)            /*!< GPA_MFP PA.2 setting for PWM1_CH0 */
 191:./bsp/inc/SYS.h **** #define SYS_ALT_MFP_PA2_PWM1_CH0    NULL                /*!< No ALT_MFP setting for PA.2 */
 192:./bsp/inc/SYS.h **** #define SYS_ALT_MFP1_PA2_PWM1_CH0   NULL                /*!< No ALT_MFP1 setting for PA.2 */
 193:./bsp/inc/SYS.h **** #define SYS_ALT_MFP2_PA2_PWM1_CH0   NULL                /*!< No ALT_MFP2 setting for PA.2 */
 194:./bsp/inc/SYS.h **** #define SYS_ALT_MFP3_PA2_PWM1_CH0   (1UL<<6)            /*!< ALT_MFP3 PA.2 setting for PWM1_CH0 */
 195:./bsp/inc/SYS.h **** #define SYS_ALT_MFP4_PA2_PWM1_CH0   0x00000000UL        /*!< ALT_MFP4 PA.2 setting for PWM1_CH0 */
 196:./bsp/inc/SYS.h **** 
 197:./bsp/inc/SYS.h **** #define SYS_GPA_MFP_PA2_Msk         (1UL<<2)            /*!< GPA_MFP PA.2 mask */
 198:./bsp/inc/SYS.h **** #define SYS_ALT_MFP_PA2_Msk         NULL                /*!< No ALT_MFP PA.2 mask */
 199:./bsp/inc/SYS.h **** #define SYS_ALT_MFP1_PA2_Msk        NULL                /*!< No ALT_MFP1 PA.2 mask */
 200:./bsp/inc/SYS.h **** #define SYS_ALT_MFP2_PA2_Msk        NULL                /*!< No ALT_MFP2 PA.2 mask */
 201:./bsp/inc/SYS.h **** #define SYS_ALT_MFP3_PA2_Msk        (1UL<<6)            /*!< ALT_MFP3 PA.2 mask */
 202:./bsp/inc/SYS.h **** #define SYS_ALT_MFP4_PA2_Msk        (1UL<<3)            /*!< ALT_MFP4 PA.2 mask */
 203:./bsp/inc/SYS.h **** 
 204:./bsp/inc/SYS.h **** //PA.3
 205:./bsp/inc/SYS.h **** #define SYS_GPA_MFP_PA3_GPIO        0x00000000UL        /*!< GPA_MFP PA.3 setting for GPIO */
 206:./bsp/inc/SYS.h **** #define SYS_ALT_MFP_PA3_GPIO        NULL                /*!< No ALT_MFP setting for PA.3 */
 207:./bsp/inc/SYS.h **** #define SYS_ALT_MFP1_PA3_GPIO       NULL                /*!< No ALT_MFP1 setting for PA.3 */
 208:./bsp/inc/SYS.h **** #define SYS_ALT_MFP2_PA3_GPIO       NULL                /*!< No ALT_MFP2 setting for PA.3 */
 209:./bsp/inc/SYS.h **** #define SYS_ALT_MFP3_PA3_GPIO       0x00000000UL        /*!< ALT_MFP3 PA.3 setting for GPIO */
 210:./bsp/inc/SYS.h **** #define SYS_ALT_MFP4_PA3_GPIO       0x00000000UL        /*!< ALT_MFP4 PA.3 setting for GPIO */
 211:./bsp/inc/SYS.h **** 
 212:./bsp/inc/SYS.h **** #define SYS_GPA_MFP_PA3_ADC3        (1UL<<3)            /*!< GPA_MFP PA.3 setting for ADC3 */
 213:./bsp/inc/SYS.h **** #define SYS_ALT_MFP_PA3_ADC3        NULL                /*!< No ALT_MFP setting for PA.3 */
 214:./bsp/inc/SYS.h **** #define SYS_ALT_MFP1_PA3_ADC3       NULL                /*!< No ALT_MFP1 setting for PA.3 */
 215:./bsp/inc/SYS.h **** #define SYS_ALT_MFP2_PA3_ADC3       NULL                /*!< No ALT_MFP2 setting for PA.3 */
 216:./bsp/inc/SYS.h **** #define SYS_ALT_MFP3_PA3_ADC3       0x00000000UL        /*!< ALT_MFP3 PA.3 setting for ADC3 */
 217:./bsp/inc/SYS.h **** #define SYS_ALT_MFP4_PA3_ADC3       0x00000000UL        /*!< ALT_MFP4 PA.3 setting for ADC3 */
 218:./bsp/inc/SYS.h **** 
 219:./bsp/inc/SYS.h **** #define SYS_GPA_MFP_PA3_UART3_TXD   (1UL<<3)            /*!< GPA_MFP PA.3 setting for UART3_TXD */
 220:./bsp/inc/SYS.h **** #define SYS_ALT_MFP_PA3_UART3_TXD   NULL                /*!< No ALT_MFP setting for PA.3 */
 221:./bsp/inc/SYS.h **** #define SYS_ALT_MFP1_PA3_UART3_TXD  NULL                /*!< No ALT_MFP1 setting for PA.3 */
 222:./bsp/inc/SYS.h **** #define SYS_ALT_MFP2_PA3_UART3_TXD  NULL                /*!< No ALT_MFP2 setting for PA.3 */
 223:./bsp/inc/SYS.h **** #define SYS_ALT_MFP3_PA3_UART3_TXD  0x00000000UL        /*!< ALT_MFP3 PA.3 setting for UART3_TXD */
 224:./bsp/inc/SYS.h **** #define SYS_ALT_MFP4_PA3_UART3_TXD  (1UL<<2)            /*!< ALT_MFP4 PA.3 setting for UART3_TXD */
 225:./bsp/inc/SYS.h **** 
 226:./bsp/inc/SYS.h **** #define SYS_GPA_MFP_PA3_PWM1_CH1    (1UL<<3)            /*!< GPA_MFP PA.3 setting for PWM1_CH1 */
 227:./bsp/inc/SYS.h **** #define SYS_ALT_MFP_PA3_PWM1_CH1    NULL                /*!< No ALT_MFP setting for PA.3 */
 228:./bsp/inc/SYS.h **** #define SYS_ALT_MFP1_PA3_PWM1_CH1   NULL                /*!< No ALT_MFP1 setting for PA.3 */
 229:./bsp/inc/SYS.h **** #define SYS_ALT_MFP2_PA3_PWM1_CH1   NULL                /*!< No ALT_MFP2 setting for PA.3 */
 230:./bsp/inc/SYS.h **** #define SYS_ALT_MFP3_PA3_PWM1_CH1   (1UL<<7)            /*!< ALT_MFP3 PA.3 setting for PWM1_CH1 */
 231:./bsp/inc/SYS.h **** #define SYS_ALT_MFP4_PA3_PWM1_CH1   0x00000000UL        /*!< ALT_MFP4 PA.3 setting for PWM1_CH1 */
 232:./bsp/inc/SYS.h **** 
 233:./bsp/inc/SYS.h **** #define SYS_GPA_MFP_PA3_Msk         (1UL<<3)            /*!< GPA_MFP PA.3 mask */
 234:./bsp/inc/SYS.h **** #define SYS_ALT_MFP_PA3_Msk         NULL                /*!< No ALT_MFP PA.3 mask */
 235:./bsp/inc/SYS.h **** #define SYS_ALT_MFP1_PA3_Msk        NULL                /*!< No ALT_MFP1 PA.3 mask */
 236:./bsp/inc/SYS.h **** #define SYS_ALT_MFP2_PA3_Msk        NULL                /*!< No ALT_MFP2 PA.3 mask */
 237:./bsp/inc/SYS.h **** #define SYS_ALT_MFP3_PA3_Msk        (1UL<<7)            /*!< ALT_MFP3 PA.3 mask */
 238:./bsp/inc/SYS.h **** #define SYS_ALT_MFP4_PA3_Msk        (1UL<<2)            /*!< ALT_MFP4 PA.3 mask */
 239:./bsp/inc/SYS.h **** 
 240:./bsp/inc/SYS.h **** //PA.4
 241:./bsp/inc/SYS.h **** #define SYS_GPA_MFP_PA4_GPIO        0x00000000UL        /*!< GPA_MFP PA.4 setting for GPIO */
 242:./bsp/inc/SYS.h **** #define SYS_ALT_MFP_PA4_GPIO        NULL                /*!< No ALT_MFP setting for PA.4 */
 243:./bsp/inc/SYS.h **** #define SYS_ALT_MFP1_PA4_GPIO       NULL                /*!< No ALT_MFP1 setting for PA.4 */
 244:./bsp/inc/SYS.h **** #define SYS_ALT_MFP2_PA4_GPIO       NULL                /*!< No ALT_MFP2 setting for PA.4 */
 245:./bsp/inc/SYS.h **** #define SYS_ALT_MFP3_PA4_GPIO       NULL                /*!< No ALT_MFP3 setting for PA.4 */
 246:./bsp/inc/SYS.h **** #define SYS_ALT_MFP4_PA4_GPIO       NULL                /*!< No ALT_MFP4 setting for PA.4 */
 247:./bsp/inc/SYS.h **** 
 248:./bsp/inc/SYS.h **** #define SYS_GPA_MFP_PA4_ADC4        (1UL<<4)            /*!< GPA_MFP PA.4 setting for ADC4 */
 249:./bsp/inc/SYS.h **** #define SYS_ALT_MFP_PA4_ADC4        NULL                /*!< No ALT_MFP setting for PA.4 */
 250:./bsp/inc/SYS.h **** #define SYS_ALT_MFP1_PA4_ADC4       NULL                /*!< No ALT_MFP1 setting for PA.4 */
 251:./bsp/inc/SYS.h **** #define SYS_ALT_MFP2_PA4_ADC4       NULL                /*!< No ALT_MFP2 setting for PA.4 */
 252:./bsp/inc/SYS.h **** #define SYS_ALT_MFP3_PA4_ADC4       NULL                /*!< No ALT_MFP3 setting for PA.4 */
 253:./bsp/inc/SYS.h **** #define SYS_ALT_MFP4_PA4_ADC4       NULL                /*!< No ALT_MFP4 setting for PA.4 */
 254:./bsp/inc/SYS.h **** 
 255:./bsp/inc/SYS.h **** #define SYS_GPA_MFP_PA4_Msk         (1UL<<4)            /*!< GPA_MFP PA.4 mask */
 256:./bsp/inc/SYS.h **** #define SYS_ALT_MFP_PA4_Msk         NULL                /*!< No ALT_MFP PA.4 mask */
 257:./bsp/inc/SYS.h **** #define SYS_ALT_MFP1_PA4_Msk        NULL                /*!< No ALT_MFP1 PA.4 mask */
 258:./bsp/inc/SYS.h **** #define SYS_ALT_MFP2_PA4_Msk        NULL                /*!< No ALT_MFP2 PA.4 mask */
 259:./bsp/inc/SYS.h **** #define SYS_ALT_MFP3_PA4_Msk        NULL                /*!< No ALT_MFP3 PA.4 mask */
 260:./bsp/inc/SYS.h **** #define SYS_ALT_MFP4_PA4_Msk        NULL                /*!< No ALT_MFP4 PA.4 mask */
 261:./bsp/inc/SYS.h **** 
 262:./bsp/inc/SYS.h **** //PA.5
 263:./bsp/inc/SYS.h **** #define SYS_GPA_MFP_PA5_GPIO        0x00000000UL        /*!< GPA_MFP PA.5 setting for GPIO */
 264:./bsp/inc/SYS.h **** #define SYS_ALT_MFP_PA5_GPIO        NULL                /*!< No ALT_MFP setting for PA.5 */
 265:./bsp/inc/SYS.h **** #define SYS_ALT_MFP1_PA5_GPIO       NULL                /*!< No ALT_MFP1 setting for PA.5 */
 266:./bsp/inc/SYS.h **** #define SYS_ALT_MFP2_PA5_GPIO       NULL                /*!< No ALT_MFP2 setting for PA.5 */
 267:./bsp/inc/SYS.h **** #define SYS_ALT_MFP3_PA5_GPIO       NULL                /*!< No ALT_MFP3 setting for PA.5 */
 268:./bsp/inc/SYS.h **** #define SYS_ALT_MFP4_PA5_GPIO       0x00000000UL        /*!< ALT_MFP4 PA.5 setting for GPIO */
 269:./bsp/inc/SYS.h **** 
 270:./bsp/inc/SYS.h **** #define SYS_GPA_MFP_PA5_ADC5        (1UL<<5)            /*!< GPA_MFP PA.5 setting for ADC5 */
 271:./bsp/inc/SYS.h **** #define SYS_ALT_MFP_PA5_ADC5        NULL                /*!< No ALT_MFP setting for PA.5 */
 272:./bsp/inc/SYS.h **** #define SYS_ALT_MFP1_PA5_ADC5       NULL                /*!< No ALT_MFP1 setting for PA.5 */
 273:./bsp/inc/SYS.h **** #define SYS_ALT_MFP2_PA5_ADC5       NULL                /*!< No ALT_MFP2 setting for PA.5 */
 274:./bsp/inc/SYS.h **** #define SYS_ALT_MFP3_PA5_ADC5       NULL                /*!< No ALT_MFP3 setting for PA.5 */
 275:./bsp/inc/SYS.h **** #define SYS_ALT_MFP4_PA5_ADC5       0x00000000UL        /*!< ALT_MFP4 PA.5 setting for ADC5 */
 276:./bsp/inc/SYS.h **** 
 277:./bsp/inc/SYS.h **** #define SYS_GPA_MFP_PA5_UART3_RXD   (1UL<<5)            /*!< GPA_MFP PA.5 setting for UART3_RXD */
 278:./bsp/inc/SYS.h **** #define SYS_ALT_MFP_PA5_UART3_RXD   NULL                /*!< No ALT_MFP setting for PA.5 */
 279:./bsp/inc/SYS.h **** #define SYS_ALT_MFP1_PA5_UART3_RXD  NULL                /*!< No ALT_MFP1 setting for PA.5 */
 280:./bsp/inc/SYS.h **** #define SYS_ALT_MFP2_PA5_UART3_RXD  NULL                /*!< No ALT_MFP2 setting for PA.5 */
 281:./bsp/inc/SYS.h **** #define SYS_ALT_MFP3_PA5_UART3_RXD  NULL                /*!< No ALT_MFP3 setting for PA.5 */
 282:./bsp/inc/SYS.h **** #define SYS_ALT_MFP4_PA5_UART3_RXD  (1UL<<4)            /*!< ALT_MFP4 PA.5 setting for UART3_RXD */
 283:./bsp/inc/SYS.h **** 
 284:./bsp/inc/SYS.h **** #define SYS_GPA_MFP_PA5_Msk         (1UL<<5)            /*!< GPA_MFP PA.5 mask */
 285:./bsp/inc/SYS.h **** #define SYS_ALT_MFP_PA5_Msk         NULL                /*!< No ALT_MFP PA.5 mask */
 286:./bsp/inc/SYS.h **** #define SYS_ALT_MFP1_PA5_Msk        NULL                /*!< No ALT_MFP1 PA.5 mask */
 287:./bsp/inc/SYS.h **** #define SYS_ALT_MFP2_PA5_Msk        NULL                /*!< No ALT_MFP2 PA.5 mask */
 288:./bsp/inc/SYS.h **** #define SYS_ALT_MFP3_PA5_Msk        NULL                /*!< No ALT_MFP3 PA.5 mask */
 289:./bsp/inc/SYS.h **** #define SYS_ALT_MFP4_PA5_Msk        (1UL<<4)            /*!< ALT_MFP4 PA.5 mask */
 290:./bsp/inc/SYS.h **** 
 291:./bsp/inc/SYS.h **** //PA.6
 292:./bsp/inc/SYS.h **** #define SYS_GPA_MFP_PA6_GPIO        0x00000000UL        /*!< GPA_MFP PA.6 setting for GPIO */
 293:./bsp/inc/SYS.h **** #define SYS_ALT_MFP_PA6_GPIO        NULL                /*!< No ALT_MFP setting for PA.6 */
 294:./bsp/inc/SYS.h **** #define SYS_ALT_MFP1_PA6_GPIO       NULL                /*!< No ALT_MFP1 setting for PA.6 */
 295:./bsp/inc/SYS.h **** #define SYS_ALT_MFP2_PA6_GPIO       NULL                /*!< No ALT_MFP2 setting for PA.6 */
 296:./bsp/inc/SYS.h **** #define SYS_ALT_MFP3_PA6_GPIO       NULL                /*!< No ALT_MFP3 setting for PA.6 */
 297:./bsp/inc/SYS.h **** #define SYS_ALT_MFP4_PA6_GPIO       0x00000000UL        /*!< ALT_MFP4 PA.6 setting for GPIO */
 298:./bsp/inc/SYS.h **** 
 299:./bsp/inc/SYS.h **** #define SYS_GPA_MFP_PA6_ADC6        (1UL<<6)            /*!< GPA_MFP PA.6 setting for ADC6 */
 300:./bsp/inc/SYS.h **** #define SYS_ALT_MFP_PA6_ADC6        NULL                /*!< No ALT_MFP setting for PA.6 */
 301:./bsp/inc/SYS.h **** #define SYS_ALT_MFP1_PA6_ADC6       NULL                /*!< No ALT_MFP1 setting for PA.6 */
 302:./bsp/inc/SYS.h **** #define SYS_ALT_MFP2_PA6_ADC6       NULL                /*!< No ALT_MFP2 setting for PA.6 */
 303:./bsp/inc/SYS.h **** #define SYS_ALT_MFP3_PA6_ADC6       NULL                /*!< No ALT_MFP3 setting for PA.6 */
 304:./bsp/inc/SYS.h **** #define SYS_ALT_MFP4_PA6_ADC6       0x00000000UL        /*!< ALT_MFP4 PA.6 setting for ADC6 */
 305:./bsp/inc/SYS.h **** 
 306:./bsp/inc/SYS.h **** #define SYS_GPA_MFP_PA6_UART3_TXD   (1UL<<6)            /*!< GPA_MFP PA.6 setting for UART3_TXD */
 307:./bsp/inc/SYS.h **** #define SYS_ALT_MFP_PA6_UART3_TXD   NULL                /*!< No ALT_MFP setting for PA.6 */
 308:./bsp/inc/SYS.h **** #define SYS_ALT_MFP1_PA6_UART3_TXD  NULL                /*!< No ALT_MFP1 setting for PA.6 */
 309:./bsp/inc/SYS.h **** #define SYS_ALT_MFP2_PA6_UART3_TXD  NULL                /*!< No ALT_MFP2 setting for PA.6 */
 310:./bsp/inc/SYS.h **** #define SYS_ALT_MFP3_PA6_UART3_TXD  NULL                /*!< No ALT_MFP3 setting for PA.6 */
 311:./bsp/inc/SYS.h **** #define SYS_ALT_MFP4_PA6_UART3_TXD  (1UL<<5)            /*!< ALT_MFP4 PA.6 setting for UART3_TXD */
 312:./bsp/inc/SYS.h **** 
 313:./bsp/inc/SYS.h **** #define SYS_GPA_MFP_PA6_Msk         (1UL<<6)            /*!< GPA_MFP PA.6 mask */
 314:./bsp/inc/SYS.h **** #define SYS_ALT_MFP_PA6_Msk         NULL                /*!< No ALT_MFP PA.6 mask */
 315:./bsp/inc/SYS.h **** #define SYS_ALT_MFP1_PA6_Msk        NULL                /*!< No ALT_MFP1 PA.6 mask */
 316:./bsp/inc/SYS.h **** #define SYS_ALT_MFP2_PA6_Msk        NULL                /*!< No ALT_MFP2 PA.6 mask */
 317:./bsp/inc/SYS.h **** #define SYS_ALT_MFP3_PA6_Msk        NULL                /*!< No ALT_MFP3 PA.6 mask */
 318:./bsp/inc/SYS.h **** #define SYS_ALT_MFP4_PA6_Msk        (1UL<<5)            /*!< ALT_MFP4 PA.6 mask */
 319:./bsp/inc/SYS.h **** 
 320:./bsp/inc/SYS.h **** //PA.7
 321:./bsp/inc/SYS.h **** #define SYS_GPA_MFP_PA7_GPIO        0x00000000UL        /*!< GPA_MFP PA.7 setting for GPIO */
 322:./bsp/inc/SYS.h **** #define SYS_ALT_MFP_PA7_GPIO        NULL                /*!< No ALT_MFP setting for PA.7 */
 323:./bsp/inc/SYS.h **** #define SYS_ALT_MFP1_PA7_GPIO       NULL                /*!< No ALT_MFP1 setting for PA.7 */
 324:./bsp/inc/SYS.h **** #define SYS_ALT_MFP2_PA7_GPIO       NULL                /*!< No ALT_MFP2 setting for PA.7 */
 325:./bsp/inc/SYS.h **** #define SYS_ALT_MFP3_PA7_GPIO       NULL                /*!< No ALT_MFP3 setting for PA.7 */
 326:./bsp/inc/SYS.h **** #define SYS_ALT_MFP4_PA7_GPIO       0x00000000UL        /*!< ALT_MFP4 PA.7 setting for GPIO */
 327:./bsp/inc/SYS.h **** 
 328:./bsp/inc/SYS.h **** #define SYS_GPA_MFP_PA7_ADC7        (1UL<<7)            /*!< GPA_MFP PA.7 setting for ADC7 */
 329:./bsp/inc/SYS.h **** #define SYS_ALT_MFP_PA7_ADC7        NULL                /*!< No ALT_MFP setting for PA.7 */
 330:./bsp/inc/SYS.h **** #define SYS_ALT_MFP1_PA7_ADC7       NULL                /*!< No ALT_MFP1 setting for PA.7 */
 331:./bsp/inc/SYS.h **** #define SYS_ALT_MFP2_PA7_ADC7       NULL                /*!< No ALT_MFP2 setting for PA.7 */
 332:./bsp/inc/SYS.h **** #define SYS_ALT_MFP3_PA7_ADC7       NULL                /*!< No ALT_MFP3 setting for PA.7 */
 333:./bsp/inc/SYS.h **** #define SYS_ALT_MFP4_PA7_ADC7       0x00000000UL        /*!< ALT_MFP4 PA.7 setting for ADC7 */
 334:./bsp/inc/SYS.h **** 
 335:./bsp/inc/SYS.h **** #define SYS_GPA_MFP_PA7_VREF        (1UL<<7)            /*!< GPA_MFP PA.7 setting for VREF */
 336:./bsp/inc/SYS.h **** #define SYS_ALT_MFP_PA7_VREF        NULL                /*!< No ALT_MFP setting for PA.7 */
 337:./bsp/inc/SYS.h **** #define SYS_ALT_MFP1_PA7_VREF       NULL                /*!< No ALT_MFP1 setting for PA.7 */
 338:./bsp/inc/SYS.h **** #define SYS_ALT_MFP2_PA7_VREF       NULL                /*!< No ALT_MFP2 setting for PA.7 */
 339:./bsp/inc/SYS.h **** #define SYS_ALT_MFP3_PA7_VREF       NULL                /*!< No ALT_MFP3 setting for PA.7 */
 340:./bsp/inc/SYS.h **** #define SYS_ALT_MFP4_PA7_VREF       (1UL<<14)           /*!< ALT_MFP4 PA.7 setting for VREF */
 341:./bsp/inc/SYS.h **** 
 342:./bsp/inc/SYS.h **** #define SYS_GPA_MFP_PA7_Msk         (1UL<<7)            /*!< GPA_MFP PA.7 mask */
 343:./bsp/inc/SYS.h **** #define SYS_ALT_MFP_PA7_Msk         NULL                /*!< No ALT_MFP PA.7 mask */
 344:./bsp/inc/SYS.h **** #define SYS_ALT_MFP1_PA7_Msk        NULL                /*!< No ALT_MFP1 PA.7 mask */
 345:./bsp/inc/SYS.h **** #define SYS_ALT_MFP2_PA7_Msk        NULL                /*!< No ALT_MFP2 PA.7 mask */
 346:./bsp/inc/SYS.h **** #define SYS_ALT_MFP3_PA7_Msk        NULL                /*!< No ALT_MFP3 PA.7 mask */
 347:./bsp/inc/SYS.h **** #define SYS_ALT_MFP4_PA7_Msk        (1UL<<14)            /*!< ALT_MFP4 PA.7 mask */
 348:./bsp/inc/SYS.h **** 
 349:./bsp/inc/SYS.h **** //PA.8
 350:./bsp/inc/SYS.h **** #define SYS_GPA_MFP_PA8_GPIO        0x00000000UL        /*!< GPA_MFP PA.8 setting for GPIO */
 351:./bsp/inc/SYS.h **** #define SYS_ALT_MFP_PA8_GPIO        NULL                /*!< No ALT_MFP setting for PA.8 */
 352:./bsp/inc/SYS.h **** #define SYS_ALT_MFP1_PA8_GPIO       NULL                /*!< No ALT_MFP1 setting for PA.8 */
 353:./bsp/inc/SYS.h **** #define SYS_ALT_MFP2_PA8_GPIO       NULL                /*!< No ALT_MFP2 setting for PA.8 */
 354:./bsp/inc/SYS.h **** #define SYS_ALT_MFP3_PA8_GPIO       NULL                /*!< No ALT_MFP3 setting for PA.8 */
 355:./bsp/inc/SYS.h **** #define SYS_ALT_MFP4_PA8_GPIO       0x00000000UL        /*!< ALT_MFP4 PA.8 setting for GPIO */
 356:./bsp/inc/SYS.h **** 
 357:./bsp/inc/SYS.h **** #define SYS_GPA_MFP_PA8_I2C0_SDA     (1UL<<8)           /*!< GPA_MFP PA.8 setting for I2C0_SDA */
 358:./bsp/inc/SYS.h **** #define SYS_ALT_MFP_PA8_I2C0_SDA    NULL                /*!< No ALT_MFP setting for PA.8 */
 359:./bsp/inc/SYS.h **** #define SYS_ALT_MFP1_PA8_I2C0_SDA   NULL                /*!< No ALT_MFP1 setting for PA.8 */
 360:./bsp/inc/SYS.h **** #define SYS_ALT_MFP2_PA8_I2C0_SDA   NULL                /*!< No ALT_MFP2 setting for PA.8 */
 361:./bsp/inc/SYS.h **** #define SYS_ALT_MFP3_PA8_I2C0_SDA   NULL                /*!< No ALT_MFP3 setting for PA.8 */
 362:./bsp/inc/SYS.h **** #define SYS_ALT_MFP4_PA8_I2C0_SDA   0x00000000UL        /*!< ALT_MFP4 PA.8 setting for I2C0_SDA */
 363:./bsp/inc/SYS.h **** 
 364:./bsp/inc/SYS.h **** #define SYS_GPA_MFP_PA8_UART_nRTS    (1UL<<8)           /*!< GPA_MFP PA.8 setting for UART_nRTS */
 365:./bsp/inc/SYS.h **** #define SYS_ALT_MFP_PA8_UART_nRTS   NULL                /*!< No ALT_MFP setting for PA.8 */
 366:./bsp/inc/SYS.h **** #define SYS_ALT_MFP1_PA8_UART_nRTS  NULL                /*!< No ALT_MFP1 setting for PA.8 */
 367:./bsp/inc/SYS.h **** #define SYS_ALT_MFP2_PA8_UART_nRTS  NULL                /*!< No ALT_MFP2 setting for PA.8 */
 368:./bsp/inc/SYS.h **** #define SYS_ALT_MFP3_PA8_UART_nRTS  NULL                /*!< No ALT_MFP3 setting for PA.8 */
 369:./bsp/inc/SYS.h **** #define SYS_ALT_MFP4_PA8_UART_nRTS  (1UL<<0)            /*!< ALT_MFP4 PA.8 setting for UART_nRTS */
 370:./bsp/inc/SYS.h **** 
 371:./bsp/inc/SYS.h **** #define SYS_GPA_MFP_PA8_Msk         (1UL<<8)            /*!< GPA_MFP PA.8 mask */
 372:./bsp/inc/SYS.h **** #define SYS_ALT_MFP_PA8_Msk         NULL                /*!< No ALT_MFP PA.8 mask */
 373:./bsp/inc/SYS.h **** #define SYS_ALT_MFP1_PA8_Msk        NULL                /*!< No ALT_MFP1 PA.8 mask */
 374:./bsp/inc/SYS.h **** #define SYS_ALT_MFP2_PA8_Msk        NULL                /*!< No ALT_MFP2 PA.8 mask */
 375:./bsp/inc/SYS.h **** #define SYS_ALT_MFP3_PA8_Msk        NULL                /*!< No ALT_MFP3 PA.8 mask */
 376:./bsp/inc/SYS.h **** #define SYS_ALT_MFP4_PA8_Msk        (1UL<<0)            /*!< ALT_MFP4 PA.8 mask */
 377:./bsp/inc/SYS.h **** 
 378:./bsp/inc/SYS.h **** //PA.9
 379:./bsp/inc/SYS.h **** #define SYS_GPA_MFP_PA9_GPIO        0x00000000UL        /*!< GPA_MFP PA.9 setting for GPIO */
 380:./bsp/inc/SYS.h **** #define SYS_ALT_MFP_PA9_GPIO        NULL                /*!< No ALT_MFP setting for PA.9 */
 381:./bsp/inc/SYS.h **** #define SYS_ALT_MFP1_PA9_GPIO       NULL                /*!< No ALT_MFP1 setting for PA.9 */
 382:./bsp/inc/SYS.h **** #define SYS_ALT_MFP2_PA9_GPIO       NULL                /*!< No ALT_MFP2 setting for PA.9 */
 383:./bsp/inc/SYS.h **** #define SYS_ALT_MFP3_PA9_GPIO       NULL                /*!< No ALT_MFP3 setting for PA.9 */
 384:./bsp/inc/SYS.h **** #define SYS_ALT_MFP4_PA9_GPIO       0x00000000UL        /*!< ALT_MFP4 PA.9 setting for GPIO */
 385:./bsp/inc/SYS.h **** 
 386:./bsp/inc/SYS.h **** #define SYS_GPA_MFP_PA9_I2C0_SCL    (1UL<<9)            /*!< GPA_MFP PA.9 setting for I2C0_SCL */
 387:./bsp/inc/SYS.h **** #define SYS_ALT_MFP_PA9_I2C0_SCL    NULL                /*!< No ALT_MFP setting for PA.9 */
 388:./bsp/inc/SYS.h **** #define SYS_ALT_MFP1_PA9_I2C0_SCL   NULL                /*!< No ALT_MFP1 setting for PA.9 */
 389:./bsp/inc/SYS.h **** #define SYS_ALT_MFP2_PA9_I2C0_SCL   NULL                /*!< No ALT_MFP2 setting for PA.9 */
 390:./bsp/inc/SYS.h **** #define SYS_ALT_MFP3_PA9_I2C0_SCL   NULL                /*!< No ALT_MFP3 setting for PA.9 */
 391:./bsp/inc/SYS.h **** #define SYS_ALT_MFP4_PA9_I2C0_SCL   0x00000000UL        /*!< ALT_MFP4 PA.9 setting for I2C0_SCL */
 392:./bsp/inc/SYS.h **** 
 393:./bsp/inc/SYS.h **** #define SYS_GPA_MFP_PA9_UART1_nCTS   (1UL<<9)           /*!< GPA_MFP PA.9 setting for UART1_nCTS */
 394:./bsp/inc/SYS.h **** #define SYS_ALT_MFP_PA9_UART1_nCTS   NULL               /*!< No ALT_MFP setting for PA.9 */
 395:./bsp/inc/SYS.h **** #define SYS_ALT_MFP1_PA9_UART1_nCTS  NULL               /*!< No ALT_MFP1 setting for PA.9 */
 396:./bsp/inc/SYS.h **** #define SYS_ALT_MFP2_PA9_UART1_nCTS  NULL               /*!< No ALT_MFP2 setting for PA.9 */
 397:./bsp/inc/SYS.h **** #define SYS_ALT_MFP3_PA9_UART1_nCTS  NULL               /*!< No ALT_MFP3 setting for PA.9 */
 398:./bsp/inc/SYS.h **** #define SYS_ALT_MFP4_PA9_UART1_nCTS  (1UL<<1)           /*!< ALT_MFP4 PA.9 setting for UART1_nCTS *
 399:./bsp/inc/SYS.h **** 
 400:./bsp/inc/SYS.h **** #define SYS_GPA_MFP_PA9_Msk          (1UL<<9)           /*!< GPA_MFP PA.9 mask */
 401:./bsp/inc/SYS.h **** #define SYS_ALT_MFP_PA9_Msk          NULL               /*!< No ALT_MFP PA.9 mask */
 402:./bsp/inc/SYS.h **** #define SYS_ALT_MFP1_PA9_Msk         NULL               /*!< No ALT_MFP1 PA.9 mask */
 403:./bsp/inc/SYS.h **** #define SYS_ALT_MFP2_PA9_Msk         NULL               /*!< No ALT_MFP2 PA.9 mask */
 404:./bsp/inc/SYS.h **** #define SYS_ALT_MFP3_PA9_Msk         NULL               /*!< No ALT_MFP3 PA.9 mask */
 405:./bsp/inc/SYS.h **** #define SYS_ALT_MFP4_PA9_Msk         (1UL<<1)           /*!< ALT_MFP4 PA.9 mask */
 406:./bsp/inc/SYS.h **** 
 407:./bsp/inc/SYS.h **** //PA.10
 408:./bsp/inc/SYS.h **** #define SYS_GPA_MFP_PA10_GPIO        0x00000000UL       /*!< GPA_MFP PA.10 setting for GPIO */
 409:./bsp/inc/SYS.h **** #define SYS_ALT_MFP_PA10_GPIO        NULL               /*!< No ALT_MFP setting for PA.10 */
 410:./bsp/inc/SYS.h **** #define SYS_ALT_MFP1_PA10_GPIO       NULL               /*!< No ALT_MFP1 setting for PA.10 */
 411:./bsp/inc/SYS.h **** #define SYS_ALT_MFP2_PA10_GPIO       NULL               /*!< No ALT_MFP2 setting for PA.10 */
 412:./bsp/inc/SYS.h **** #define SYS_ALT_MFP3_PA10_GPIO       0x00000000UL       /*!< ALT_MFP3 PA.10 setting for GPIO */
 413:./bsp/inc/SYS.h **** #define SYS_ALT_MFP4_PA10_GPIO       NULL               /*!< No ALT_MFP4 setting for PA.10 */
 414:./bsp/inc/SYS.h **** 
 415:./bsp/inc/SYS.h **** #define SYS_GPA_MFP_PA10_I2C1_SDA    (1UL<<10)          /*!< GPA_MFP PA.10 setting for I2C1_SDA */
 416:./bsp/inc/SYS.h **** #define SYS_ALT_MFP_PA10_I2C1_SDA    NULL               /*!< No ALT_MFP setting for PA.10 */
 417:./bsp/inc/SYS.h **** #define SYS_ALT_MFP1_PA10_I2C1_SDA   NULL               /*!< No ALT_MFP1 setting for PA.10 */
 418:./bsp/inc/SYS.h **** #define SYS_ALT_MFP2_PA10_I2C1_SDA   NULL               /*!< No ALT_MFP2 setting for PA.10 */
 419:./bsp/inc/SYS.h **** #define SYS_ALT_MFP3_PA10_I2C1_SDA   0x00000000UL       /*!< ALT_MFP3 PA.10 setting for I2C1_SDA */
 420:./bsp/inc/SYS.h **** #define SYS_ALT_MFP4_PA10_I2C1_SDA   NULL               /*!< No ALT_MFP4 setting for PA.10 */
 421:./bsp/inc/SYS.h **** 
 422:./bsp/inc/SYS.h **** #define SYS_GPA_MFP_PA10_PWM1_CH2    (1UL<<10)          /*!< GPA_MFP PA.10 setting for PWM1_CH2 */
 423:./bsp/inc/SYS.h **** #define SYS_ALT_MFP_PA10_PWM1_CH2    NULL               /*!< No ALT_MFP setting for PA.10 */
 424:./bsp/inc/SYS.h **** #define SYS_ALT_MFP1_PA10_PWM1_CH2   NULL               /*!< No ALT_MFP1 setting for PA.10 */
 425:./bsp/inc/SYS.h **** #define SYS_ALT_MFP2_PA10_PWM1_CH2   NULL               /*!< No ALT_MFP2 setting for PA.10 */
 426:./bsp/inc/SYS.h **** #define SYS_ALT_MFP3_PA10_PWM1_CH2   (1UL<<8)           /*!< ALT_MFP3 PA.10 setting for PWM1_CH2 */
 427:./bsp/inc/SYS.h **** #define SYS_ALT_MFP4_PA10_PWM1_CH2   NULL               /*!< No ALT_MFP4 setting for PA.10 */
 428:./bsp/inc/SYS.h **** 
 429:./bsp/inc/SYS.h **** #define SYS_GPA_MFP_PA10_Msk         (1UL<<10)          /*!< GPA_MFP PA.10 mask */
 430:./bsp/inc/SYS.h **** #define SYS_ALT_MFP_PA10_Msk         NULL               /*!< No ALT_MFP PA.10 mask */
 431:./bsp/inc/SYS.h **** #define SYS_ALT_MFP1_PA10_Msk        NULL               /*!< No ALT_MFP1 PA.10 mask */
 432:./bsp/inc/SYS.h **** #define SYS_ALT_MFP2_PA10_Msk        NULL               /*!< No ALT_MFP2 PA.10 mask */
 433:./bsp/inc/SYS.h **** #define SYS_ALT_MFP3_PA10_Msk        (1UL<<8)           /*!< ALT_MFP3 PA.10 mask */
 434:./bsp/inc/SYS.h **** #define SYS_ALT_MFP4_PA10_Msk        NULL               /*!< No ALT_MFP4 PA.10 mask */
 435:./bsp/inc/SYS.h **** 
 436:./bsp/inc/SYS.h **** //PA.11
 437:./bsp/inc/SYS.h **** #define SYS_GPA_MFP_PA11_GPIO        0x00000000UL       /*!< GPA_MFP PA.11 setting for GPIO */
 438:./bsp/inc/SYS.h **** #define SYS_ALT_MFP_PA11_GPIO        NULL               /*!< No ALT_MFP setting for PA.11 */
 439:./bsp/inc/SYS.h **** #define SYS_ALT_MFP1_PA11_GPIO       NULL               /*!< No ALT_MFP1 setting for PA.11 */
 440:./bsp/inc/SYS.h **** #define SYS_ALT_MFP2_PA11_GPIO       NULL               /*!< No ALT_MFP2 setting for PA.11 */
 441:./bsp/inc/SYS.h **** #define SYS_ALT_MFP3_PA11_GPIO       0x00000000UL       /*!< ALT_MFP3 PA.11 setting for GPIO */
 442:./bsp/inc/SYS.h **** #define SYS_ALT_MFP4_PA11_GPIO       NULL               /*!< No ALT_MFP4 setting for PA.11 */
 443:./bsp/inc/SYS.h **** 
 444:./bsp/inc/SYS.h **** #define SYS_GPA_MFP_PA11_I2C1_SCL    (1UL<<11)          /*!< GPA_MFP PA.11 setting for I2C1_SCL */
 445:./bsp/inc/SYS.h **** #define SYS_ALT_MFP_PA11_I2C1_SCL    NULL               /*!< No ALT_MFP setting for PA.11 */
 446:./bsp/inc/SYS.h **** #define SYS_ALT_MFP1_PA11_I2C1_SCL   NULL               /*!< No ALT_MFP1 setting for PA.11 */
 447:./bsp/inc/SYS.h **** #define SYS_ALT_MFP2_PA11_I2C1_SCL   NULL               /*!< No ALT_MFP2 setting for PA.11 */
 448:./bsp/inc/SYS.h **** #define SYS_ALT_MFP3_PA11_I2C1_SCL   0x00000000UL       /*!< ALT_MFP3 PA.11 setting for I2C1_SCL */
 449:./bsp/inc/SYS.h **** #define SYS_ALT_MFP4_PA11_I2C1_SCL   NULL               /*!< No ALT_MFP4 setting for PA.11 */
 450:./bsp/inc/SYS.h **** 
 451:./bsp/inc/SYS.h **** #define SYS_GPA_MFP_PA11_PWM1_CH3    (1UL<<11)          /*!< GPA_MFP PA.11 setting for PWM1_CH3 */
 452:./bsp/inc/SYS.h **** #define SYS_ALT_MFP_PA11_PWM1_CH3    NULL               /*!< No ALT_MFP setting for PA.11 */
 453:./bsp/inc/SYS.h **** #define SYS_ALT_MFP1_PA11_PWM1_CH3   NULL               /*!< No ALT_MFP1 setting for PA.11 */
 454:./bsp/inc/SYS.h **** #define SYS_ALT_MFP2_PA11_PWM1_CH3   NULL               /*!< No ALT_MFP2 setting for PA.11 */
 455:./bsp/inc/SYS.h **** #define SYS_ALT_MFP3_PA11_PWM1_CH3   (1UL<<9)           /*!< ALT_MFP3 PA.11 setting for PWM1_CH3 */
 456:./bsp/inc/SYS.h **** #define SYS_ALT_MFP4_PA11_PWM1_CH3   NULL               /*!< No ALT_MFP4 setting for PA.11 */
 457:./bsp/inc/SYS.h **** 
 458:./bsp/inc/SYS.h **** #define SYS_GPA_MFP_PA11_Msk         (1UL<<11)          /*!< GPA_MFP PA.11 mask */
 459:./bsp/inc/SYS.h **** #define SYS_ALT_MFP_PA11_Msk         NULL               /*!< No ALT_MFP PA.11 mask */
 460:./bsp/inc/SYS.h **** #define SYS_ALT_MFP1_PA11_Msk        NULL               /*!< No ALT_MFP1 PA.11 mask */
 461:./bsp/inc/SYS.h **** #define SYS_ALT_MFP2_PA11_Msk        NULL               /*!< No ALT_MFP2 PA.11 mask */
 462:./bsp/inc/SYS.h **** #define SYS_ALT_MFP3_PA11_Msk        (1UL<<9)           /*!< ALT_MFP3 PA.11 mask */
 463:./bsp/inc/SYS.h **** #define SYS_ALT_MFP4_PA11_Msk        NULL               /*!< No ALT_MFP4 PA.11 mask */
 464:./bsp/inc/SYS.h **** 
 465:./bsp/inc/SYS.h **** //PA.12
 466:./bsp/inc/SYS.h **** #define SYS_GPA_MFP_PA12_GPIO        0x00000000UL       /*!< GPA_MFP PA.12 setting for GPIO */
 467:./bsp/inc/SYS.h **** #define SYS_ALT_MFP_PA12_GPIO        NULL               /*!< No ALT_MFP setting for PA.12 */
 468:./bsp/inc/SYS.h **** #define SYS_ALT_MFP1_PA12_GPIO       NULL               /*!< No ALT_MFP1 setting for PA.12 */
 469:./bsp/inc/SYS.h **** #define SYS_ALT_MFP2_PA12_GPIO       NULL               /*!< No ALT_MFP2 setting for PA.12 */
 470:./bsp/inc/SYS.h **** #define SYS_ALT_MFP3_PA12_GPIO       NULL               /*!< No ALT_MFP3 setting for PA.12 */
 471:./bsp/inc/SYS.h **** #define SYS_ALT_MFP4_PA12_GPIO       0x00000000UL       /*!< ALT_MFP4 PA.12 setting for for GPIO */
 472:./bsp/inc/SYS.h **** 
 473:./bsp/inc/SYS.h **** #define SYS_GPA_MFP_PA12_PWM0_CH0    (1UL<<12)          /*!< GPA_MFP PA.12 setting for PWM0_CH0 */
 474:./bsp/inc/SYS.h **** #define SYS_ALT_MFP_PA12_PWM0_CH0    NULL               /*!< No ALT_MFP setting for PA.12 */
 475:./bsp/inc/SYS.h **** #define SYS_ALT_MFP1_PA12_PWM0_CH0   NULL               /*!< No ALT_MFP1 setting for PA.12 */
 476:./bsp/inc/SYS.h **** #define SYS_ALT_MFP2_PA12_PWM0_CH0   NULL               /*!< No ALT_MFP2 setting for PA.12 */
 477:./bsp/inc/SYS.h **** #define SYS_ALT_MFP3_PA12_PWM0_CH0   NULL               /*!< No ALT_MFP3 setting for PA.12 */
 478:./bsp/inc/SYS.h **** #define SYS_ALT_MFP4_PA12_PWM0_CH0   0x00000000UL       /*!< ALT_MFP4 PA.12 setting for PWM0_CH0 */
 479:./bsp/inc/SYS.h **** 
 480:./bsp/inc/SYS.h **** #define SYS_GPA_MFP_PA12_UART5_RXD   (1UL<<12)          /*!< GPA_MFP PA.12 setting for UART5_RXD */
 481:./bsp/inc/SYS.h **** #define SYS_ALT_MFP_PA12_UART5_RXD   NULL               /*!< No ALT_MFP setting for PA.12 */
 482:./bsp/inc/SYS.h **** #define SYS_ALT_MFP1_PA12_UART5_RXD  NULL               /*!< No ALT_MFP1 setting for PA.12 */
 483:./bsp/inc/SYS.h **** #define SYS_ALT_MFP2_PA12_UART5_RXD  NULL               /*!< No ALT_MFP2 setting for PA.12 */
 484:./bsp/inc/SYS.h **** #define SYS_ALT_MFP3_PA12_UART5_RXD  NULL               /*!< No ALT_MFP3 setting for PA.12 */
 485:./bsp/inc/SYS.h **** #define SYS_ALT_MFP4_PA12_UART5_RXD  (1UL<<8)           /*!< ALT_MFP4 PA.12 setting for  UART5_RXD 
 486:./bsp/inc/SYS.h **** 
 487:./bsp/inc/SYS.h **** #define SYS_GPA_MFP_PA12_Msk         (1UL<<12)          /*!< GPA_MFP PA.12 mask */
 488:./bsp/inc/SYS.h **** #define SYS_ALT_MFP_PA12_Msk         NULL               /*!< No ALT_MFP PA.12 mask */
 489:./bsp/inc/SYS.h **** #define SYS_ALT_MFP1_PA12_Msk        NULL               /*!< No ALT_MFP1 PA.12 mask */
 490:./bsp/inc/SYS.h **** #define SYS_ALT_MFP2_PA12_Msk        NULL               /*!< No ALT_MFP2 PA.12 mask */
 491:./bsp/inc/SYS.h **** #define SYS_ALT_MFP3_PA12_Msk        NULL               /*!< No ALT_MFP3 PA.12 mask */
 492:./bsp/inc/SYS.h **** #define SYS_ALT_MFP4_PA12_Msk        (1UL<<8)           /*!< ALT_MFP4 PA.12 mask */
 493:./bsp/inc/SYS.h **** 
 494:./bsp/inc/SYS.h **** //PA.13
 495:./bsp/inc/SYS.h **** #define SYS_GPA_MFP_PA13_GPIO        0x00000000UL       /*!< GPA_MFP PA.13 setting for GPIO */
 496:./bsp/inc/SYS.h **** #define SYS_ALT_MFP_PA13_GPIO        NULL               /*!< No ALT_MFP setting for PA.13 */
 497:./bsp/inc/SYS.h **** #define SYS_ALT_MFP1_PA13_GPIO       NULL               /*!< No ALT_MFP1 setting for PA.13 */
 498:./bsp/inc/SYS.h **** #define SYS_ALT_MFP2_PA13_GPIO       NULL               /*!< No ALT_MFP2 setting for PA.13 */
 499:./bsp/inc/SYS.h **** #define SYS_ALT_MFP3_PA13_GPIO       NULL               /*!< No ALT_MFP3 setting for PA.13 */
 500:./bsp/inc/SYS.h **** #define SYS_ALT_MFP4_PA13_GPIO       0x00000000UL       /*!< ALT_MFP4 PA.13 setting for for GPIO */
 501:./bsp/inc/SYS.h **** 
 502:./bsp/inc/SYS.h **** #define SYS_GPA_MFP_PA13_PWM0_CH1    (1UL<<13)          /*!< GPA_MFP PA.13 setting for PWM0_CH1 */
 503:./bsp/inc/SYS.h **** #define SYS_ALT_MFP_PA13_PWM0_CH1    NULL               /*!< No ALT_MFP setting for PA.13 */
 504:./bsp/inc/SYS.h **** #define SYS_ALT_MFP1_PA13_PWM0_CH1   NULL               /*!< No ALT_MFP1 setting for PA.13 */
 505:./bsp/inc/SYS.h **** #define SYS_ALT_MFP2_PA13_PWM0_CH1   NULL               /*!< No ALT_MFP2 setting for PA.13 */
 506:./bsp/inc/SYS.h **** #define SYS_ALT_MFP3_PA13_PWM0_CH1   NULL               /*!< No ALT_MFP3 setting for PA.13 */
 507:./bsp/inc/SYS.h **** #define SYS_ALT_MFP4_PA13_PWM0_CH1   0x00000000UL       /*!< ALT_MFP4 PA.13 setting for PWM0_CH1 */
 508:./bsp/inc/SYS.h **** 
 509:./bsp/inc/SYS.h **** #define SYS_GPA_MFP_PA13_UART5_TXD   (1UL<<13)          /*!< GPA_MFP PA.13 setting for UART5_TXD */
 510:./bsp/inc/SYS.h **** #define SYS_ALT_MFP_PA13_UART5_TXD   NULL               /*!< No ALT_MFP setting for PA.13 */
 511:./bsp/inc/SYS.h **** #define SYS_ALT_MFP1_PA13_UART5_TXD  NULL               /*!< No ALT_MFP1 setting for PA.13 */
 512:./bsp/inc/SYS.h **** #define SYS_ALT_MFP2_PA13_UART5_TXD  NULL               /*!< No ALT_MFP2 setting for PA.13 */
 513:./bsp/inc/SYS.h **** #define SYS_ALT_MFP3_PA13_UART5_TXD  NULL               /*!< No ALT_MFP3 setting for PA.13 */
 514:./bsp/inc/SYS.h **** #define SYS_ALT_MFP4_PA13_UART5_TXD  (1UL<<9)           /*!< ALT_MFP4 PA.13 setting for UART5_TXD *
 515:./bsp/inc/SYS.h **** 
 516:./bsp/inc/SYS.h **** #define SYS_GPA_MFP_PA13_Msk         (1UL<<13)          /*!< GPA_MFP PA.13 mask */
 517:./bsp/inc/SYS.h **** #define SYS_ALT_MFP_PA13_Msk         NULL               /*!< No ALT_MFP PA.13 mask */
 518:./bsp/inc/SYS.h **** #define SYS_ALT_MFP1_PA13_Msk        NULL               /*!< No ALT_MFP1 PA.13 mask */
 519:./bsp/inc/SYS.h **** #define SYS_ALT_MFP2_PA13_Msk        NULL               /*!< No ALT_MFP2 PA.13 mask */
 520:./bsp/inc/SYS.h **** #define SYS_ALT_MFP3_PA13_Msk        NULL               /*!< No ALT_MFP3 PA.13 mask */
 521:./bsp/inc/SYS.h **** #define SYS_ALT_MFP4_PA13_Msk        (1UL<<9)           /*!< ALT_MFP4 PA.13 mask */
 522:./bsp/inc/SYS.h **** 
 523:./bsp/inc/SYS.h **** //PA.14
 524:./bsp/inc/SYS.h **** #define SYS_GPA_MFP_PA14_GPIO        0x00000000UL       /*!< GPA_MFP PA.14 setting for GPIO */
 525:./bsp/inc/SYS.h **** #define SYS_ALT_MFP_PA14_GPIO        NULL               /*!< No ALT_MFP setting for PA.14 */
 526:./bsp/inc/SYS.h **** #define SYS_ALT_MFP1_PA14_GPIO       NULL               /*!< No ALT_MFP1 setting for PA.14 */
 527:./bsp/inc/SYS.h **** #define SYS_ALT_MFP2_PA14_GPIO       NULL               /*!< No ALT_MFP2 setting for PA.14 */
 528:./bsp/inc/SYS.h **** #define SYS_ALT_MFP3_PA14_GPIO       NULL               /*!< No ALT_MFP3 setting for PA.14 */
 529:./bsp/inc/SYS.h **** #define SYS_ALT_MFP4_PA14_GPIO       NULL               /*!< No ALT_MFP4 setting for PA.14 */
 530:./bsp/inc/SYS.h **** 
 531:./bsp/inc/SYS.h **** #define SYS_GPA_MFP_PA14_PWM0_CH2    (1UL<<14)          /*!< GPA_MFP PA.14 setting for PWM0_CH2 */
 532:./bsp/inc/SYS.h **** #define SYS_ALT_MFP_PA14_PWM0_CH2    NULL               /*!< No ALT_MFP setting for PA.14 */
 533:./bsp/inc/SYS.h **** #define SYS_ALT_MFP1_PA14_PWM0_CH2   NULL               /*!< No ALT_MFP1 setting for PA.14 */
 534:./bsp/inc/SYS.h **** #define SYS_ALT_MFP2_PA14_PWM0_CH2   NULL               /*!< No ALT_MFP2 setting for PA.14 */
 535:./bsp/inc/SYS.h **** #define SYS_ALT_MFP3_PA14_PWM0_CH2   NULL               /*!< No ALT_MFP3 setting for PA.14 */
 536:./bsp/inc/SYS.h **** #define SYS_ALT_MFP4_PA14_PWM0_CH2   NULL               /*!< No ALT_MFP4 setting for PA.14 */
 537:./bsp/inc/SYS.h **** 
 538:./bsp/inc/SYS.h **** #define SYS_GPA_MFP_PA14_Msk         (1UL<<14)          /*!< GPA_MFP PA.14 mask */
 539:./bsp/inc/SYS.h **** #define SYS_ALT_MFP_PA14_Msk         NULL               /*!< No ALT_MFP PA.14 mask */
 540:./bsp/inc/SYS.h **** #define SYS_ALT_MFP1_PA14_Msk        NULL               /*!< No ALT_MFP1 PA.14 mask */
 541:./bsp/inc/SYS.h **** #define SYS_ALT_MFP2_PA14_Msk        NULL               /*!< No ALT_MFP2 PA.14 mask */
 542:./bsp/inc/SYS.h **** #define SYS_ALT_MFP3_PA14_Msk        NULL               /*!< No ALT_MFP3 PA.14 mask */
 543:./bsp/inc/SYS.h **** #define SYS_ALT_MFP4_PA14_Msk        NULL               /*!< No ALT_MFP4 PA.14 mask */
 544:./bsp/inc/SYS.h **** 
 545:./bsp/inc/SYS.h **** //PA.15
 546:./bsp/inc/SYS.h **** #define SYS_GPA_MFP_PA15_GPIO        0x00000000UL       /*!< GPA_MFP PA.15 setting for GPIO */
 547:./bsp/inc/SYS.h **** #define SYS_ALT_MFP_PA15_GPIO        NULL               /*!< No ALT_MFP setting for PA.15 */
 548:./bsp/inc/SYS.h **** #define SYS_ALT_MFP1_PA15_GPIO       NULL               /*!< No ALT_MFP1 setting for PA.15 */
 549:./bsp/inc/SYS.h **** #define SYS_ALT_MFP2_PA15_GPIO       NULL               /*!< No ALT_MFP2 setting for PA.15 */
 550:./bsp/inc/SYS.h **** #define SYS_ALT_MFP3_PA15_GPIO       NULL               /*!< No ALT_MFP3 setting for PA.15 */
 551:./bsp/inc/SYS.h **** #define SYS_ALT_MFP4_PA15_GPIO       NULL               /*!< No ALT_MFP4 setting for PA.15 */
 552:./bsp/inc/SYS.h **** 
 553:./bsp/inc/SYS.h **** #define SYS_GPA_MFP_PA15_PWM0_CH3    (1UL<<15)          /*!< GPA_MFP PA.15 setting for PWM0_CH3 */
 554:./bsp/inc/SYS.h **** #define SYS_ALT_MFP_PA15_PWM0_CH3    NULL               /*!< No ALT_MFP setting for PA.15 */
 555:./bsp/inc/SYS.h **** #define SYS_ALT_MFP1_PA15_PWM0_CH3   NULL               /*!< No ALT_MFP1 setting for PA.15 */
 556:./bsp/inc/SYS.h **** #define SYS_ALT_MFP2_PA15_PWM0_CH3   NULL               /*!< No ALT_MFP2 setting for PA.15 */
 557:./bsp/inc/SYS.h **** #define SYS_ALT_MFP3_PA15_PWM0_CH3   NULL               /*!< No ALT_MFP3 setting for PA.15 */
 558:./bsp/inc/SYS.h **** #define SYS_ALT_MFP4_PA15_PWM0_CH3   NULL               /*!< No ALT_MFP4 setting for PA.15 */
 559:./bsp/inc/SYS.h **** 
 560:./bsp/inc/SYS.h **** #define SYS_GPA_MFP_PA15_Msk         (1UL<<15)          /*!< GPA_MFP PA.14 mask */
 561:./bsp/inc/SYS.h **** #define SYS_ALT_MFP_PA15_Msk         NULL               /*!< No ALT_MFP PA.14 mask */
 562:./bsp/inc/SYS.h **** #define SYS_ALT_MFP1_PA15_Msk        NULL               /*!< No ALT_MFP1 PA.14 mask */
 563:./bsp/inc/SYS.h **** #define SYS_ALT_MFP2_PA15_Msk        NULL               /*!< No ALT_MFP2 PA.14 mask */
 564:./bsp/inc/SYS.h **** #define SYS_ALT_MFP3_PA15_Msk        NULL               /*!< No ALT_MFP3 PA.14 mask */
 565:./bsp/inc/SYS.h **** #define SYS_ALT_MFP4_PA15_Msk        NULL               /*!< No ALT_MFP4 PA.14 mask */
 566:./bsp/inc/SYS.h **** 
 567:./bsp/inc/SYS.h **** //PB.0
 568:./bsp/inc/SYS.h **** #define SYS_GPB_MFP_PB0_GPIO         0x00000000UL       /*!< GPB_MFP PB.0 setting for GPIO */
 569:./bsp/inc/SYS.h **** #define SYS_ALT_MFP_PB0_GPIO         NULL               /*!< No ALT_MFP setting for PB.0 */
 570:./bsp/inc/SYS.h **** #define SYS_ALT_MFP1_PB0_GPIO        NULL               /*!< No ALT_MFP1 setting for PB.0 */
 571:./bsp/inc/SYS.h **** #define SYS_ALT_MFP2_PB0_GPIO        NULL               /*!< No ALT_MFP2 setting for PB.0 */
 572:./bsp/inc/SYS.h **** #define SYS_ALT_MFP3_PB0_GPIO        NULL               /*!< No ALT_MFP3 setting for PB.0 */
 573:./bsp/inc/SYS.h **** #define SYS_ALT_MFP4_PB0_GPIO        NULL               /*!< No ALT_MFP4 setting for PB.0 */
 574:./bsp/inc/SYS.h **** 
 575:./bsp/inc/SYS.h **** #define SYS_GPB_MFP_PB0_UART0_RXD    (1UL<<0)           /*!< GPB_MFP PB.0 setting for UART0_RXD */
 576:./bsp/inc/SYS.h **** #define SYS_ALT_MFP_PB0_UART0_RXD    NULL               /*!< No ALT_MFP setting for PB.0 */
 577:./bsp/inc/SYS.h **** #define SYS_ALT_MFP1_PB0_UART0_RXD   NULL               /*!< No ALT_MFP1 setting for PB.0 */
 578:./bsp/inc/SYS.h **** #define SYS_ALT_MFP2_PB0_UART0_RXD   NULL               /*!< No ALT_MFP2 setting for PB.0 */
 579:./bsp/inc/SYS.h **** #define SYS_ALT_MFP3_PB0_UART0_RXD   NULL               /*!< No ALT_MFP3 setting for PB.0 */
 580:./bsp/inc/SYS.h **** #define SYS_ALT_MFP4_PB0_UART0_RXD   NULL               /*!< No ALT_MFP4 setting for PB.0 */
 581:./bsp/inc/SYS.h **** 
 582:./bsp/inc/SYS.h **** #define SYS_GPB_MFP_PB0_Msk          (1UL<<0)           /*!< GPB_MFP PB.0 mask */
 583:./bsp/inc/SYS.h **** #define SYS_ALT_MFP_PB0_Msk          NULL               /*!< No ALT_MFP PB.0 mask */
 584:./bsp/inc/SYS.h **** #define SYS_ALT_MFP1_PB0_Msk         NULL               /*!< No ALT_MFP1 PB.0 mask */
 585:./bsp/inc/SYS.h **** #define SYS_ALT_MFP2_PB0_Msk         NULL               /*!< No ALT_MFP2 PB.0 mask */
 586:./bsp/inc/SYS.h **** #define SYS_ALT_MFP3_PB0_Msk         NULL               /*!< No ALT_MFP3 PB.0 mask */
 587:./bsp/inc/SYS.h **** #define SYS_ALT_MFP4_PB0_Msk         NULL               /*!< No ALT_MFP4 PB.0 mask */
 588:./bsp/inc/SYS.h **** 
 589:./bsp/inc/SYS.h **** //PB.1
 590:./bsp/inc/SYS.h **** #define SYS_GPB_MFP_PB1_GPIO         0x00000000UL       /*!< GPB_MFP PB.1 setting for GPIO */
 591:./bsp/inc/SYS.h **** #define SYS_ALT_MFP_PB1_GPIO         NULL               /*!< No ALT_MFP setting for PB.1 */
 592:./bsp/inc/SYS.h **** #define SYS_ALT_MFP1_PB1_GPIO        NULL               /*!< No ALT_MFP1 setting for PB.1 */
 593:./bsp/inc/SYS.h **** #define SYS_ALT_MFP2_PB1_GPIO        NULL               /*!< No ALT_MFP2 setting for PB.1 */
 594:./bsp/inc/SYS.h **** #define SYS_ALT_MFP3_PB1_GPIO        NULL               /*!< No ALT_MFP3 setting for PB.1 */
 595:./bsp/inc/SYS.h **** #define SYS_ALT_MFP4_PB1_GPIO        NULL               /*!< No ALT_MFP4 setting for PB.1 */
 596:./bsp/inc/SYS.h **** 
 597:./bsp/inc/SYS.h **** #define SYS_GPB_MFP_PB1_UART0_TXD    (1UL<<1)           /*!< GPB_MFP PB.1 setting for UART0_TXD */
 598:./bsp/inc/SYS.h **** #define SYS_ALT_MFP_PB1_UART0_TXD    NULL               /*!< No ALT_MFP setting for PB.1 */
 599:./bsp/inc/SYS.h **** #define SYS_ALT_MFP1_PB1_UART0_TXD   NULL               /*!< No ALT_MFP1 setting for PB.1 */
 600:./bsp/inc/SYS.h **** #define SYS_ALT_MFP2_PB1_UART0_TXD   NULL               /*!< No ALT_MFP2 setting for PB.1 */
 601:./bsp/inc/SYS.h **** #define SYS_ALT_MFP3_PB1_UART0_TXD   NULL               /*!< No ALT_MFP3 setting for PB.1 */
 602:./bsp/inc/SYS.h **** #define SYS_ALT_MFP4_PB1_UART0_TXD   NULL               /*!< No ALT_MFP4 setting for PB.1 */
 603:./bsp/inc/SYS.h **** 
 604:./bsp/inc/SYS.h **** #define SYS_GPB_MFP_PB1_Msk          (1UL<<1)           /*!< GPB_MFP PB.1 mask */
 605:./bsp/inc/SYS.h **** #define SYS_ALT_MFP_PB1_Msk          NULL               /*!< No ALT_MFP PB.1 mask */
 606:./bsp/inc/SYS.h **** #define SYS_ALT_MFP1_PB1_Msk         NULL               /*!< No ALT_MFP1 PB.1 mask */
 607:./bsp/inc/SYS.h **** #define SYS_ALT_MFP2_PB1_Msk         NULL               /*!< No ALT_MFP2 PB.1 mask */
 608:./bsp/inc/SYS.h **** #define SYS_ALT_MFP3_PB1_Msk         NULL               /*!< No ALT_MFP3 PB.1 mask */
 609:./bsp/inc/SYS.h **** #define SYS_ALT_MFP4_PB1_Msk         NULL               /*!< No ALT_MFP4 PB.1 mask */
 610:./bsp/inc/SYS.h **** 
 611:./bsp/inc/SYS.h **** //PB.2
 612:./bsp/inc/SYS.h **** #define SYS_GPB_MFP_PB2_GPIO         0x00000000UL       /*!< GPB_MFP PB.2 setting for GPIO */
 613:./bsp/inc/SYS.h **** #define SYS_ALT_MFP_PB2_GPIO         0x00000000UL       /*!< ALT_MFP PB.2 setting for GPIO */
 614:./bsp/inc/SYS.h **** #define SYS_ALT_MFP1_PB2_GPIO        NULL               /*!< No ALT_MFP1 setting for PB.2 */
 615:./bsp/inc/SYS.h **** #define SYS_ALT_MFP2_PB2_GPIO        0x00000000UL       /*!< ALT_MFP2 PB.2 setting for GPIO */
 616:./bsp/inc/SYS.h **** #define SYS_ALT_MFP3_PB2_GPIO        0x00000000UL       /*!< ALT_MFP3 PB.2 setting for GPIO */
 617:./bsp/inc/SYS.h **** #define SYS_ALT_MFP4_PB2_GPIO        NULL               /*!< No ALT_MFP4 setting for PB.2 */
 618:./bsp/inc/SYS.h **** 
 619:./bsp/inc/SYS.h **** #define SYS_GPB_MFP_PB2_UART0_nRTS   (1UL<<2)           /*!< GPB_MFP PB.2 setting for UART0_nRTS */
 620:./bsp/inc/SYS.h **** #define SYS_ALT_MFP_PB2_UART0_nRTS   0x00000000UL       /*!< ALT_MFP PB.2 setting for UART0_nRTS */
 621:./bsp/inc/SYS.h **** #define SYS_ALT_MFP1_PB2_UART0_nRTS  NULL               /*!< No ALT_MFP1 setting for PB.2 */
 622:./bsp/inc/SYS.h **** #define SYS_ALT_MFP2_PB2_UART0_nRTS  0x00000000UL       /*!< ALT_MFP2 PB.2 setting for UART0_nRTS *
 623:./bsp/inc/SYS.h **** #define SYS_ALT_MFP3_PB2_UART0_nRTS  0x00000000UL       /*!< ALT_MFP3 PB.2 setting for UART0_nRTS *
 624:./bsp/inc/SYS.h **** #define SYS_ALT_MFP4_PB2_UART0_nRTS  NULL               /*!< No ALT_MFP4 setting for PB.2 */
 625:./bsp/inc/SYS.h **** 
 626:./bsp/inc/SYS.h **** #define SYS_GPB_MFP_PB2_TM2_EXT      (1UL<<2)           /*!< GPB_MFP PB.2 setting for TM2_EXT */
 627:./bsp/inc/SYS.h **** #define SYS_ALT_MFP_PB2_TM2_EXT      (1UL<<26)          /*!< ALT_MFP PB.2 setting for TM2_EXT */
 628:./bsp/inc/SYS.h **** #define SYS_ALT_MFP1_PB2_TM2_EXT     NULL               /*!< No ALT_MFP1 setting for PB.2 */
 629:./bsp/inc/SYS.h **** #define SYS_ALT_MFP2_PB2_TM2_EXT     0x00000000UL       /*!< ALT_MFP2 PB.2 setting for TM2_EXT */
 630:./bsp/inc/SYS.h **** #define SYS_ALT_MFP3_PB2_TM2_EXT     0x00000000UL       /*!< ALT_MFP3 PB.2 setting for TM2_EXT */
 631:./bsp/inc/SYS.h **** #define SYS_ALT_MFP4_PB2_TM2_EXT     NULL               /*!< No ALT_MFP4 setting for PB.2 */
 632:./bsp/inc/SYS.h **** 
 633:./bsp/inc/SYS.h **** #define SYS_GPB_MFP_PB2_PWM1_BREAK1   (1UL<<2)          /*!< GPB_MFP PB.2 setting for PWM1_BREAK1 *
 634:./bsp/inc/SYS.h **** #define SYS_ALT_MFP_PB2_PWM1_BREAK1   0x00000000UL      /*!< ALT_MFP PB.2 setting for PWM1_BREAK1 *
 635:./bsp/inc/SYS.h **** #define SYS_ALT_MFP1_PB2_PWM1_BREAK1  NULL              /*!< No ALT_MFP1 setting for PB.2 */
 636:./bsp/inc/SYS.h **** #define SYS_ALT_MFP2_PB2_PWM1_BREAK1  0x00000000UL      /*!< ALT_MFP2 PB.2 setting for PWM1_BREAK1 
 637:./bsp/inc/SYS.h **** #define SYS_ALT_MFP3_PB2_PWM1_BREAK1  (1UL<<31)         /*!< ALT_MFP3 PB.2 setting for PWM1_BREAK1 
 638:./bsp/inc/SYS.h **** #define SYS_ALT_MFP4_PB2_PWM1_BREAK1  NULL              /*!< No ALT_MFP4 setting for PB.2 */
 639:./bsp/inc/SYS.h **** 
 640:./bsp/inc/SYS.h **** #define SYS_GPB_MFP_PB2_TM2          (1UL<<2)           /*!< GPB_MFP PB.2 setting for TM2 */
 641:./bsp/inc/SYS.h **** #define SYS_ALT_MFP_PB2_TM2          0x00000000UL       /*!< ALT_MFP PB.2 setting for TM2 */
 642:./bsp/inc/SYS.h **** #define SYS_ALT_MFP1_PB2_TM2         NULL               /*!< No ALT_MFP1 setting for PB.2 */
 643:./bsp/inc/SYS.h **** #define SYS_ALT_MFP2_PB2_TM2         (1UL<<4)           /*!< ALT_MFP2 PB.2 setting for TM2 */
 644:./bsp/inc/SYS.h **** #define SYS_ALT_MFP3_PB2_TM2         0x00000000UL       /*!< ALT_MFP3 PB.2 setting for TM2 */
 645:./bsp/inc/SYS.h **** #define SYS_ALT_MFP4_PB2_TM2         NULL               /*!< No ALT_MFP4 setting for PB.2 */
 646:./bsp/inc/SYS.h **** 
 647:./bsp/inc/SYS.h **** #define SYS_GPB_MFP_PB2_Msk          (1UL<<2)           /*!< GPB_MFP PB.2 mask */
 648:./bsp/inc/SYS.h **** #define SYS_ALT_MFP_PB2_Msk          (1UL<<26)          /*!< ALT_MFP PB.2 mask */
 649:./bsp/inc/SYS.h **** #define SYS_ALT_MFP1_PB2_Msk         NULL               /*!< No ALT_MFP1 PB.2 mask */
 650:./bsp/inc/SYS.h **** #define SYS_ALT_MFP2_PB2_Msk         (1UL<<4)           /*!< ALT_MFP2 PB.2 mask */
 651:./bsp/inc/SYS.h **** #define SYS_ALT_MFP3_PB2_Msk         (1UL<<31)          /*!< ALT_MFP3 PB.2 mask */
 652:./bsp/inc/SYS.h **** #define SYS_ALT_MFP4_PB2_Msk         NULL               /*!< No ALT_MFP4 PB.2 mask */
 653:./bsp/inc/SYS.h **** 
 654:./bsp/inc/SYS.h **** //PB.3
 655:./bsp/inc/SYS.h **** #define SYS_GPB_MFP_PB3_GPIO         0x00000000UL       /*!< GPB_MFP PB.3 setting for GPIO */
 656:./bsp/inc/SYS.h **** #define SYS_ALT_MFP_PB3_GPIO         0x00000000UL       /*!< ALT_MFP PB.3 setting for GPIO */
 657:./bsp/inc/SYS.h **** #define SYS_ALT_MFP1_PB3_GPIO        NULL               /*!< No ALT_MFP1 setting for PB.3 */
 658:./bsp/inc/SYS.h **** #define SYS_ALT_MFP2_PB3_GPIO        0x00000000UL       /*!< ALT_MFP2 PB.3 setting for GPIO */
 659:./bsp/inc/SYS.h **** #define SYS_ALT_MFP3_PB3_GPIO        0x00000000UL       /*!< ALT_MFP3 PB.3 setting for GPIO */
 660:./bsp/inc/SYS.h **** #define SYS_ALT_MFP4_PB3_GPIO        NULL               /*!< No ALT_MFP4 setting for PB.3 */
 661:./bsp/inc/SYS.h **** 
 662:./bsp/inc/SYS.h **** #define SYS_GPB_MFP_PB3_UART_nCTS    (1UL<<3)           /*!< GPB_MFP PB.3 setting for UART_nCTS */
 663:./bsp/inc/SYS.h **** #define SYS_ALT_MFP_PB3_UART_nCTS    0x00000000UL       /*!< ALT_MFP PB.3 setting for UART_nCTS */
 664:./bsp/inc/SYS.h **** #define SYS_ALT_MFP1_PB3_UART_nCTS   NULL               /*!< No ALT_MFP1 setting for PB.3 */
 665:./bsp/inc/SYS.h **** #define SYS_ALT_MFP2_PB3_UART_nCTS   0x00000000UL       /*!< ALT_MFP2 PB.3 setting for UART_nCTS */
 666:./bsp/inc/SYS.h **** #define SYS_ALT_MFP3_PB3_UART_nCTS   0x00000000UL       /*!< ALT_MFP3 PB.3 setting for UART_nCTS */
 667:./bsp/inc/SYS.h **** #define SYS_ALT_MFP4_PB3_UART_nCTS   NULL               /*!< No ALT_MFP4 setting for PB.3 */
 668:./bsp/inc/SYS.h **** 
 669:./bsp/inc/SYS.h **** #define SYS_GPB_MFP_PB3_TM3_EXT      (1UL<<3)           /*!< GPB_MFP PB.3 setting for TM3_EXT */
 670:./bsp/inc/SYS.h **** #define SYS_ALT_MFP_PB3_TM3_EXT      (1UL<<27)          /*!< ALT_MFP PB.3 setting for TM3_EXT */
 671:./bsp/inc/SYS.h **** #define SYS_ALT_MFP1_PB3_TM3_EXT     NULL               /*!< No ALT_MFP1 setting for PB.3 */
 672:./bsp/inc/SYS.h **** #define SYS_ALT_MFP2_PB3_TM3_EXT     0x00000000UL       /*!< ALT_MFP2 PB.3 setting for TM3_EXT */
 673:./bsp/inc/SYS.h **** #define SYS_ALT_MFP3_PB3_TM3_EXT     0x00000000UL       /*!< ALT_MFP3 PB.3 setting for TM3_EXT */
 674:./bsp/inc/SYS.h **** #define SYS_ALT_MFP4_PB3_TM3_EXT     NULL               /*!< No ALT_MFP4 setting for PB.3 */
 675:./bsp/inc/SYS.h **** 
 676:./bsp/inc/SYS.h **** #define SYS_GPB_MFP_PB3_PWM1_BREAK0     (1UL<<3)        /*!< GPB_MFP PB.3 setting for PWM1_BREAK0 *
 677:./bsp/inc/SYS.h **** #define SYS_ALT_MFP_PB3_PWM1_BREAK0     0000000UL       /*!< ALT_MFP PB.3 setting for PWM1_BREAK0 *
 678:./bsp/inc/SYS.h **** #define SYS_ALT_MFP1_PB3_PWM1_BREAK0    NULL            /*!< No ALT_MFP1 setting for PB.3 */
 679:./bsp/inc/SYS.h **** #define SYS_ALT_MFP2_PB3_PWM1_BREAK0    0x00000000UL    /*!< ALT_MFP2 PB.3 setting for PWM1_BREAK0 
 680:./bsp/inc/SYS.h **** #define SYS_ALT_MFP3_PB3_PWM1_BREAK0    (1UL<<30)       /*!< ALT_MFP3 PB.3 setting for PWM1_BREAK0 
 681:./bsp/inc/SYS.h **** #define SYS_ALT_MFP4_PB3_PWM1_BREAK0    NULL            /*!< No ALT_MFP4 setting for PB.3 */
 682:./bsp/inc/SYS.h **** 
 683:./bsp/inc/SYS.h **** #define SYS_GPB_MFP_PB3_TM3         (1UL<<3)            /*!< GPB_MFP PB.3 setting for TM3 */
 684:./bsp/inc/SYS.h **** #define SYS_ALT_MFP_PB3_TM3         0000000UL           /*!< ALT_MFP PB.3 setting for TM3 */
 685:./bsp/inc/SYS.h **** #define SYS_ALT_MFP1_PB3_TM3        NULL                /*!< No ALT_MFP1 setting for PB.3 */
 686:./bsp/inc/SYS.h **** #define SYS_ALT_MFP2_PB3_TM3        (1UL<<5)            /*!< ALT_MFP2 PB.3 setting for TM3 */
 687:./bsp/inc/SYS.h **** #define SYS_ALT_MFP3_PB3_TM3        0x00000000UL        /*!< ALT_MFP3 PB.3 setting for TM3 */
 688:./bsp/inc/SYS.h **** #define SYS_ALT_MFP4_PB3_TM3        NULL                /*!< No ALT_MFP4 setting for PB.3 */
 689:./bsp/inc/SYS.h **** 
 690:./bsp/inc/SYS.h **** #define SYS_GPB_MFP_PB3_Msk         (1UL<<3)            /*!< GPB_MFP PB.3 mask */
 691:./bsp/inc/SYS.h **** #define SYS_ALT_MFP_PB3_Msk         (1UL<<27)           /*!< ALT_MFP PB.3 mask */
 692:./bsp/inc/SYS.h **** #define SYS_ALT_MFP1_PB3_Msk        NULL                /*!< No ALT_MFP1 PB.3 mask */
 693:./bsp/inc/SYS.h **** #define SYS_ALT_MFP2_PB3_Msk        (1UL<<5)            /*!< ALT_MFP2 PB.3 mask */
 694:./bsp/inc/SYS.h **** #define SYS_ALT_MFP3_PB3_Msk        (1UL<<30)           /*!< ALT_MFP3 PB.3 mask */
 695:./bsp/inc/SYS.h **** #define SYS_ALT_MFP4_PB3_Msk        NULL                /*!< No ALT_MFP4 PB.3 mask */
 696:./bsp/inc/SYS.h **** 
 697:./bsp/inc/SYS.h **** //PB.4
 698:./bsp/inc/SYS.h **** #define SYS_GPB_MFP_PB4_GPIO        0x00000000UL        /*!< GPB_MFP PB.4 setting for GPIO */
 699:./bsp/inc/SYS.h **** #define SYS_ALT_MFP_PB4_GPIO        NULL                /*!< No ALT_MFP setting for PB.4 */
 700:./bsp/inc/SYS.h **** #define SYS_ALT_MFP1_PB4_GPIO       NULL                /*!< No ALT_MFP1 setting for PB.4 */
 701:./bsp/inc/SYS.h **** #define SYS_ALT_MFP2_PB4_GPIO       NULL                /*!< No ALT_MFP2 setting for PB.4 */
 702:./bsp/inc/SYS.h **** #define SYS_ALT_MFP3_PB4_GPIO       NULL                /*!< No ALT_MFP3 setting for PB.4 */
 703:./bsp/inc/SYS.h **** #define SYS_ALT_MFP4_PB4_GPIO       NULL                /*!< No ALT_MFP4 setting for PB.4 */
 704:./bsp/inc/SYS.h **** 
 705:./bsp/inc/SYS.h **** #define SYS_GPB_MFP_PB4_UART1_RXD   (1UL<<4)            /*!< GPB_MFP PB.4 setting for UART1_RXD */
 706:./bsp/inc/SYS.h **** #define SYS_ALT_MFP_PB4_UART1_RXD   NULL                /*!< No ALT_MFP setting for PB.4 */
 707:./bsp/inc/SYS.h **** #define SYS_ALT_MFP1_PB4_UART1_RXD  NULL                /*!< No ALT_MFP1 setting for PB.4 */
 708:./bsp/inc/SYS.h **** #define SYS_ALT_MFP2_PB4_UART1_RXD  NULL                /*!< No ALT_MFP2 setting for PB.4 */
 709:./bsp/inc/SYS.h **** #define SYS_ALT_MFP3_PB4_UART1_RXD  NULL                /*!< No ALT_MFP3 setting for PB.4 */
 710:./bsp/inc/SYS.h **** #define SYS_ALT_MFP4_PB4_UART1_RXD  NULL                /*!< No ALT_MFP4 setting for PB.4 */
 711:./bsp/inc/SYS.h **** 
 712:./bsp/inc/SYS.h **** #define SYS_GPB_MFP_PB4_Msk         (1UL<<4)            /*!< GPB_MFP PB.4 mask */
 713:./bsp/inc/SYS.h **** #define SYS_ALT_MFP_PB4_Msk         NULL                /*!< No ALT_MFP PB.4 mask */
 714:./bsp/inc/SYS.h **** #define SYS_ALT_MFP1_PB4_Msk        NULL                /*!< No ALT_MFP1 PB.4 mask */
 715:./bsp/inc/SYS.h **** #define SYS_ALT_MFP2_PB4_Msk        NULL                /*!< No ALT_MFP2 PB.4 mask */
 716:./bsp/inc/SYS.h **** #define SYS_ALT_MFP3_PB4_Msk        NULL                /*!< No ALT_MFP3 PB.4 mask */
 717:./bsp/inc/SYS.h **** #define SYS_ALT_MFP4_PB4_Msk        NULL                /*!< No ALT_MFP4 PB.4 mask */
 718:./bsp/inc/SYS.h **** 
 719:./bsp/inc/SYS.h **** //PB.5
 720:./bsp/inc/SYS.h **** #define SYS_GPB_MFP_PB5_GPIO        0x00000000UL        /*!< GPB_MFP PB.5 setting for GPIO */
 721:./bsp/inc/SYS.h **** #define SYS_ALT_MFP_PB5_GPIO        NULL                /*!< No ALT_MFP setting for PB.5 */
 722:./bsp/inc/SYS.h **** #define SYS_ALT_MFP1_PB5_GPIO       NULL                /*!< No ALT_MFP1 setting for PB.5 */
 723:./bsp/inc/SYS.h **** #define SYS_ALT_MFP2_PB5_GPIO       NULL                /*!< No ALT_MFP2 setting for PB.5 */
 724:./bsp/inc/SYS.h **** #define SYS_ALT_MFP3_PB5_GPIO       NULL                /*!< No ALT_MFP3 setting for PB.5 */
 725:./bsp/inc/SYS.h **** #define SYS_ALT_MFP4_PB5_GPIO       NULL                /*!< No ALT_MFP4 setting for PB.5 */
 726:./bsp/inc/SYS.h **** 
 727:./bsp/inc/SYS.h **** #define SYS_GPB_MFP_PB5_UART1_TXD   (1UL<<5)            /*!< GPB_MFP PB.5 setting for UART1_TXD */
 728:./bsp/inc/SYS.h **** #define SYS_ALT_MFP_PB5_UART1_TXD   NULL                /*!< No ALT_MFP setting for PB.5 */
 729:./bsp/inc/SYS.h **** #define SYS_ALT_MFP1_PB5_UART1_TXD  NULL                /*!< No ALT_MFP1 setting for PB.5 */
 730:./bsp/inc/SYS.h **** #define SYS_ALT_MFP2_PB5_UART1_TXD  NULL                /*!< No ALT_MFP2 setting for PB.5 */
 731:./bsp/inc/SYS.h **** #define SYS_ALT_MFP3_PB5_UART1_TXD  NULL                /*!< No ALT_MFP3 setting for PB.5 */
 732:./bsp/inc/SYS.h **** #define SYS_ALT_MFP4_PB5_UART1_TXD  NULL                /*!< No ALT_MFP4 setting for PB.5 */
 733:./bsp/inc/SYS.h **** 
 734:./bsp/inc/SYS.h **** #define SYS_GPB_MFP_PB5_Msk         (1UL<<5)            /*!< GPB_MFP PB.5 mask */
 735:./bsp/inc/SYS.h **** #define SYS_ALT_MFP_PB5_Msk         NULL                /*!< No ALT_MFP PB.5 mask */
 736:./bsp/inc/SYS.h **** #define SYS_ALT_MFP1_PB5_Msk        NULL                /*!< No ALT_MFP1 PB.5 mask */
 737:./bsp/inc/SYS.h **** #define SYS_ALT_MFP2_PB5_Msk        NULL                /*!< No ALT_MFP2 PB.5 mask */
 738:./bsp/inc/SYS.h **** #define SYS_ALT_MFP3_PB5_Msk        NULL                /*!< No ALT_MFP3 PB.5 mask */
 739:./bsp/inc/SYS.h **** #define SYS_ALT_MFP4_PB5_Msk        NULL                /*!< No ALT_MFP4 PB.5 mask */
 740:./bsp/inc/SYS.h **** 
 741:./bsp/inc/SYS.h **** //PB.6
 742:./bsp/inc/SYS.h **** #define SYS_GPB_MFP_PB6_GPIO        0x00000000UL        /*!< GPB_MFP PB.6 setting for GPIO */
 743:./bsp/inc/SYS.h **** #define SYS_ALT_MFP_PB6_GPIO        NULL                /*!< No ALT_MFP setting for PB.6 */
 744:./bsp/inc/SYS.h **** #define SYS_ALT_MFP1_PB6_GPIO       NULL                /*!< No ALT_MFP1 setting for PB.6 */
 745:./bsp/inc/SYS.h **** #define SYS_ALT_MFP2_PB6_GPIO       NULL                /*!< No ALT_MFP2 setting for PB.6 */
 746:./bsp/inc/SYS.h **** #define SYS_ALT_MFP3_PB6_GPIO       NULL                /*!< No ALT_MFP3 setting for PB.6 */
 747:./bsp/inc/SYS.h **** #define SYS_ALT_MFP4_PB6_GPIO       NULL                /*!< No ALT_MFP4 setting for PB.6 */
 748:./bsp/inc/SYS.h **** 
 749:./bsp/inc/SYS.h **** #define SYS_GPB_MFP_PB6_UART1_nRTS      (1UL<<6)        /*!< GPB_MFP PB.6 setting for UART1_nRTS */
 750:./bsp/inc/SYS.h **** #define SYS_ALT_MFP_PB6_UART1_nRTS      NULL            /*!< No ALT_MFP setting for PB.6 */
 751:./bsp/inc/SYS.h **** #define SYS_ALT_MFP1_PB6_UART1_nRTS     NULL            /*!< No ALT_MFP1 setting for PB.6 */
 752:./bsp/inc/SYS.h **** #define SYS_ALT_MFP2_PB6_UART1_nRTS     NULL            /*!< No ALT_MFP2 setting for PB.6 */
 753:./bsp/inc/SYS.h **** #define SYS_ALT_MFP3_PB6_UART1_nRTS     NULL            /*!< No ALT_MFP3 setting for PB.6 */
 754:./bsp/inc/SYS.h **** #define SYS_ALT_MFP4_PB6_UART1_nRTS     NULL            /*!< No ALT_MFP4 setting for PB.6 */
 755:./bsp/inc/SYS.h **** 
 756:./bsp/inc/SYS.h **** #define SYS_GPB_MFP_PB6_Msk         (1UL<<6)            /*!< GPB_MFP PB.6 mask */
 757:./bsp/inc/SYS.h **** #define SYS_ALT_MFP_PB6_Msk         NULL                /*!< No ALT_MFP PB.6 mask */
 758:./bsp/inc/SYS.h **** #define SYS_ALT_MFP1_PB6_Msk        NULL                /*!< No ALT_MFP1 PB.6 mask */
 759:./bsp/inc/SYS.h **** #define SYS_ALT_MFP2_PB6_Msk        NULL                /*!< No ALT_MFP2 PB.6 mask */
 760:./bsp/inc/SYS.h **** #define SYS_ALT_MFP3_PB6_Msk        NULL                /*!< No ALT_MFP3 PB.6 mask */
 761:./bsp/inc/SYS.h **** #define SYS_ALT_MFP4_PB6_Msk        NULL                /*!< No ALT_MFP4 PB.6 mask */
 762:./bsp/inc/SYS.h **** 
 763:./bsp/inc/SYS.h **** //PB.7
 764:./bsp/inc/SYS.h **** #define SYS_GPB_MFP_PB7_GPIO        0x00000000UL        /*!< GPB_MFP PB.7 setting for GPIO */
 765:./bsp/inc/SYS.h **** #define SYS_ALT_MFP_PB7_GPIO        NULL                /*!< No ALT_MFP setting for PB.7 */
 766:./bsp/inc/SYS.h **** #define SYS_ALT_MFP1_PB7_GPIO       NULL                /*!< No ALT_MFP1 setting for PB.7 */
 767:./bsp/inc/SYS.h **** #define SYS_ALT_MFP2_PB7_GPIO       NULL                /*!< No ALT_MFP2 setting for PB.7 */
 768:./bsp/inc/SYS.h **** #define SYS_ALT_MFP3_PB7_GPIO       NULL                /*!< No ALT_MFP3 setting for PB.7 */
 769:./bsp/inc/SYS.h **** #define SYS_ALT_MFP4_PB7_GPIO       NULL                /*!< No ALT_MFP4 setting for PB.7 */
 770:./bsp/inc/SYS.h **** 
 771:./bsp/inc/SYS.h **** #define SYS_GPB_MFP_PB7_UART1_nCTS      (1UL<<7)        /*!< GPB_MFP PB.7 setting for UART1_nCTS */
 772:./bsp/inc/SYS.h **** #define SYS_ALT_MFP_PB7_UART1_nCTS      NULL            /*!< No ALT_MFP setting for PB.7 */
 773:./bsp/inc/SYS.h **** #define SYS_ALT_MFP1_PB7_UART1_nCTS     NULL            /*!< No ALT_MFP1 setting for PB.7 */
 774:./bsp/inc/SYS.h **** #define SYS_ALT_MFP2_PB7_UART1_nCTS     NULL            /*!< No ALT_MFP2 setting for PB.7 */
 775:./bsp/inc/SYS.h **** #define SYS_ALT_MFP3_PB7_UART1_nCTS     NULL            /*!< No ALT_MFP3 setting for PB.7 */
 776:./bsp/inc/SYS.h **** #define SYS_ALT_MFP4_PB7_UART1_nCTS     NULL            /*!< No ALT_MFP4 setting for PB.7 */
 777:./bsp/inc/SYS.h **** 
 778:./bsp/inc/SYS.h **** #define SYS_GPB_MFP_PB7_Msk         (1UL<<7)            /*!< GPB_MFP PB.7 mask */
 779:./bsp/inc/SYS.h **** #define SYS_ALT_MFP_PB7_Msk         NULL                /*!< No ALT_MFP PB.7 mask */
 780:./bsp/inc/SYS.h **** #define SYS_ALT_MFP1_PB7_Msk        NULL                /*!< No ALT_MFP1 PB.7 mask */
 781:./bsp/inc/SYS.h **** #define SYS_ALT_MFP2_PB7_Msk        NULL                /*!< No ALT_MFP2 PB.7 mask */
 782:./bsp/inc/SYS.h **** #define SYS_ALT_MFP3_PB7_Msk        NULL                /*!< No ALT_MFP3 PB.7 mask */
 783:./bsp/inc/SYS.h **** #define SYS_ALT_MFP4_PB7_Msk        NULL                /*!< No ALT_MFP4 PB.7 mask */
 784:./bsp/inc/SYS.h **** 
 785:./bsp/inc/SYS.h **** //PB.8
 786:./bsp/inc/SYS.h **** #define SYS_GPB_MFP_PB8_GPIO        0x00000000UL        /*!< GPB_MFP PB.8 setting for GPIO */
 787:./bsp/inc/SYS.h **** #define SYS_ALT_MFP_PB8_GPIO        0x00000000UL        /*!< ALT_MFP PB.8 setting for GPIO */
 788:./bsp/inc/SYS.h **** #define SYS_ALT_MFP1_PB8_GPIO       NULL                /*!< No ALT_MFP1 setting for PB.8 */
 789:./bsp/inc/SYS.h **** #define SYS_ALT_MFP2_PB8_GPIO       NULL                /*!< No ALT_MFP2 setting for PB.8 */
 790:./bsp/inc/SYS.h **** #define SYS_ALT_MFP3_PB8_GPIO       0x00000000UL        /*!< ALT_MFP3 PB.8 setting for GPIO */
 791:./bsp/inc/SYS.h **** #define SYS_ALT_MFP4_PB8_GPIO       NULL                /*!< No ALT_MFP4 setting for PB.8 */
 792:./bsp/inc/SYS.h **** 
 793:./bsp/inc/SYS.h **** #define SYS_GPB_MFP_PB8_TM0         (1UL<<8)            /*!< GPB_MFP PB.8 setting for TM0 */
 794:./bsp/inc/SYS.h **** #define SYS_ALT_MFP_PB8_TM0         0x00000000UL        /*!< ALT_MFP PB.8 setting for TM0 */
 795:./bsp/inc/SYS.h **** #define SYS_ALT_MFP1_PB8_TM0        NULL                /*!< No ALT_MFP1 setting for PB.8 */
 796:./bsp/inc/SYS.h **** #define SYS_ALT_MFP2_PB8_TM0        NULL                /*!< No ALT_MFP2 setting for PB.8 */
 797:./bsp/inc/SYS.h **** #define SYS_ALT_MFP3_PB8_TM0        0x00000000UL        /*!< ALT_MFP3 PB.8 setting for TM0 */
 798:./bsp/inc/SYS.h **** #define SYS_ALT_MFP4_PB8_TM0        NULL                /*!< No ALT_MFP4 setting for PB.8 */
 799:./bsp/inc/SYS.h **** 
 800:./bsp/inc/SYS.h **** #define SYS_GPB_MFP_PB8_CLKO        (1UL<<8)            /*!< GPB_MFP PB.8 setting for CLKO */
 801:./bsp/inc/SYS.h **** #define SYS_ALT_MFP_PB8_CLKO        (1UL<<29)           /*!< ALT_MFP PB.8 setting for CLKO */
 802:./bsp/inc/SYS.h **** #define SYS_ALT_MFP1_PB8_CLKO       NULL                /*!< No ALT_MFP1 setting for PB.8 */
 803:./bsp/inc/SYS.h **** #define SYS_ALT_MFP2_PB8_CLKO       NULL                /*!< No ALT_MFP2 setting for PB.8 */
 804:./bsp/inc/SYS.h **** #define SYS_ALT_MFP3_PB8_CLKO       0x00000000UL        /*!< ALT_MFP3 PB.8 setting for CLKO */
 805:./bsp/inc/SYS.h **** #define SYS_ALT_MFP4_PB8_CLKO       NULL                /*!< No ALT_MFP4 setting for PB.8 */
 806:./bsp/inc/SYS.h **** 
 807:./bsp/inc/SYS.h **** #define SYS_GPB_MFP_PB8_BPWM1_CH2   (1UL<<8)            /*!< GPB_MFP PB.8 setting for CLKO */
 808:./bsp/inc/SYS.h **** #define SYS_ALT_MFP_PB8_BPWM1_CH2   0x00000000UL        /*!< ALT_MFP PB.8 setting for CLKO */
 809:./bsp/inc/SYS.h **** #define SYS_ALT_MFP1_PB8_BPWM1_CH2  NULL                /*!< No ALT_MFP1 setting for PB.8 */
 810:./bsp/inc/SYS.h **** #define SYS_ALT_MFP2_PB8_BPWM1_CH2  NULL                /*!< No ALT_MFP2 setting for PB.8 */
 811:./bsp/inc/SYS.h **** #define SYS_ALT_MFP3_PB8_BPWM1_CH2  (1UL<<20)           /*!< ALT_MFP3 PB.8 setting for CLKO */
 812:./bsp/inc/SYS.h **** #define SYS_ALT_MFP4_PB8_BPWM1_CH2  NULL                /*!< No ALT_MFP4 setting for PB.8 */
 813:./bsp/inc/SYS.h **** 
 814:./bsp/inc/SYS.h **** #define SYS_GPB_MFP_PB8_Msk         (1UL<<8)            /*!< GPB_MFP PB.8 mask */
 815:./bsp/inc/SYS.h **** #define SYS_ALT_MFP_PB8_Msk         (1UL<<29)           /*!< ALT_MFP PB.8 mask */
 816:./bsp/inc/SYS.h **** #define SYS_ALT_MFP1_PB8_Msk        NULL                /*!< No ALT_MFP1 PB.8 mask */
 817:./bsp/inc/SYS.h **** #define SYS_ALT_MFP2_PB8_Msk        NULL                /*!< No ALT_MFP2 PB.8 mask */
 818:./bsp/inc/SYS.h **** #define SYS_ALT_MFP3_PB8_Msk        (1UL<<20)           /*!< ALT_MFP3 PB.8 mask */
 819:./bsp/inc/SYS.h **** #define SYS_ALT_MFP4_PB8_Msk        NULL                /*!< No ALT_MFP4 PB.8 mask */
 820:./bsp/inc/SYS.h **** 
 821:./bsp/inc/SYS.h **** //PB.9
 822:./bsp/inc/SYS.h **** #define SYS_GPB_MFP_PB9_GPIO        0x00000000UL        /*!< GPB_MFP PB.9 setting for GPIO */
 823:./bsp/inc/SYS.h **** #define SYS_ALT_MFP_PB9_GPIO        NULL                /*!< No ALT_MFP setting for PB.9 */
 824:./bsp/inc/SYS.h **** #define SYS_ALT_MFP1_PB9_GPIO       NULL                /*!< No ALT_MFP1 setting for PB.9 */
 825:./bsp/inc/SYS.h **** #define SYS_ALT_MFP2_PB9_GPIO       NULL                /*!< No ALT_MFP2 setting for PB.9 */
 826:./bsp/inc/SYS.h **** #define SYS_ALT_MFP3_PB9_GPIO       NULL                /*!< No ALT_MFP3 setting for PB.9 */
 827:./bsp/inc/SYS.h **** #define SYS_ALT_MFP4_PB9_GPIO       NULL                /*!< No ALT_MFP4 setting for PB.9 */
 828:./bsp/inc/SYS.h **** 
 829:./bsp/inc/SYS.h **** #define SYS_GPB_MFP_PB9_TM1         (1UL<<9)            /*!< GPB_MFP PB.9 setting for TM1 */
 830:./bsp/inc/SYS.h **** #define SYS_ALT_MFP_PB9_TM1         NULL                /*!< No ALT_MFP setting for PB.9 */
 831:./bsp/inc/SYS.h **** #define SYS_ALT_MFP1_PB9_TM1        NULL                /*!< No ALT_MFP1 setting for PB.9 */
 832:./bsp/inc/SYS.h **** #define SYS_ALT_MFP2_PB9_TM1        NULL                /*!< No ALT_MFP2 setting for PB.9 */
 833:./bsp/inc/SYS.h **** #define SYS_ALT_MFP3_PB9_TM1        NULL                /*!< No ALT_MFP3 setting for PB.9 */
 834:./bsp/inc/SYS.h **** #define SYS_ALT_MFP4_PB9_TM1        NULL                /*!< No ALT_MFP4 setting for PB.9 */
 835:./bsp/inc/SYS.h **** 
 836:./bsp/inc/SYS.h **** #define SYS_GPB_MFP_PB9_Msk         (1UL<<9)            /*!< GPB_MFP PB.9 mask */
 837:./bsp/inc/SYS.h **** #define SYS_ALT_MFP_PB9_Msk         NULL                /*!< No ALT_MFP PB.9 mask */
 838:./bsp/inc/SYS.h **** #define SYS_ALT_MFP1_PB9_Msk        NULL                /*!< No ALT_MFP1 PB.9 mask */
 839:./bsp/inc/SYS.h **** #define SYS_ALT_MFP2_PB9_Msk        NULL                /*!< No ALT_MFP2 PB.9 mask */
 840:./bsp/inc/SYS.h **** #define SYS_ALT_MFP3_PB9_Msk        NULL                /*!< No ALT_MFP3 PB.9 mask */
 841:./bsp/inc/SYS.h **** #define SYS_ALT_MFP4_PB9_Msk        NULL                /*!< No ALT_MFP4 PB.9 mask */
 842:./bsp/inc/SYS.h **** 
 843:./bsp/inc/SYS.h **** //PB.10
 844:./bsp/inc/SYS.h **** #define SYS_GPB_MFP_PB10_GPIO       0x00000000UL        /*!< GPB_MFP PB.10 setting for GPIO */
 845:./bsp/inc/SYS.h **** #define SYS_ALT_MFP_PB10_GPIO       NULL                /*!< No ALT_MFP setting for PB.10 */
 846:./bsp/inc/SYS.h **** #define SYS_ALT_MFP1_PB10_GPIO      NULL                /*!< No ALT_MFP1 setting for PB.10 */
 847:./bsp/inc/SYS.h **** #define SYS_ALT_MFP2_PB10_GPIO      NULL                /*!< No ALT_MFP2 setting for PB.10 */
 848:./bsp/inc/SYS.h **** #define SYS_ALT_MFP3_PB10_GPIO      NULL                /*!< No ALT_MFP3 setting for PB.10 */
 849:./bsp/inc/SYS.h **** #define SYS_ALT_MFP4_PB10_GPIO      NULL                /*!< No ALT_MFP4 setting for PB.10 */
 850:./bsp/inc/SYS.h **** 
 851:./bsp/inc/SYS.h **** #define SYS_GPB_MFP_PB10_TM2        (1UL<<10)           /*!< GPB_MFP PB.10 setting for TM2 */
 852:./bsp/inc/SYS.h **** #define SYS_ALT_MFP_PB10_TM2        NULL                /*!< No ALT_MFP setting for PB.10 */
 853:./bsp/inc/SYS.h **** #define SYS_ALT_MFP1_PB10_TM2       NULL                /*!< No ALT_MFP1 setting for PB.10 */
 854:./bsp/inc/SYS.h **** #define SYS_ALT_MFP2_PB10_TM2       NULL                /*!< No ALT_MFP2 setting for PB.10 */
 855:./bsp/inc/SYS.h **** #define SYS_ALT_MFP3_PB10_TM2       NULL                /*!< No ALT_MFP3 setting for PB.10 */
 856:./bsp/inc/SYS.h **** #define SYS_ALT_MFP4_PB10_TM2       NULL                /*!< No ALT_MFP4 setting for PB.10 */
 857:./bsp/inc/SYS.h **** 
 858:./bsp/inc/SYS.h **** #define SYS_GPB_MFP_PB10_Msk        (1UL<<10)           /*!< GPB_MFP PB.10 mask */
 859:./bsp/inc/SYS.h **** #define SYS_ALT_MFP_PB10_Msk        NULL                /*!< No ALT_MFP PB.10 mask */
 860:./bsp/inc/SYS.h **** #define SYS_ALT_MFP1_PB10_Msk       NULL                /*!< No ALT_MFP1 PB.10 mask */
 861:./bsp/inc/SYS.h **** #define SYS_ALT_MFP2_PB10_Msk       NULL                /*!< No ALT_MFP2 PB.10 mask */
 862:./bsp/inc/SYS.h **** #define SYS_ALT_MFP3_PB10_Msk       NULL                /*!< No ALT_MFP3 PB.10 mask */
 863:./bsp/inc/SYS.h **** #define SYS_ALT_MFP4_PB10_Msk       NULL                /*!< No ALT_MFP4 PB.10 mask */
 864:./bsp/inc/SYS.h **** 
 865:./bsp/inc/SYS.h **** //PB.11
 866:./bsp/inc/SYS.h **** #define SYS_GPB_MFP_PB11_GPIO       0x00000000UL        /*!< GPB_MFP PB.11 setting for GPIO */
 867:./bsp/inc/SYS.h **** #define SYS_ALT_MFP_PB11_GPIO       NULL                /*!< No ALT_MFP setting for PB.11 */
 868:./bsp/inc/SYS.h **** #define SYS_ALT_MFP1_PB11_GPIO      NULL                /*!< No ALT_MFP1 setting for PB.11 */
 869:./bsp/inc/SYS.h **** #define SYS_ALT_MFP2_PB11_GPIO      NULL                /*!< No ALT_MFP2 setting for PB.11 */
 870:./bsp/inc/SYS.h **** #define SYS_ALT_MFP3_PB11_GPIO      0x00000000UL        /*!< ALT_MFP3 PB.11 setting for GPIO */
 871:./bsp/inc/SYS.h **** #define SYS_ALT_MFP4_PB11_GPIO      NULL                /*!< No ALT_MFP4 setting for PB.11 */
 872:./bsp/inc/SYS.h **** 
 873:./bsp/inc/SYS.h **** #define SYS_GPB_MFP_PB11_TM3        (1UL<<11)           /*!< GPB_MFP PB.11 setting for TM3 */
 874:./bsp/inc/SYS.h **** #define SYS_ALT_MFP_PB11_TM3        NULL                /*!< No ALT_MFP setting for PB.11 */
 875:./bsp/inc/SYS.h **** #define SYS_ALT_MFP1_PB11_TM3       NULL                /*!< No ALT_MFP1 setting for PB.11 */
 876:./bsp/inc/SYS.h **** #define SYS_ALT_MFP2_PB11_TM3       NULL                /*!< No ALT_MFP2 setting for PB.11 */
 877:./bsp/inc/SYS.h **** #define SYS_ALT_MFP3_PB11_TM3       0x00000000UL        /*!< ALT_MFP3 PB.11 setting for TM3 */
 878:./bsp/inc/SYS.h **** #define SYS_ALT_MFP4_PB11_TM3       NULL                /*!< No ALT_MFP4 setting for PB.11 */
 879:./bsp/inc/SYS.h **** 
 880:./bsp/inc/SYS.h **** #define SYS_GPB_MFP_PB11_PWM0_CH4   (1UL<<11)           /*!< GPB_MFP PB.11 setting for PWM0_CH4 */
 881:./bsp/inc/SYS.h **** #define SYS_ALT_MFP_PB11_PWM0_CH4   NULL                /*!< No ALT_MFP setting for PB.11 */
 882:./bsp/inc/SYS.h **** #define SYS_ALT_MFP1_PB11_PWM0_CH4  NULL                /*!< No ALT_MFP1 setting for PB.11 */
 883:./bsp/inc/SYS.h **** #define SYS_ALT_MFP2_PB11_PWM0_CH4  NULL                /*!< No ALT_MFP2 setting for PB.11 */
 884:./bsp/inc/SYS.h **** #define SYS_ALT_MFP3_PB11_PWM0_CH4  (1UL<<24)           /*!< ALT_MFP3 PB.11 setting for PWM0_CH4 */
 885:./bsp/inc/SYS.h **** #define SYS_ALT_MFP4_PB11_PWM0_CH4  NULL                /*!< No ALT_MFP4 setting for PB.11 */
 886:./bsp/inc/SYS.h **** 
 887:./bsp/inc/SYS.h **** #define SYS_GPB_MFP_PB11_Msk        (1UL<<11)           /*!< GPB_MFP PB.11 mask */
 888:./bsp/inc/SYS.h **** #define SYS_ALT_MFP_PB11_Msk        NULL                /*!< No ALT_MFP PB.11 mask */
 889:./bsp/inc/SYS.h **** #define SYS_ALT_MFP1_PB11_Msk       NULL                /*!< No ALT_MFP1 PB.11 mask */
 890:./bsp/inc/SYS.h **** #define SYS_ALT_MFP2_PB11_Msk       NULL                /*!< No ALT_MFP2 PB.11 mask */
 891:./bsp/inc/SYS.h **** #define SYS_ALT_MFP3_PB11_Msk       (1UL<<24)           /*!< ALT_MFP3 PB.11 mask */
 892:./bsp/inc/SYS.h **** #define SYS_ALT_MFP4_PB11_Msk       NULL                /*!< No ALT_MFP4 PB.11 mask */
 893:./bsp/inc/SYS.h **** 
 894:./bsp/inc/SYS.h **** //PB.12
 895:./bsp/inc/SYS.h **** #define SYS_GPB_MFP_PB12_GPIO       0x00000000UL        /*!< GPB_MFP PB.12 setting for GPIO */
 896:./bsp/inc/SYS.h **** #define SYS_ALT_MFP_PB12_GPIO       NULL                /*!< No ALT_MFP setting for PB.12 */
 897:./bsp/inc/SYS.h **** #define SYS_ALT_MFP1_PB12_GPIO      NULL                /*!< No ALT_MFP1 setting for PB.12 */
 898:./bsp/inc/SYS.h **** #define SYS_ALT_MFP2_PB12_GPIO      NULL                /*!< No ALT_MFP2 setting for PB.12 */
 899:./bsp/inc/SYS.h **** #define SYS_ALT_MFP3_PB12_GPIO      0x00000000UL        /*!< ALT_MFP3 PB.12 setting for GPIO */
 900:./bsp/inc/SYS.h **** #define SYS_ALT_MFP4_PB12_GPIO      NULL                /*!< No ALT_MFP4 setting for PB.12 */
 901:./bsp/inc/SYS.h **** 
 902:./bsp/inc/SYS.h **** #define SYS_GPB_MFP_PB12_CLKO       (1UL<<12)           /*!< GPB_MFP PB.12 setting for CLKO */
 903:./bsp/inc/SYS.h **** #define SYS_ALT_MFP_PB12_CLKO       NULL                /*!< No ALT_MFP setting for PB.12 */
 904:./bsp/inc/SYS.h **** #define SYS_ALT_MFP1_PB12_CLKO      NULL                /*!< No ALT_MFP1 setting for PB.12 */
 905:./bsp/inc/SYS.h **** #define SYS_ALT_MFP2_PB12_CLKO      NULL                /*!< No ALT_MFP2 setting for PB.12 */
 906:./bsp/inc/SYS.h **** #define SYS_ALT_MFP3_PB12_CLKO      0x00000000UL        /*!< ALT_MFP3 PB.12 setting for CLKO */
 907:./bsp/inc/SYS.h **** #define SYS_ALT_MFP4_PB12_CLKO      NULL                /*!< No ALT_MFP4 setting for PB.12 */
 908:./bsp/inc/SYS.h **** 
 909:./bsp/inc/SYS.h **** #define SYS_GPB_MFP_PB12_BPWM1_CH3      (1UL<<12)       /*!< GPB_MFP PB.12 setting for BPWM1_CH3 */
 910:./bsp/inc/SYS.h **** #define SYS_ALT_MFP_PB12_BPWM1_CH3      NULL            /*!< No ALT_MFP setting for PB.12 */
 911:./bsp/inc/SYS.h **** #define SYS_ALT_MFP1_PB12_BPWM1_CH3     NULL            /*!< No ALT_MFP1 setting for PB.12 */
 912:./bsp/inc/SYS.h **** #define SYS_ALT_MFP2_PB12_BPWM1_CH3     NULL            /*!< No ALT_MFP2 setting for PB.12 */
 913:./bsp/inc/SYS.h **** #define SYS_ALT_MFP3_PB12_BPWM1_CH3     (1UL<<21)       /*!< ALT_MFP3 PB.12 setting for BPWM1_CH3 *
 914:./bsp/inc/SYS.h **** #define SYS_ALT_MFP4_PB12_BPWM1_CH3     NULL            /*!< No ALT_MFP4 setting for PB.12 */
 915:./bsp/inc/SYS.h **** 
 916:./bsp/inc/SYS.h **** #define SYS_GPB_MFP_PB12_Msk        (1UL<<12)           /*!< GPB_MFP PB.12 mask */
 917:./bsp/inc/SYS.h **** #define SYS_ALT_MFP_PB12_Msk        NULL                /*!< No ALT_MFP PB.12 mask */
 918:./bsp/inc/SYS.h **** #define SYS_ALT_MFP1_PB12_Msk       NULL                /*!< No ALT_MFP1 PB.12 mask */
 919:./bsp/inc/SYS.h **** #define SYS_ALT_MFP2_PB12_Msk       NULL                /*!< No ALT_MFP2 PB.12 mask */
 920:./bsp/inc/SYS.h **** #define SYS_ALT_MFP3_PB12_Msk       (1UL<<21)           /*!< ALT_MFP3 PB.12 mask */
 921:./bsp/inc/SYS.h **** #define SYS_ALT_MFP4_PB12_Msk       NULL                /*!< No ALT_MFP4 PB.12 mask */
 922:./bsp/inc/SYS.h **** 
 923:./bsp/inc/SYS.h **** //PB.13
 924:./bsp/inc/SYS.h **** #define SYS_GPB_MFP_PB13_GPIO       0x00000000UL        /*!< GPB_MFP PB.13 setting for GPIO */
 925:./bsp/inc/SYS.h **** #define SYS_ALT_MFP_PB13_GPIO       NULL                /*!< No ALT_MFP setting for PB.13 */
 926:./bsp/inc/SYS.h **** #define SYS_ALT_MFP1_PB13_GPIO      NULL                /*!< No ALT_MFP1 setting for PB.13 */
 927:./bsp/inc/SYS.h **** #define SYS_ALT_MFP2_PB13_GPIO      NULL                /*!< No ALT_MFP2 setting for PB.13 */
 928:./bsp/inc/SYS.h **** #define SYS_ALT_MFP3_PB13_GPIO      NULL                /*!< No ALT_MFP3 setting for PB.13 */
 929:./bsp/inc/SYS.h **** #define SYS_ALT_MFP4_PB13_GPIO      NULL                /*!< No ALT_MFP4 setting for PB.13 */
 930:./bsp/inc/SYS.h **** 
 931:./bsp/inc/SYS.h **** #define SYS_GPB_MFP_PB13_Msk        (1UL<<13)           /*!< GPB_MFP PB.13 mask */
 932:./bsp/inc/SYS.h **** #define SYS_ALT_MFP_PB13_Msk        NULL                /*!< No ALT_MFP PB.13 mask */
 933:./bsp/inc/SYS.h **** #define SYS_ALT_MFP1_PB13_Msk       NULL                /*!< No ALT_MFP1 PB.13 mask */
 934:./bsp/inc/SYS.h **** #define SYS_ALT_MFP2_PB13_Msk       NULL                /*!< No ALT_MFP2 PB.13 mask */
 935:./bsp/inc/SYS.h **** #define SYS_ALT_MFP3_PB13_Msk       NULL                /*!< No ALT_MFP3 PB.13 mask */
 936:./bsp/inc/SYS.h **** #define SYS_ALT_MFP4_PB13_Msk       NULL                /*!< No ALT_MFP4 PB.13 mask */
 937:./bsp/inc/SYS.h **** 
 938:./bsp/inc/SYS.h **** //PB.14
 939:./bsp/inc/SYS.h **** #define SYS_GPB_MFP_PB14_GPIO       0x00000000UL        /*!< GPB_MFP PB.14 setting for GPIO */
 940:./bsp/inc/SYS.h **** #define SYS_ALT_MFP_PB14_GPIO       NULL                /*!< No ALT_MFP setting for PB.14 */
 941:./bsp/inc/SYS.h **** #define SYS_ALT_MFP1_PB14_GPIO      NULL                /*!< No ALT_MFP1 setting for PB.14 */
 942:./bsp/inc/SYS.h **** #define SYS_ALT_MFP2_PB14_GPIO      NULL                /*!< No ALT_MFP2 setting for PB.14 */
 943:./bsp/inc/SYS.h **** #define SYS_ALT_MFP3_PB14_GPIO      NULL                /*!< No ALT_MFP3 setting for PB.14 */
 944:./bsp/inc/SYS.h **** #define SYS_ALT_MFP4_PB14_GPIO      NULL                /*!< No ALT_MFP4 setting for PB.14 */
 945:./bsp/inc/SYS.h **** 
 946:./bsp/inc/SYS.h **** #define SYS_GPB_MFP_PB14_INT0       0x00000000UL        /*!< GPB_MFP PB.14 setting for INT0 */
 947:./bsp/inc/SYS.h **** #define SYS_ALT_MFP_PB14_INT0       NULL                /*!< No ALT_MFP setting for PB.14 */
 948:./bsp/inc/SYS.h **** #define SYS_ALT_MFP1_PB14_INT0      NULL                /*!< No ALT_MFP1 setting for PB.14 */
 949:./bsp/inc/SYS.h **** #define SYS_ALT_MFP2_PB14_INT0      NULL                /*!< No ALT_MFP2 setting for PB.14 */
 950:./bsp/inc/SYS.h **** #define SYS_ALT_MFP3_PB14_INT0      NULL                /*!< No ALT_MFP3 setting for PB.14 */
 951:./bsp/inc/SYS.h **** #define SYS_ALT_MFP4_PB14_INT0      NULL                /*!< No ALT_MFP4 setting for PB.14 */
 952:./bsp/inc/SYS.h **** 
 953:./bsp/inc/SYS.h **** #define SYS_GPB_MFP_PB14_Msk        (1UL<<14)           /*!< GPB_MFP PB.14 mask */
 954:./bsp/inc/SYS.h **** #define SYS_ALT_MFP_PB14_Msk        NULL                /*!< No ALT_MFP PB.14 mask */
 955:./bsp/inc/SYS.h **** #define SYS_ALT_MFP1_PB14_Msk       NULL                /*!< No ALT_MFP1 PB.14 mask */
 956:./bsp/inc/SYS.h **** #define SYS_ALT_MFP2_PB14_Msk       NULL                /*!< No ALT_MFP2 PB.14 mask */
 957:./bsp/inc/SYS.h **** #define SYS_ALT_MFP3_PB14_Msk       NULL                /*!< No ALT_MFP3 PB.14 mask */
 958:./bsp/inc/SYS.h **** #define SYS_ALT_MFP4_PB14_Msk       NULL                /*!< No ALT_MFP4 PB.14 mask */
 959:./bsp/inc/SYS.h **** 
 960:./bsp/inc/SYS.h **** //PB.15
 961:./bsp/inc/SYS.h **** #define SYS_GPB_MFP_PB15_GPIO       0x00000000UL        /*!< GPB_MFP PB.15 setting for GPIO */
 962:./bsp/inc/SYS.h **** #define SYS_ALT_MFP_PB15_GPIO       0x00000000UL        /*!< ALT_MFP PB.15 setting for GPIO */
 963:./bsp/inc/SYS.h **** #define SYS_ALT_MFP1_PB15_GPIO      NULL                /*!< No ALT_MFP1 setting for PB.15 */
 964:./bsp/inc/SYS.h **** #define SYS_ALT_MFP2_PB15_GPIO      0x00000000UL        /*!< ALT_MFP2 PB.15 setting for GPIO */
 965:./bsp/inc/SYS.h **** #define SYS_ALT_MFP3_PB15_GPIO      NULL                /*!< No ALT_MFP3 setting for PB.15 */
 966:./bsp/inc/SYS.h **** #define SYS_ALT_MFP4_PB15_GPIO      NULL                /*!< No ALT_MFP4 setting for PB.15 */
 967:./bsp/inc/SYS.h **** 
 968:./bsp/inc/SYS.h **** #define SYS_GPB_MFP_PB15_INT1       (1UL<<15)           /*!< GPB_MFP PB.15 setting for INT1 */
 969:./bsp/inc/SYS.h **** #define SYS_ALT_MFP_PB15_INT1       0x00000000UL        /*!< ALT_MFP PB.15 setting for INT1 */
 970:./bsp/inc/SYS.h **** #define SYS_ALT_MFP1_PB15_INT1      NULL                /*!< No ALT_MFP1 setting for PB.15 */
 971:./bsp/inc/SYS.h **** #define SYS_ALT_MFP2_PB15_INT1      0x00000000UL        /*!< ALT_MFP2 PB.15 setting for INT1 */
 972:./bsp/inc/SYS.h **** #define SYS_ALT_MFP3_PB15_INT1      NULL                /*!< No ALT_MFP3 setting for PB.15 */
 973:./bsp/inc/SYS.h **** #define SYS_ALT_MFP4_PB15_INT1      NULL                /*!< No ALT_MFP4 setting for PB.15 */
 974:./bsp/inc/SYS.h **** 
 975:./bsp/inc/SYS.h **** #define SYS_GPB_MFP_PB15_TM0        (1UL<<15)           /*!< GPB_MFP PB.15 setting for TM0 */
 976:./bsp/inc/SYS.h **** #define SYS_ALT_MFP_PB15_TM0        0x00000000UL        /*!< ALT_MFP PB.15 setting for TM0 */
 977:./bsp/inc/SYS.h **** #define SYS_ALT_MFP1_PB15_TM0       NULL                /*!< No ALT_MFP1 setting for PB.15 */
 978:./bsp/inc/SYS.h **** #define SYS_ALT_MFP2_PB15_TM0       (1UL<<2)            /*!< ALT_MFP2 PB.15 setting for TM0 */
 979:./bsp/inc/SYS.h **** #define SYS_ALT_MFP3_PB15_TM0       NULL                /*!< No ALT_MFP3 setting for PB.15 */
 980:./bsp/inc/SYS.h **** #define SYS_ALT_MFP4_PB15_TM0       NULL                /*!< No ALT_MFP4 setting for PB.15 */
 981:./bsp/inc/SYS.h **** 
 982:./bsp/inc/SYS.h **** #define SYS_GPB_MFP_PB15_TM0_EXT    (1UL<<15)           /*!< GPB_MFP PB.15 setting for TM0_EXT */
 983:./bsp/inc/SYS.h **** #define SYS_ALT_MFP_PB15_TM0_EXT    (1UL<<24)           /*!< ALT_MFP PB.15 setting for TM0_EXT */
 984:./bsp/inc/SYS.h **** #define SYS_ALT_MFP1_PB15_TM0_EXT   NULL                /*!< No ALT_MFP1 setting for PB.15 */
 985:./bsp/inc/SYS.h **** #define SYS_ALT_MFP2_PB15_TM0_EXT   0x00000000UL        /*!< ALT_MFP2 PB.15 setting for TM0_EXT */
 986:./bsp/inc/SYS.h **** #define SYS_ALT_MFP3_PB15_TM0_EXT   NULL                /*!< No ALT_MFP3 setting for PB.15 */
 987:./bsp/inc/SYS.h **** #define SYS_ALT_MFP4_PB15_TM0_EXT   NULL                /*!< No ALT_MFP4 setting for PB.15 */
 988:./bsp/inc/SYS.h **** 
 989:./bsp/inc/SYS.h **** #define SYS_GPB_MFP_PB15_Msk        (1UL<<15)           /*!< GPB_MFP PB.15 mask */
 990:./bsp/inc/SYS.h **** #define SYS_ALT_MFP_PB15_Msk        (1UL<<24)           /*!< ALT_MFP PB.15 mask */
 991:./bsp/inc/SYS.h **** #define SYS_ALT_MFP1_PB15_Msk       NULL                /*!< No ALT_MFP1 PB.15 mask */
 992:./bsp/inc/SYS.h **** #define SYS_ALT_MFP2_PB15_Msk       (1UL<<2)            /*!< ALT_MFP2 PB.15 mask */
 993:./bsp/inc/SYS.h **** #define SYS_ALT_MFP3_PB15_Msk       NULL                /*!< No ALT_MFP3 PB.15 mask */
 994:./bsp/inc/SYS.h **** #define SYS_ALT_MFP4_PB15_Msk       NULL                /*!< No ALT_MFP4 PB.15 mask */
 995:./bsp/inc/SYS.h **** 
 996:./bsp/inc/SYS.h **** //PC.0
 997:./bsp/inc/SYS.h **** #define SYS_GPC_MFP_PC0_GPIO        0x00000000UL        /*!< GPC_MFP PC.0 setting for GPIO */
 998:./bsp/inc/SYS.h **** #define SYS_ALT_MFP_PC0_GPIO        NULL                /*!< No ALT_MFP setting for PC.0 */
 999:./bsp/inc/SYS.h **** #define SYS_ALT_MFP1_PC0_GPIO       NULL                /*!< No ALT_MFP1 setting for PC.0 */
1000:./bsp/inc/SYS.h **** #define SYS_ALT_MFP2_PC0_GPIO       NULL                /*!< ALT_MFP2 PC.0 setting for GPIO */
1001:./bsp/inc/SYS.h **** #define SYS_ALT_MFP3_PC0_GPIO       0x00000000UL        /*!< No ALT_MFP3 setting for PC.0 */
1002:./bsp/inc/SYS.h **** #define SYS_ALT_MFP4_PC0_GPIO       NULL                /*!< No ALT_MFP4 setting for PC.0 */
1003:./bsp/inc/SYS.h **** 
1004:./bsp/inc/SYS.h **** #define SYS_GPC_MFP_PC0_SPI0_SS0    (1UL<<0)            /*!< GPC_MFP PC.0 setting for SPI0_SS0 */
1005:./bsp/inc/SYS.h **** #define SYS_ALT_MFP_PC0_SPI0_SS0    NULL                /*!< No ALT_MFP setting for PC.0 */
1006:./bsp/inc/SYS.h **** #define SYS_ALT_MFP1_PC0_SPI0_SS0   NULL                /*!< No ALT_MFP1 setting for PC.0 */
1007:./bsp/inc/SYS.h **** #define SYS_ALT_MFP2_PC0_SPI0_SS0   NULL                /*!< ALT_MFP2 PC.0 setting for SPI0_SS0 */
1008:./bsp/inc/SYS.h **** #define SYS_ALT_MFP3_PC0_SPI0_SS0   0x00000000UL        /*!< No ALT_MFP3 setting for PC.0 */
1009:./bsp/inc/SYS.h **** #define SYS_ALT_MFP4_PC0_SPI0_SS0   NULL                /*!< No ALT_MFP4 setting for PC.0 */
1010:./bsp/inc/SYS.h **** 
1011:./bsp/inc/SYS.h **** #define SYS_GPC_MFP_PC0_BPWM0_CH0       (1UL<<0)        /*!< GPC_MFP PC.0 setting for BPWM0_CH0 */
1012:./bsp/inc/SYS.h **** #define SYS_ALT_MFP_PC0_BPWM0_CH0       NULL            /*!< No ALT_MFP setting for PC.0 */
1013:./bsp/inc/SYS.h **** #define SYS_ALT_MFP1_PC0_BPWM0_CH0      NULL            /*!< No ALT_MFP1 setting for PC.0 */
1014:./bsp/inc/SYS.h **** #define SYS_ALT_MFP2_PC0_BPWM0_CH0      NULL            /*!< ALT_MFP2 PC.0 setting for BPWM0_CH0 */
1015:./bsp/inc/SYS.h **** #define SYS_ALT_MFP3_PC0_BPWM0_CH0      (1UL<<12)       /*!< No ALT_MFP3 setting for PC.0 */
1016:./bsp/inc/SYS.h **** #define SYS_ALT_MFP4_PC0_BPWM0_CH0      NULL            /*!< No ALT_MFP4 setting for PC.0 */
1017:./bsp/inc/SYS.h **** 
1018:./bsp/inc/SYS.h **** #define SYS_GPC_MFP_PC0_Msk         (1UL<<0)            /*!< GPC_MFP PC.0 mask */
1019:./bsp/inc/SYS.h **** #define SYS_ALT_MFP_PC0_Msk         NULL                /*!< No ALT_MFP PC.0 mask */
1020:./bsp/inc/SYS.h **** #define SYS_ALT_MFP1_PC0_Msk        NULL                /*!< No ALT_MFP1 PC.0 mask */
1021:./bsp/inc/SYS.h **** #define SYS_ALT_MFP2_PC0_Msk        NULL                /*!< No ALT_MFP2 PC.0 mask */
1022:./bsp/inc/SYS.h **** #define SYS_ALT_MFP3_PC0_Msk        (1UL<<12)           /*!< ALT_MFP3 PC.0 mask */
1023:./bsp/inc/SYS.h **** #define SYS_ALT_MFP4_PC0_Msk        NULL                /*!< No ALT_MFP4 PC.0 mask */
1024:./bsp/inc/SYS.h **** 
1025:./bsp/inc/SYS.h **** //PC.1
1026:./bsp/inc/SYS.h **** #define SYS_GPC_MFP_PC1_GPIO        0x00000000UL        /*!< GPC_MFP PC.1 setting for GPIO */
1027:./bsp/inc/SYS.h **** #define SYS_ALT_MFP_PC1_GPIO        NULL                /*!< No ALT_MFP setting for PC.1 */
1028:./bsp/inc/SYS.h **** #define SYS_ALT_MFP1_PC1_GPIO       NULL                /*!< No ALT_MFP1 setting for PC.1 */
1029:./bsp/inc/SYS.h **** #define SYS_ALT_MFP2_PC1_GPIO       NULL                /*!< No ALT_MFP2 setting for PC.1 */
1030:./bsp/inc/SYS.h **** #define SYS_ALT_MFP3_PC1_GPIO       0x00000000UL        /*!< ALT_MFP3 PC.1 setting for GPIO */
1031:./bsp/inc/SYS.h **** #define SYS_ALT_MFP4_PC1_GPIO       NULL                /*!< No ALT_MFP4 setting for PC.1 */
1032:./bsp/inc/SYS.h **** 
1033:./bsp/inc/SYS.h **** #define SYS_GPC_MFP_PC1_SPI0_CLK        (1UL<<1)        /*!< GPC_MFP PC.1 setting for SPI0_CLK */
1034:./bsp/inc/SYS.h **** #define SYS_ALT_MFP_PC1_SPI0_CLK        NULL            /*!< No ALT_MFP setting for PC.1 */
1035:./bsp/inc/SYS.h **** #define SYS_ALT_MFP1_PC1_SPI0_CLK       NULL            /*!< No ALT_MFP1 setting for PC.1 */
1036:./bsp/inc/SYS.h **** #define SYS_ALT_MFP2_PC1_SPI0_CLK       NULL            /*!< No ALT_MFP2 setting for PC.1 */
1037:./bsp/inc/SYS.h **** #define SYS_ALT_MFP3_PC1_SPI0_CLK       0x00000000UL    /*!< ALT_MFP3 PC.1 setting for SPI0_CLK */
1038:./bsp/inc/SYS.h **** #define SYS_ALT_MFP4_PC1_SPI0_CLK       NULL            /*!< No ALT_MFP4 setting for PC.1 */
1039:./bsp/inc/SYS.h **** 
1040:./bsp/inc/SYS.h **** #define SYS_GPC_MFP_PC1_BPWM0_CH1       (1UL<<1)        /*!< GPC_MFP PC.1 setting for BPWM0_CH1 */
1041:./bsp/inc/SYS.h **** #define SYS_ALT_MFP_PC1_BPWM0_CH1       NULL            /*!< No ALT_MFP setting for PC.1 */
1042:./bsp/inc/SYS.h **** #define SYS_ALT_MFP1_PC1_BPWM0_CH1      NULL            /*!< No ALT_MFP1 setting for PC.1 */
1043:./bsp/inc/SYS.h **** #define SYS_ALT_MFP2_PC1_BPWM0_CH1      NULL            /*!< No ALT_MFP2 setting for PC.1 */
1044:./bsp/inc/SYS.h **** #define SYS_ALT_MFP3_PC1_BPWM0_CH1      (1UL<<13)       /*!< ALT_MFP3 PC.1 setting for BPWM0_CH1 */
1045:./bsp/inc/SYS.h **** #define SYS_ALT_MFP4_PC1_BPWM0_CH1      NULL            /*!< No ALT_MFP4 setting for PC.1 */
1046:./bsp/inc/SYS.h **** 
1047:./bsp/inc/SYS.h **** #define SYS_GPC_MFP_PC1_Msk         (1UL<<1)            /*!< GPC_MFP PC.1 mask */
1048:./bsp/inc/SYS.h **** #define SYS_ALT_MFP_PC1_Msk         NULL                /*!< No ALT_MFP PC.1 mask */
1049:./bsp/inc/SYS.h **** #define SYS_ALT_MFP1_PC1_Msk        NULL                /*!< No ALT_MFP1 PC.1 mask */
1050:./bsp/inc/SYS.h **** #define SYS_ALT_MFP2_PC1_Msk        NULL                /*!< No ALT_MFP2 PC.1 mask */
1051:./bsp/inc/SYS.h **** #define SYS_ALT_MFP3_PC1_Msk        (1UL<<13)           /*!< ALT_MFP3 PC.1 mask */
1052:./bsp/inc/SYS.h **** #define SYS_ALT_MFP4_PC1_Msk        NULL                /*!< No ALT_MFP4 PC.1 mask */
1053:./bsp/inc/SYS.h **** 
1054:./bsp/inc/SYS.h **** //PC.2
1055:./bsp/inc/SYS.h **** #define SYS_GPC_MFP_PC2_GPIO        0x00000000UL        /*!< GPC_MFP PC.2 setting for GPIO */
1056:./bsp/inc/SYS.h **** #define SYS_ALT_MFP_PC2_GPIO        NULL                /*!< No ALT_MFP setting for PC.2 */
1057:./bsp/inc/SYS.h **** #define SYS_ALT_MFP1_PC2_GPIO       NULL                /*!< No ALT_MFP1 setting for PC.2 */
1058:./bsp/inc/SYS.h **** #define SYS_ALT_MFP2_PC2_GPIO       NULL                /*!< No ALT_MFP2 setting for PC.2 */
1059:./bsp/inc/SYS.h **** #define SYS_ALT_MFP3_PC2_GPIO       0x00000000UL        /*!< ALT_MFP3 PC.2 setting for GPIO */
1060:./bsp/inc/SYS.h **** #define SYS_ALT_MFP4_PC2_GPIO       NULL                /*!< No ALT_MFP4 setting for PC.2 */
1061:./bsp/inc/SYS.h **** 
1062:./bsp/inc/SYS.h **** #define SYS_GPC_MFP_PC2_SPI0_MISO0      (1UL<<2)        /*!< GPC_MFP PC.2 setting for SPI0_MISO0 */
1063:./bsp/inc/SYS.h **** #define SYS_ALT_MFP_PC2_SPI0_MISO0      NULL            /*!< No ALT_MFP setting for PC.2 */
1064:./bsp/inc/SYS.h **** #define SYS_ALT_MFP1_PC2_SPI0_MISO0     NULL            /*!< No ALT_MFP1 setting for PC.2 */
1065:./bsp/inc/SYS.h **** #define SYS_ALT_MFP2_PC2_SPI0_MISO0     NULL            /*!< No ALT_MFP2 setting for PC.2 */
1066:./bsp/inc/SYS.h **** #define SYS_ALT_MFP3_PC2_SPI0_MISO0     0x00000000UL    /*!< ALT_MFP3 PC.2 setting for SPI0_MISO0 *
1067:./bsp/inc/SYS.h **** #define SYS_ALT_MFP4_PC2_SPI0_MISO0     NULL            /*!< No ALT_MFP4 setting for PC.2 */
1068:./bsp/inc/SYS.h **** 
1069:./bsp/inc/SYS.h **** #define SYS_GPC_MFP_PC2_BPWM0_CH2   (1UL<<2)            /*!< GPC_MFP PC.2 setting for BPWM0_CH2 */
1070:./bsp/inc/SYS.h **** #define SYS_ALT_MFP_PC2_BPWM0_CH2   NULL                /*!< No ALT_MFP setting for PC.2 */
1071:./bsp/inc/SYS.h **** #define SYS_ALT_MFP1_PC2_BPWM0_CH2  NULL                /*!< No ALT_MFP1 setting for PC.2 */
1072:./bsp/inc/SYS.h **** #define SYS_ALT_MFP2_PC2_BPWM0_CH2  NULL                /*!< No ALT_MFP2 setting for PC.2 */
1073:./bsp/inc/SYS.h **** #define SYS_ALT_MFP3_PC2_BPWM0_CH2  (1UL<<14)           /*!< ALT_MFP3 PC.2 setting for BPWM0_CH2 */
1074:./bsp/inc/SYS.h **** #define SYS_ALT_MFP4_PC2_BPWM0_CH2  NULL                /*!< No ALT_MFP4 setting for PC.2 */
1075:./bsp/inc/SYS.h **** 
1076:./bsp/inc/SYS.h **** #define SYS_GPC_MFP_PC2_Msk         (1UL<<2)            /*!< GPC_MFP PC.2 mask */
1077:./bsp/inc/SYS.h **** #define SYS_ALT_MFP_PC2_Msk         NULL                /*!< No ALT_MFP PC.2 mask */
1078:./bsp/inc/SYS.h **** #define SYS_ALT_MFP1_PC2_Msk        NULL                /*!< No ALT_MFP1 PC.2 mask */
1079:./bsp/inc/SYS.h **** #define SYS_ALT_MFP2_PC2_Msk        NULL                /*!< No ALT_MFP2 PC.2 mask */
1080:./bsp/inc/SYS.h **** #define SYS_ALT_MFP3_PC2_Msk        (1UL<<14)           /*!< ALT_MFP3 PC.2 mask */
1081:./bsp/inc/SYS.h **** #define SYS_ALT_MFP4_PC2_Msk        NULL                /*!< No ALT_MFP4 PC.2 mask */
1082:./bsp/inc/SYS.h **** 
1083:./bsp/inc/SYS.h **** //PC.3
1084:./bsp/inc/SYS.h **** #define SYS_GPC_MFP_PC3_GPIO        0x00000000UL        /*!< GPC_MFP PC.3 setting for GPIO */
1085:./bsp/inc/SYS.h **** #define SYS_ALT_MFP_PC3_GPIO        NULL                /*!< No ALT_MFP setting for PC.3 */
1086:./bsp/inc/SYS.h **** #define SYS_ALT_MFP1_PC3_GPIO       NULL                /*!< No ALT_MFP1 setting for PC.3 */
1087:./bsp/inc/SYS.h **** #define SYS_ALT_MFP2_PC3_GPIO       NULL                /*!< No ALT_MFP2 setting for PC.3 */
1088:./bsp/inc/SYS.h **** #define SYS_ALT_MFP3_PC3_GPIO       0x00000000UL        /*!< ALT_MFP3 PC.3 setting for GPIO */
1089:./bsp/inc/SYS.h **** #define SYS_ALT_MFP4_PC3_GPIO       NULL                /*!< No ALT_MFP4 setting for PC.3 */
1090:./bsp/inc/SYS.h **** 
1091:./bsp/inc/SYS.h **** #define SYS_GPC_MFP_PC3_SPI0_MOSI0      (1UL<<3)        /*!< GPC_MFP PC.3 setting for SPI0_MOSI0 */
1092:./bsp/inc/SYS.h **** #define SYS_ALT_MFP_PC3_SPI0_MOSI0      NULL            /*!< No ALT_MFP setting for PC.3 */
1093:./bsp/inc/SYS.h **** #define SYS_ALT_MFP1_PC3_SPI0_MOSI0     NULL            /*!< No ALT_MFP1 setting for PC.3 */
1094:./bsp/inc/SYS.h **** #define SYS_ALT_MFP2_PC3_SPI0_MOSI0     NULL            /*!< No ALT_MFP2 setting for PC.3 */
1095:./bsp/inc/SYS.h **** #define SYS_ALT_MFP3_PC3_SPI0_MOSI0     0x00000000UL    /*!< ALT_MFP3 PC.3 setting for SPI0_MOSI0 *
1096:./bsp/inc/SYS.h **** #define SYS_ALT_MFP4_PC3_SPI0_MOSI0     NULL            /*!< No ALT_MFP4 setting for PC.3 */
1097:./bsp/inc/SYS.h **** 
1098:./bsp/inc/SYS.h **** #define SYS_GPC_MFP_PC3_BPWM0_CH3   (1UL<<3)            /*!< GPC_MFP PC.3 setting for BPWM0_CH3 */
1099:./bsp/inc/SYS.h **** #define SYS_ALT_MFP_PC3_BPWM0_CH3   NULL                /*!< No ALT_MFP setting for PC.3 */
1100:./bsp/inc/SYS.h **** #define SYS_ALT_MFP1_PC3_BPWM0_CH3  NULL                /*!< No ALT_MFP1 setting for PC.3 */
1101:./bsp/inc/SYS.h **** #define SYS_ALT_MFP2_PC3_BPWM0_CH3  NULL                /*!< No ALT_MFP2 setting for PC.3 */
1102:./bsp/inc/SYS.h **** #define SYS_ALT_MFP3_PC3_BPWM0_CH3  (1UL<<15)           /*!< ALT_MFP3 PC.3 setting for BPWM0_CH3 */
1103:./bsp/inc/SYS.h **** #define SYS_ALT_MFP4_PC3_BPWM0_CH3  NULL                /*!< No ALT_MFP4 setting for PC.3 */
1104:./bsp/inc/SYS.h **** 
1105:./bsp/inc/SYS.h **** #define SYS_GPC_MFP_PC3_Msk         (1UL<<3)            /*!< GPC_MFP PC.3 mask */
1106:./bsp/inc/SYS.h **** #define SYS_ALT_MFP_PC3_Msk         NULL                /*!< No ALT_MFP PC.3 mask */
1107:./bsp/inc/SYS.h **** #define SYS_ALT_MFP1_PC3_Msk        NULL                /*!< No ALT_MFP1 PC.3 mask */
1108:./bsp/inc/SYS.h **** #define SYS_ALT_MFP2_PC3_Msk        NULL                /*!< No ALT_MFP2 PC.3 mask */
1109:./bsp/inc/SYS.h **** #define SYS_ALT_MFP3_PC3_Msk        (1UL<<15)           /*!< ALT_MFP3 PC.3 mask */
1110:./bsp/inc/SYS.h **** #define SYS_ALT_MFP4_PC3_Msk        NULL                /*!< No ALT_MFP4 PC.3 mask */
1111:./bsp/inc/SYS.h **** 
1112:./bsp/inc/SYS.h **** //PC.6
1113:./bsp/inc/SYS.h **** #define SYS_GPC_MFP_PC6_GPIO        0x00000000UL        /*!< GPC_MFP PC.6 setting for GPIO */
1114:./bsp/inc/SYS.h **** #define SYS_ALT_MFP_PC6_GPIO        NULL                /*!< No ALT_MFP setting for PC.6 */
1115:./bsp/inc/SYS.h **** #define SYS_ALT_MFP1_PC6_GPIO       NULL                /*!< No ALT_MFP1 setting for PC.6 */
1116:./bsp/inc/SYS.h **** #define SYS_ALT_MFP2_PC6_GPIO       NULL                /*!< No ALT_MFP2 setting for PC.6 */
1117:./bsp/inc/SYS.h **** #define SYS_ALT_MFP3_PC6_GPIO       0x00000000UL        /*!< ALT_MFP3 PC.4 setting for GPIO */
1118:./bsp/inc/SYS.h **** #define SYS_ALT_MFP4_PC6_GPIO       0x00000000UL        /*!< ALT_MFP4 PC.4 setting for GPIO */
1119:./bsp/inc/SYS.h **** 
1120:./bsp/inc/SYS.h **** #define SYS_GPC_MFP_PC6_UART4_TXD   (1UL<<6)            /*!< GPC_MFP PC.4 setting for UART6_TXD */
1121:./bsp/inc/SYS.h **** #define SYS_ALT_MFP_PC6_UART4_TXD   NULL                /*!< No ALT_MFP setting for PC.6 */
1122:./bsp/inc/SYS.h **** #define SYS_ALT_MFP1_PC6_UART4_TXD  NULL                /*!< No ALT_MFP1 setting for PC.6 */
1123:./bsp/inc/SYS.h **** #define SYS_ALT_MFP2_PC6_UART4_TXD  NULL                /*!< No ALT_MFP2 setting for PC.6 */
1124:./bsp/inc/SYS.h **** #define SYS_ALT_MFP3_PC6_UART4_TXD  0x00000000UL        /*!< ALT_MFP3 PC.6 setting for UART4_TXD */
1125:./bsp/inc/SYS.h **** #define SYS_ALT_MFP4_PC6_UART4_TXD  0x00000000UL        /*!< ALT_MFP4 PC.6 setting for UART4_TXD */
1126:./bsp/inc/SYS.h **** 
1127:./bsp/inc/SYS.h **** #define SYS_GPC_MFP_PC6_I2C0_SDA    (1UL<<6)            /*!< GPC_MFP PC.6 setting for I2C0_SDA */
1128:./bsp/inc/SYS.h **** #define SYS_ALT_MFP_PC6_I2C0_SDA    NULL                /*!< No ALT_MFP setting for PC.6 */
1129:./bsp/inc/SYS.h **** #define SYS_ALT_MFP1_PC6_I2C0_SDA   NULL                /*!< No ALT_MFP1 setting for PC.6 */
1130:./bsp/inc/SYS.h **** #define SYS_ALT_MFP2_PC6_I2C0_SDA   NULL                /*!< No ALT_MFP2 setting for PC.6 */
1131:./bsp/inc/SYS.h **** #define SYS_ALT_MFP3_PC6_I2C0_SDA   0x00000000UL        /*!< ALT_MFP3 PC.6 setting for I2C0_SDA */
1132:./bsp/inc/SYS.h **** #define SYS_ALT_MFP4_PC6_I2C0_SDA   (1UL<<10)           /*!< ALT_MFP4 PC.6 setting for I2C0_SDA */
1133:./bsp/inc/SYS.h **** 
1134:./bsp/inc/SYS.h **** #define SYS_GPC_MFP_PC6_PWM0_BREAK0     (1UL<<6)        /*!< GPC_MFP PC.6 setting for PWM0_BREAK0 *
1135:./bsp/inc/SYS.h **** #define SYS_ALT_MFP_PC6_PWM0_BREAK0     NULL            /*!< No ALT_MFP setting for PC.6 */
1136:./bsp/inc/SYS.h **** #define SYS_ALT_MFP1_PC6_PWM0_BREAK0    NULL            /*!< No ALT_MFP1 setting for PC.6 */
1137:./bsp/inc/SYS.h **** #define SYS_ALT_MFP2_PC6_PWM0_BREAK0    NULL            /*!< No ALT_MFP2 setting for PC.6 */
1138:./bsp/inc/SYS.h **** #define SYS_ALT_MFP3_PC6_PWM0_BREAK0    (1UL<<28)       /*!< ALT_MFP3 PC.6 setting for PWM0_BREAK0 
1139:./bsp/inc/SYS.h **** #define SYS_ALT_MFP4_PC6_PWM0_BREAK0    0x00000000UL    /*!< ALT_MFP4 PC.6 setting for PWM0_BREAK0 
1140:./bsp/inc/SYS.h **** 
1141:./bsp/inc/SYS.h **** #define SYS_GPC_MFP_PC6_Msk         (1UL<<6)            /*!< GPC_MFP PC.6 mask */
1142:./bsp/inc/SYS.h **** #define SYS_ALT_MFP_PC6_Msk         NULL                /*!< No ALT_MFP PC.6 mask */
1143:./bsp/inc/SYS.h **** #define SYS_ALT_MFP1_PC6_Msk        NULL                /*!< No ALT_MFP1 PC.6 mask */
1144:./bsp/inc/SYS.h **** #define SYS_ALT_MFP2_PC6_Msk        NULL                /*!< No ALT_MFP2 PC.6 mask */
1145:./bsp/inc/SYS.h **** #define SYS_ALT_MFP3_PC6_Msk        (1UL<<28)           /*!< ALT_MFP3 PC.6 mask */
1146:./bsp/inc/SYS.h **** #define SYS_ALT_MFP4_PC6_Msk        (1UL<<10)           /*!< ALT_MFP4 PC.6 mask */
1147:./bsp/inc/SYS.h **** 
1148:./bsp/inc/SYS.h **** //PC.7
1149:./bsp/inc/SYS.h **** #define SYS_GPC_MFP_PC7_GPIO        0x00000000UL        /*!< GPC_MFP PC.7 setting for GPIO */
1150:./bsp/inc/SYS.h **** #define SYS_ALT_MFP_PC7_GPIO        NULL                /*!< No ALT_MFP setting for PC.7 */
1151:./bsp/inc/SYS.h **** #define SYS_ALT_MFP1_PC7_GPIO       NULL                /*!< No ALT_MFP1 setting for PC.7 */
1152:./bsp/inc/SYS.h **** #define SYS_ALT_MFP2_PC7_GPIO       NULL                /*!< No ALT_MFP2 setting for PC.7 */
1153:./bsp/inc/SYS.h **** #define SYS_ALT_MFP3_PC7_GPIO       0x00000000UL        /*!< ALT_MFP3 PC.7 setting for GPIO */
1154:./bsp/inc/SYS.h **** #define SYS_ALT_MFP4_PC7_GPIO       0x00000000UL        /*!< ALT_MFP4 PC.7 setting for GPIO */
1155:./bsp/inc/SYS.h **** 
1156:./bsp/inc/SYS.h **** #define SYS_GPC_MFP_PC7_UART4_RXD   (1UL<<7)            /*!< GPC_MFP PC.7 setting for UART4_RXD */
1157:./bsp/inc/SYS.h **** #define SYS_ALT_MFP_PC7_UART4_RXD   NULL                /*!< No ALT_MFP setting for PC.7 */
1158:./bsp/inc/SYS.h **** #define SYS_ALT_MFP1_PC7_UART4_RXD  NULL                /*!< No ALT_MFP1 setting for PC.7 */
1159:./bsp/inc/SYS.h **** #define SYS_ALT_MFP2_PC7_UART4_RXD  NULL                /*!< No ALT_MFP2 setting for PC.7 */
1160:./bsp/inc/SYS.h **** #define SYS_ALT_MFP3_PC7_UART4_RXD  0x00000000UL        /*!< ALT_MFP3 PC.7 setting for UART4_RXD */
1161:./bsp/inc/SYS.h **** #define SYS_ALT_MFP4_PC7_UART4_RXD  0x00000000UL        /*!< ALT_MFP4 PC.7 setting for UART4_RXD */
1162:./bsp/inc/SYS.h **** 
1163:./bsp/inc/SYS.h **** #define SYS_GPC_MFP_PC7_I2C0_SCL    (1UL<<7)            /*!< GPC_MFP PC.7 setting for I2C0_SCL */
1164:./bsp/inc/SYS.h **** #define SYS_ALT_MFP_PC7_I2C0_SCL    NULL                /*!< No ALT_MFP setting for PC.7 */
1165:./bsp/inc/SYS.h **** #define SYS_ALT_MFP1_PC7_I2C0_SCL   NULL                /*!< No ALT_MFP1 setting for PC.7 */
1166:./bsp/inc/SYS.h **** #define SYS_ALT_MFP2_PC7_I2C0_SCL   NULL                /*!< No ALT_MFP2 setting for PC.7 */
1167:./bsp/inc/SYS.h **** #define SYS_ALT_MFP3_PC7_I2C0_SCL   0x00000000UL        /*!< ALT_MFP3 PC.7 setting for I2C0_SCL */
1168:./bsp/inc/SYS.h **** #define SYS_ALT_MFP4_PC7_I2C0_SCL   (1UL<<11)           /*!< ALT_MFP4 PC.7 setting for I2C0_SCL */
1169:./bsp/inc/SYS.h **** 
1170:./bsp/inc/SYS.h **** #define SYS_GPC_MFP_PC7_PWM0_BRAKE1     (1UL<<7)        /*!< GPC_MFP PC.7 setting for PWM0_BRAKE1 *
1171:./bsp/inc/SYS.h **** #define SYS_ALT_MFP_PC7_PWM0_BRAKE1     NULL            /*!< No ALT_MFP setting for PC.7 */
1172:./bsp/inc/SYS.h **** #define SYS_ALT_MFP1_PC7_PWM0_BRAKE1    NULL            /*!< No ALT_MFP1 setting for PC.7 */
1173:./bsp/inc/SYS.h **** #define SYS_ALT_MFP2_PC7_PWM0_BRAKE1    NULL            /*!< No ALT_MFP2 setting for PC.7 */
1174:./bsp/inc/SYS.h **** #define SYS_ALT_MFP3_PC7_PWM0_BRAKE1    (1UL<<29)       /*!< ALT_MFP3 PC.7 setting for PWM0_BRAKE1 
1175:./bsp/inc/SYS.h **** #define SYS_ALT_MFP4_PC7_PWM0_BRAKE1    0x00000000UL    /*!< ALT_MFP4 PC.7 setting for PWM0_BRAKE1 
1176:./bsp/inc/SYS.h **** 
1177:./bsp/inc/SYS.h **** #define SYS_GPC_MFP_PC7_Msk         (1UL<<7)            /*!< GPC_MFP PC.7 mask */
1178:./bsp/inc/SYS.h **** #define SYS_ALT_MFP_PC7_Msk         NULL                /*!< No ALT_MFP PC.7 mask */
1179:./bsp/inc/SYS.h **** #define SYS_ALT_MFP1_PC7_Msk        NULL                /*!< No ALT_MFP1 PC.7 mask */
1180:./bsp/inc/SYS.h **** #define SYS_ALT_MFP2_PC7_Msk        NULL                /*!< No ALT_MFP2 PC.7 mask */
1181:./bsp/inc/SYS.h **** #define SYS_ALT_MFP3_PC7_Msk        (1UL<<29)           /*!< ALT_MFP3 PC.7 mask */
1182:./bsp/inc/SYS.h **** #define SYS_ALT_MFP4_PC7_Msk        (1UL<<11)           /*!< ALT_MFP4 PC.7 mask */
1183:./bsp/inc/SYS.h **** 
1184:./bsp/inc/SYS.h **** //PC.8
1185:./bsp/inc/SYS.h **** #define SYS_GPC_MFP_PC8_GPIO        0x00000000UL        /*!< GPC_MFP PC.8 setting for GPIO */
1186:./bsp/inc/SYS.h **** #define SYS_ALT_MFP_PC8_GPIO        NULL                /*!< No ALT_MFP setting for PC.8 */
1187:./bsp/inc/SYS.h **** #define SYS_ALT_MFP1_PC8_GPIO       NULL                /*!< No ALT_MFP1 setting for PC.8 */
1188:./bsp/inc/SYS.h **** #define SYS_ALT_MFP2_PC8_GPIO       NULL                /*!< No ALT_MFP2 setting for PC.8 */
1189:./bsp/inc/SYS.h **** #define SYS_ALT_MFP3_PC8_GPIO       NULL                /*!< No ALT_MFP3 setting for PC.8 */
1190:./bsp/inc/SYS.h **** #define SYS_ALT_MFP4_PC8_GPIO       NULL                /*!< No ALT_MFP4 setting for PC.8 */
1191:./bsp/inc/SYS.h **** 
1192:./bsp/inc/SYS.h **** #define SYS_GPC_MFP_PC8_PWM0_BRAKE0     (1UL<<8)        /*!< GPC_MFP PC.8 setting for PWM0_BRAKE0 *
1193:./bsp/inc/SYS.h **** #define SYS_ALT_MFP_PC8_PWM0_BRAKE0     NULL            /*!< No ALT_MFP setting for PC.8 */
1194:./bsp/inc/SYS.h **** #define SYS_ALT_MFP1_PC8_PWM0_BRAKE0    NULL            /*!< No ALT_MFP1 setting for PC.8 */
1195:./bsp/inc/SYS.h **** #define SYS_ALT_MFP2_PC8_PWM0_BRAKE0    NULL            /*!< No ALT_MFP2 setting for PC.8 */
1196:./bsp/inc/SYS.h **** #define SYS_ALT_MFP3_PC8_PWM0_BRAKE0    NULL            /*!< No ALT_MFP3 setting for PC.8 */
1197:./bsp/inc/SYS.h **** #define SYS_ALT_MFP4_PC8_PWM0_BRAKE0    NULL            /*!< No ALT_MFP4 setting for PC.8 */
1198:./bsp/inc/SYS.h **** 
1199:./bsp/inc/SYS.h **** #define SYS_GPC_MFP_PC8_Msk         (1UL<<8)            /*!< GPC_MFP PC.8 mask */
1200:./bsp/inc/SYS.h **** #define SYS_ALT_MFP_PC8_Msk         NULL                /*!< No ALT_MFP PC.8 mask */
1201:./bsp/inc/SYS.h **** #define SYS_ALT_MFP1_PC8_Msk        NULL                /*!< No ALT_MFP1 PC.8 mask */
1202:./bsp/inc/SYS.h **** #define SYS_ALT_MFP2_PC8_Msk        NULL                /*!< No ALT_MFP2 PC.8 mask */
1203:./bsp/inc/SYS.h **** #define SYS_ALT_MFP3_PC8_Msk        NULL                /*!< No ALT_MFP3 PC.8 mask */
1204:./bsp/inc/SYS.h **** #define SYS_ALT_MFP4_PC8_Msk        NULL                /*!< No ALT_MFP4 PC.8 mask */
1205:./bsp/inc/SYS.h **** 
1206:./bsp/inc/SYS.h **** //PC.9
1207:./bsp/inc/SYS.h **** #define SYS_GPC_MFP_PC9_GPIO        0x00000000UL        /*!< GPC_MFP PC.9 setting for GPIO */
1208:./bsp/inc/SYS.h **** #define SYS_ALT_MFP_PC9_GPIO        NULL                /*!< No ALT_MFP setting for PC.9 */
1209:./bsp/inc/SYS.h **** #define SYS_ALT_MFP1_PC9_GPIO       NULL                /*!< No ALT_MFP1 setting for PC.9 */
1210:./bsp/inc/SYS.h **** #define SYS_ALT_MFP2_PC9_GPIO       NULL                /*!< No ALT_MFP2 setting for PC.9 */
1211:./bsp/inc/SYS.h **** #define SYS_ALT_MFP3_PC9_GPIO       NULL                /*!< No ALT_MFP3 setting for PC.9 */
1212:./bsp/inc/SYS.h **** #define SYS_ALT_MFP4_PC9_GPIO       NULL                /*!< No ALT_MFP4 setting for PC.9 */
1213:./bsp/inc/SYS.h **** 
1214:./bsp/inc/SYS.h **** #define SYS_GPC_MFP_PC9_PWM0_BRAKE1     (1UL<<9)        /*!< GPC_MFP PC.9 setting for PWM0_BRAKE1 *
1215:./bsp/inc/SYS.h **** #define SYS_ALT_MFP_PC9_PWM0_BRAKE1     NULL            /*!< No ALT_MFP setting for PC.9 */
1216:./bsp/inc/SYS.h **** #define SYS_ALT_MFP1_PC9_PWM0_BRAKE1    NULL            /*!< No ALT_MFP1 setting for PC.9 */
1217:./bsp/inc/SYS.h **** #define SYS_ALT_MFP2_PC9_PWM0_BRAKE1    NULL            /*!< No ALT_MFP2 setting for PC.9 */
1218:./bsp/inc/SYS.h **** #define SYS_ALT_MFP3_PC9_PWM0_BRAKE1    NULL            /*!< No ALT_MFP3 setting for PC.9 */
1219:./bsp/inc/SYS.h **** #define SYS_ALT_MFP4_PC9_PWM0_BRAKE1    NULL            /*!< No ALT_MFP4 setting for PC.9 */
1220:./bsp/inc/SYS.h **** 
1221:./bsp/inc/SYS.h **** #define SYS_GPC_MFP_PC9_Msk         (1UL<<9)            /*!< GPC_MFP PC.9 mask */
1222:./bsp/inc/SYS.h **** #define SYS_ALT_MFP_PC9_Msk         NULL                /*!< No ALT_MFP PC.9 mask */
1223:./bsp/inc/SYS.h **** #define SYS_ALT_MFP1_PC9_Msk        NULL                /*!< No ALT_MFP1 PC.9 mask */
1224:./bsp/inc/SYS.h **** #define SYS_ALT_MFP2_PC9_Msk        NULL                /*!< No ALT_MFP2 PC.9 mask */
1225:./bsp/inc/SYS.h **** #define SYS_ALT_MFP3_PC9_Msk        NULL                /*!< No ALT_MFP3 PC.9 mask */
1226:./bsp/inc/SYS.h **** #define SYS_ALT_MFP4_PC9_Msk        NULL                /*!< No ALT_MFP4 PC.9 mask */
1227:./bsp/inc/SYS.h **** 
1228:./bsp/inc/SYS.h **** //PC.10
1229:./bsp/inc/SYS.h **** #define SYS_GPC_MFP_PC10_GPIO       0x00000000UL        /*!< GPC_MFP PC.10 setting for GPIO */
1230:./bsp/inc/SYS.h **** #define SYS_ALT_MFP_PC10_GPIO       NULL                /*!< No ALT_MFP setting for PC.10 */
1231:./bsp/inc/SYS.h **** #define SYS_ALT_MFP1_PC10_GPIO      NULL                /*!< No ALT_MFP1 setting for PC.10 */
1232:./bsp/inc/SYS.h **** #define SYS_ALT_MFP2_PC10_GPIO      NULL                /*!< No ALT_MFP2 setting for PC.10 */
1233:./bsp/inc/SYS.h **** #define SYS_ALT_MFP3_PC10_GPIO      NULL                /*!< No ALT_MFP3 setting for PC.10 */
1234:./bsp/inc/SYS.h **** #define SYS_ALT_MFP4_PC10_GPIO      NULL                /*!< No ALT_MFP4 setting for PC.10 */
1235:./bsp/inc/SYS.h **** 
1236:./bsp/inc/SYS.h **** #define SYS_GPC_MFP_PC10_PWM1_BRAKE0    (1UL<<10)       /*!< GPC_MFP PC.10 setting for PWM1_BRAKE0 
1237:./bsp/inc/SYS.h **** #define SYS_ALT_MFP_PC10_PWM1_BRAKE0    NULL            /*!< No ALT_MFP setting for PC.10 */
1238:./bsp/inc/SYS.h **** #define SYS_ALT_MFP1_PC10_PWM1_BRAKE0   NULL            /*!< No ALT_MFP1 setting for PC.10 */
1239:./bsp/inc/SYS.h **** #define SYS_ALT_MFP2_PC10_PWM1_BRAKE0   NULL            /*!< No ALT_MFP2 setting for PC.10 */
1240:./bsp/inc/SYS.h **** #define SYS_ALT_MFP3_PC10_PWM1_BRAKE0   NULL            /*!< No ALT_MFP3 setting for PC.10 */
1241:./bsp/inc/SYS.h **** #define SYS_ALT_MFP4_PC10_PWM1_BRAKE0   NULL            /*!< No ALT_MFP4 setting for PC.10 */
1242:./bsp/inc/SYS.h **** 
1243:./bsp/inc/SYS.h **** #define SYS_GPC_MFP_PC10_Msk        (1UL<<10)           /*!< GPC_MFP PC.10 mask */
1244:./bsp/inc/SYS.h **** #define SYS_ALT_MFP_PC10_Msk        NULL                /*!< No ALT_MFP PC.10 mask */
1245:./bsp/inc/SYS.h **** #define SYS_ALT_MFP1_PC10_Msk       NULL                /*!< No ALT_MFP1 PC.10 mask */
1246:./bsp/inc/SYS.h **** #define SYS_ALT_MFP2_PC10_Msk       NULL                /*!< No ALT_MFP2 PC.10 mask */
1247:./bsp/inc/SYS.h **** #define SYS_ALT_MFP3_PC10_Msk       NULL                /*!< No ALT_MFP3 PC.10 mask */
1248:./bsp/inc/SYS.h **** #define SYS_ALT_MFP4_PC10_Msk       NULL                /*!< No ALT_MFP4 PC.10 mask */
1249:./bsp/inc/SYS.h **** 
1250:./bsp/inc/SYS.h **** //PC.11
1251:./bsp/inc/SYS.h **** #define SYS_GPC_MFP_PC11_GPIO       0x00000000UL        /*!< GPC_MFP PC.11 setting for GPIO */
1252:./bsp/inc/SYS.h **** #define SYS_ALT_MFP_PC11_GPIO       NULL                /*!< No ALT_MFP setting for PC.11 */
1253:./bsp/inc/SYS.h **** #define SYS_ALT_MFP1_PC11_GPIO      NULL                /*!< No ALT_MFP1 setting for PC.11 */
1254:./bsp/inc/SYS.h **** #define SYS_ALT_MFP2_PC11_GPIO      NULL                /*!< No ALT_MFP2 setting for PC.11 */
1255:./bsp/inc/SYS.h **** #define SYS_ALT_MFP3_PC11_GPIO      NULL                /*!< No ALT_MFP3 setting for PC.11 */
1256:./bsp/inc/SYS.h **** #define SYS_ALT_MFP4_PC11_GPIO      NULL                /*!< No ALT_MFP4 setting for PC.11 */
1257:./bsp/inc/SYS.h **** 
1258:./bsp/inc/SYS.h **** #define SYS_GPC_MFP_PC11_PWM1_BRAKE1    (1UL<<11)       /*!< GPC_MFP PC.11 setting for PWM1_BRAKE1 
1259:./bsp/inc/SYS.h **** #define SYS_ALT_MFP_PC11_PWM1_BRAKE1    NULL            /*!< No ALT_MFP setting for PC.11 */
1260:./bsp/inc/SYS.h **** #define SYS_ALT_MFP1_PC11_PWM1_BRAKE1   NULL            /*!< No ALT_MFP1 setting for PC.11 */
1261:./bsp/inc/SYS.h **** #define SYS_ALT_MFP2_PC11_PWM1_BRAKE1   NULL            /*!< No ALT_MFP2 setting for PC.11 */
1262:./bsp/inc/SYS.h **** #define SYS_ALT_MFP3_PC11_PWM1_BRAKE1   NULL            /*!< No ALT_MFP3 setting for PC.11 */
1263:./bsp/inc/SYS.h **** #define SYS_ALT_MFP4_PC11_PWM1_BRAKE1   NULL            /*!< No ALT_MFP4 setting for PC.11 */
1264:./bsp/inc/SYS.h **** 
1265:./bsp/inc/SYS.h **** #define SYS_GPC_MFP_PC11_Msk        (1UL<<11)           /*!< GPC_MFP PC.11 mask */
1266:./bsp/inc/SYS.h **** #define SYS_ALT_MFP_PC11_Msk        NULL                /*!< No ALT_MFP PC.11 mask */
1267:./bsp/inc/SYS.h **** #define SYS_ALT_MFP1_PC11_Msk       NULL                /*!< No ALT_MFP1 PC.11 mask */
1268:./bsp/inc/SYS.h **** #define SYS_ALT_MFP2_PC11_Msk       NULL                /*!< No ALT_MFP2 PC.11 mask */
1269:./bsp/inc/SYS.h **** #define SYS_ALT_MFP3_PC11_Msk       NULL                /*!< No ALT_MFP3 PC.11 mask */
1270:./bsp/inc/SYS.h **** #define SYS_ALT_MFP4_PC11_Msk       NULL                /*!< No ALT_MFP4 PC.11 mask */
1271:./bsp/inc/SYS.h **** 
1272:./bsp/inc/SYS.h **** //PD.6
1273:./bsp/inc/SYS.h **** #define SYS_GPD_MFP_PD6_GPIO        0x00000000UL        /*!< GPD_MFP PD.6 setting for GPIO */
1274:./bsp/inc/SYS.h **** #define SYS_ALT_MFP_PD6_GPIO        NULL                /*!< No ALT_MFP setting for PD.6 */
1275:./bsp/inc/SYS.h **** #define SYS_ALT_MFP1_PD6_GPIO       NULL                /*!< No ALT_MFP1 setting for PD.6 */
1276:./bsp/inc/SYS.h **** #define SYS_ALT_MFP2_PD6_GPIO       NULL                /*!< No ALT_MFP2 setting for PD.6 */
1277:./bsp/inc/SYS.h **** #define SYS_ALT_MFP3_PD6_GPIO       0x00000000UL        /*!< ALT_MFP3 PD.6 setting for GPIO */
1278:./bsp/inc/SYS.h **** #define SYS_ALT_MFP4_PD6_GPIO       NULL                /*!< No ALT_MFP4 setting for PD.6 */
1279:./bsp/inc/SYS.h **** 
1280:./bsp/inc/SYS.h **** #define SYS_GPD_MFP_PD6_CAN0_RXD    (1UL<<6)            /*!< GPD_MFP PD.6 setting for CAN0_RXD */
1281:./bsp/inc/SYS.h **** #define SYS_ALT_MFP_PD6_CAN0_RXD    NULL                /*!< No ALT_MFP setting for PD.6 */
1282:./bsp/inc/SYS.h **** #define SYS_ALT_MFP1_PD6_CAN0_RXD   NULL                /*!< No ALT_MFP1 setting for PD.6 */
1283:./bsp/inc/SYS.h **** #define SYS_ALT_MFP2_PD6_CAN0_RXD   NULL                /*!< No ALT_MFP2 setting for PD.6 */
1284:./bsp/inc/SYS.h **** #define SYS_ALT_MFP3_PD6_CAN0_RXD   0x00000000UL        /*!< ALT_MFP3 PD.6 setting for CAN0_RXD */
1285:./bsp/inc/SYS.h **** #define SYS_ALT_MFP4_PD6_CAN0_RXD   NULL                /*!< No ALT_MFP4 setting for PD.6 */
1286:./bsp/inc/SYS.h **** 
1287:./bsp/inc/SYS.h **** #define SYS_GPD_MFP_PD6_BPWM1_CH1   (1UL<<6)            /*!< GPD_MFP PD.6 setting for BPWM1_CH1 */
1288:./bsp/inc/SYS.h **** #define SYS_ALT_MFP_PD6_BPWM1_CH1   NULL                /*!< No ALT_MFP setting for PD.6 */
1289:./bsp/inc/SYS.h **** #define SYS_ALT_MFP1_PD6_BPWM1_CH1  NULL                /*!< No ALT_MFP1 setting for PD.6 */
1290:./bsp/inc/SYS.h **** #define SYS_ALT_MFP2_PD6_BPWM1_CH1  NULL                /*!< No ALT_MFP2 setting for PD.6 */
1291:./bsp/inc/SYS.h **** #define SYS_ALT_MFP3_PD6_BPWM1_CH1  (1UL<<19)           /*!< ALT_MFP3 PD.6 setting for BPWM1_CH1 */
1292:./bsp/inc/SYS.h **** #define SYS_ALT_MFP4_PD6_BPWM1_CH1  NULL                /*!< No ALT_MFP4 setting for PD.6 */
1293:./bsp/inc/SYS.h **** 
1294:./bsp/inc/SYS.h **** #define SYS_GPD_MFP_PD6_Msk         (1UL<<6)            /*!< GPD_MFP PD.6 mask */
1295:./bsp/inc/SYS.h **** #define SYS_ALT_MFP_PD6_Msk         NULL                /*!< No ALT_MFP PD.6 mask */
1296:./bsp/inc/SYS.h **** #define SYS_ALT_MFP1_PD6_Msk        NULL                /*!< No ALT_MFP1 PD.6 mask */
1297:./bsp/inc/SYS.h **** #define SYS_ALT_MFP2_PD6_Msk        NULL                /*!< No ALT_MFP2 PD.6 mask */
1298:./bsp/inc/SYS.h **** #define SYS_ALT_MFP3_PD6_Msk        (1UL<<19)           /*!< ALT_MFP3 PD.6 mask */
1299:./bsp/inc/SYS.h **** #define SYS_ALT_MFP4_PD6_Msk        NULL                /*!< No ALT_MFP4 PD.6 mask */
1300:./bsp/inc/SYS.h **** 
1301:./bsp/inc/SYS.h **** //PD.7
1302:./bsp/inc/SYS.h **** #define SYS_GPD_MFP_PD7_GPIO        0x00000000UL        /*!< GPD_MFP PD.7 setting for GPIO */
1303:./bsp/inc/SYS.h **** #define SYS_ALT_MFP_PD7_GPIO        NULL                /*!< No ALT_MFP setting for PD.7 */
1304:./bsp/inc/SYS.h **** #define SYS_ALT_MFP1_PD7_GPIO       NULL                /*!< No ALT_MFP1 setting for PD.7 */
1305:./bsp/inc/SYS.h **** #define SYS_ALT_MFP2_PD7_GPIO       NULL                /*!< No ALT_MFP2 setting for PD.7 */
1306:./bsp/inc/SYS.h **** #define SYS_ALT_MFP3_PD7_GPIO       0x00000000UL        /*!< ALT_MFP3 PD.7 setting for GPIO */
1307:./bsp/inc/SYS.h **** #define SYS_ALT_MFP4_PD7_GPIO       NULL                /*!< No ALT_MFP4 setting for PD.7 */
1308:./bsp/inc/SYS.h **** 
1309:./bsp/inc/SYS.h **** #define SYS_GPD_MFP_PD7_CAN0_TXD    (1UL<<7)            /*!< GPD_MFP PD.7 setting for CAN0_TXD */
1310:./bsp/inc/SYS.h **** #define SYS_ALT_MFP_PD7_CAN0_TXD    NULL                /*!< No ALT_MFP setting for PD.7 */
1311:./bsp/inc/SYS.h **** #define SYS_ALT_MFP1_PD7_CAN0_TXD   NULL                /*!< No ALT_MFP1 setting for PD.7 */
1312:./bsp/inc/SYS.h **** #define SYS_ALT_MFP2_PD7_CAN0_TXD   NULL                /*!< No ALT_MFP2 setting for PD.7 */
1313:./bsp/inc/SYS.h **** #define SYS_ALT_MFP3_PD7_CAN0_TXD   0x00000000UL        /*!< ALT_MFP3 PD.7 setting for CAN0_TXD */
1314:./bsp/inc/SYS.h **** #define SYS_ALT_MFP4_PD7_CAN0_TXD   NULL                /*!< No ALT_MFP4 setting for PD.7 */
1315:./bsp/inc/SYS.h **** 
1316:./bsp/inc/SYS.h **** #define SYS_GPD_MFP_PD7_BPWM1_CH0   (1UL<<7)            /*!< GPD_MFP PD.7 setting for BPWM1_CH0 */
1317:./bsp/inc/SYS.h **** #define SYS_ALT_MFP_PD7_BPWM1_CH0   NULL                /*!< No ALT_MFP setting for PD.7 */
1318:./bsp/inc/SYS.h **** #define SYS_ALT_MFP1_PD7_BPWM1_CH0  NULL                /*!< No ALT_MFP1 setting for PD.7 */
1319:./bsp/inc/SYS.h **** #define SYS_ALT_MFP2_PD7_BPWM1_CH0  NULL                /*!< No ALT_MFP2 setting for PD.7 */
1320:./bsp/inc/SYS.h **** #define SYS_ALT_MFP3_PD7_BPWM1_CH0  (1UL<<18)           /*!< ALT_MFP3 PD.7 setting for BPWM1_CH0 */
1321:./bsp/inc/SYS.h **** #define SYS_ALT_MFP4_PD7_BPWM1_CH0  NULL                /*!< No ALT_MFP4 setting for PD.7 */
1322:./bsp/inc/SYS.h **** 
1323:./bsp/inc/SYS.h **** #define SYS_GPD_MFP_PD7_Msk         (1UL<<7)            /*!< GPD_MFP PD.7 mask */
1324:./bsp/inc/SYS.h **** #define SYS_ALT_MFP_PD7_Msk         NULL                /*!< No ALT_MFP PD.7 mask */
1325:./bsp/inc/SYS.h **** #define SYS_ALT_MFP1_PD7_Msk        NULL                /*!< No ALT_MFP1 PD.7 mask */
1326:./bsp/inc/SYS.h **** #define SYS_ALT_MFP2_PD7_Msk        NULL                /*!< No ALT_MFP2 PD.7 mask */
1327:./bsp/inc/SYS.h **** #define SYS_ALT_MFP3_PD7_Msk        (1UL<<18)           /*!< ALT_MFP3 PD.7 mask */
1328:./bsp/inc/SYS.h **** #define SYS_ALT_MFP4_PD7_Msk        NULL                /*!< No ALT_MFP4 PD.7 mask */
1329:./bsp/inc/SYS.h **** 
1330:./bsp/inc/SYS.h **** //PD.14
1331:./bsp/inc/SYS.h **** #define SYS_GPD_MFP_PD14_GPIO       0x00000000UL        /*!< GPD_MFP PD.14 setting for GPIO */
1332:./bsp/inc/SYS.h **** #define SYS_ALT_MFP_PD14_GPIO       NULL                /*!< No ALT_MFP setting for PD.14 */
1333:./bsp/inc/SYS.h **** #define SYS_ALT_MFP1_PD14_GPIO      NULL                /*!< No ALT_MFP1 setting for PD.14 */
1334:./bsp/inc/SYS.h **** #define SYS_ALT_MFP2_PD14_GPIO      NULL                /*!< No ALT_MFP2 setting for PD.14 */
1335:./bsp/inc/SYS.h **** #define SYS_ALT_MFP3_PD14_GPIO      0x00000000UL        /*!< ALT_MFP3 PD.14 setting for GPIO */
1336:./bsp/inc/SYS.h **** #define SYS_ALT_MFP4_PD14_GPIO      NULL                /*!< No ALT_MFP4 setting for PD.14 */
1337:./bsp/inc/SYS.h **** 
1338:./bsp/inc/SYS.h **** #define SYS_GPD_MFP_PD14_UART2_RXD      (1UL<<14)       /*!< GPD_MFP PD.14 setting for UART2_RXD */
1339:./bsp/inc/SYS.h **** #define SYS_ALT_MFP_PD14_UART2_RXD      NULL            /*!< No ALT_MFP setting for PD.14 */
1340:./bsp/inc/SYS.h **** #define SYS_ALT_MFP1_PD14_UART2_RXD     NULL            /*!< No ALT_MFP1 setting for PD.14 */
1341:./bsp/inc/SYS.h **** #define SYS_ALT_MFP2_PD14_UART2_RXD     NULL            /*!< No ALT_MFP2 setting for PD.14 */
1342:./bsp/inc/SYS.h **** #define SYS_ALT_MFP3_PD14_UART2_RXD     0x00000000UL    /*!< ALT_MFP3 PD.14 setting for UART2_RXD *
1343:./bsp/inc/SYS.h **** #define SYS_ALT_MFP4_PD14_UART2_RXD     NULL            /*!< No ALT_MFP4 setting for PD.14 */
1344:./bsp/inc/SYS.h **** 
1345:./bsp/inc/SYS.h **** #define SYS_GPD_MFP_PD14_BPWM0_CH5      (1UL<<14)       /*!< GPD_MFP PD.14 setting for BPWM0_CH5 */
1346:./bsp/inc/SYS.h **** #define SYS_ALT_MFP_PD14_BPWM0_CH5      NULL            /*!< No ALT_MFP setting for PD.14 */
1347:./bsp/inc/SYS.h **** #define SYS_ALT_MFP1_PD14_BPWM0_CH5     NULL            /*!< No ALT_MFP1 setting for PD.14 */
1348:./bsp/inc/SYS.h **** #define SYS_ALT_MFP2_PD14_BPWM0_CH5     NULL            /*!< No ALT_MFP2 setting for PD.14 */
1349:./bsp/inc/SYS.h **** #define SYS_ALT_MFP3_PD14_BPWM0_CH5     (1UL<<17)       /*!< ALT_MFP3 PD.14 setting for BPWM0_CH5 *
1350:./bsp/inc/SYS.h **** #define SYS_ALT_MFP4_PD14_BPWM0_CH5     NULL            /*!< No ALT_MFP4 setting for PD.14 */
1351:./bsp/inc/SYS.h **** 
1352:./bsp/inc/SYS.h **** #define SYS_GPD_MFP_PD14_Msk        (1UL<<14)           /*!< GPD_MFP PD.14 mask */
1353:./bsp/inc/SYS.h **** #define SYS_ALT_MFP_PD14_Msk        NULL                /*!< No ALT_MFP PD.14 mask */
1354:./bsp/inc/SYS.h **** #define SYS_ALT_MFP1_PD14_Msk       NULL                /*!< No ALT_MFP1 PD.14 mask */
1355:./bsp/inc/SYS.h **** #define SYS_ALT_MFP2_PD14_Msk       NULL                /*!< No ALT_MFP2 PD.14 mask */
1356:./bsp/inc/SYS.h **** #define SYS_ALT_MFP3_PD14_Msk       (1UL<<17)           /*!< ALT_MFP3 PD.14 mask */
1357:./bsp/inc/SYS.h **** #define SYS_ALT_MFP4_PD14_Msk       NULL                /*!< No ALT_MFP4 PD.14 mask */
1358:./bsp/inc/SYS.h **** 
1359:./bsp/inc/SYS.h **** //PD.15
1360:./bsp/inc/SYS.h **** #define SYS_GPD_MFP_PD15_GPIO       0x00000000UL        /*!< GPD_MFP PD.15 setting for GPIO */
1361:./bsp/inc/SYS.h **** #define SYS_ALT_MFP_PD15_GPIO       NULL                /*!< No ALT_MFP setting for PD.15 */
1362:./bsp/inc/SYS.h **** #define SYS_ALT_MFP1_PD15_GPIO      NULL                /*!< No ALT_MFP1 setting for PD.15 */
1363:./bsp/inc/SYS.h **** #define SYS_ALT_MFP2_PD15_GPIO      NULL                /*!< No ALT_MFP2 setting for PD.15 */
1364:./bsp/inc/SYS.h **** #define SYS_ALT_MFP3_PD15_GPIO      0x00000000UL        /*!< ALT_MFP3 PD.15 setting for GPIO */
1365:./bsp/inc/SYS.h **** #define SYS_ALT_MFP4_PD15_GPIO      NULL                /*!< No ALT_MFP4 setting for PD.15 */
1366:./bsp/inc/SYS.h **** 
1367:./bsp/inc/SYS.h **** #define SYS_GPD_MFP_PD15_UART2_TXD      (1UL<<15)       /*!< GPD_MFP PD.15 setting for UART2_TXD */
1368:./bsp/inc/SYS.h **** #define SYS_ALT_MFP_PD15_UART2_TXD      NULL            /*!< No ALT_MFP setting for PD.15 */
1369:./bsp/inc/SYS.h **** #define SYS_ALT_MFP1_PD15_UART2_TXD     NULL            /*!< No ALT_MFP1 setting for PD.15 */
1370:./bsp/inc/SYS.h **** #define SYS_ALT_MFP2_PD15_UART2_TXD     NULL            /*!< No ALT_MFP2 setting for PD.15 */
1371:./bsp/inc/SYS.h **** #define SYS_ALT_MFP3_PD15_UART2_TXD     0x00000000UL    /*!< ALT_MFP3 PD.15 setting for UART2_TXD *
1372:./bsp/inc/SYS.h **** #define SYS_ALT_MFP4_PD15_UART2_TXD     NULL            /*!< No ALT_MFP4 setting for PD.15 */
1373:./bsp/inc/SYS.h **** 
1374:./bsp/inc/SYS.h **** #define SYS_GPD_MFP_PD15_BPWM0_CH4      (1UL<<15)       /*!< GPD_MFP PD.15 setting for BPWM0_CH4 */
1375:./bsp/inc/SYS.h **** #define SYS_ALT_MFP_PD15_BPWM0_CH4      NULL            /*!< No ALT_MFP setting for PD.15 */
1376:./bsp/inc/SYS.h **** #define SYS_ALT_MFP1_PD15_BPWM0_CH4     NULL            /*!< No ALT_MFP1 setting for PD.15 */
1377:./bsp/inc/SYS.h **** #define SYS_ALT_MFP2_PD15_BPWM0_CH4     NULL            /*!< No ALT_MFP2 setting for PD.15 */
1378:./bsp/inc/SYS.h **** #define SYS_ALT_MFP3_PD15_BPWM0_CH4     (1UL<<16)       /*!< ALT_MFP3 PD.15 setting for BPWM0_CH4 *
1379:./bsp/inc/SYS.h **** #define SYS_ALT_MFP4_PD15_BPWM0_CH4     NULL            /*!< No ALT_MFP4 setting for PD.15 */
1380:./bsp/inc/SYS.h **** 
1381:./bsp/inc/SYS.h **** #define SYS_GPD_MFP_PD15_Msk        (1UL<<15)           /*!< GPD_MFP PD.15 mask */
1382:./bsp/inc/SYS.h **** #define SYS_ALT_MFP_PD15_Msk        NULL                /*!< No ALT_MFP PD.15 mask */
1383:./bsp/inc/SYS.h **** #define SYS_ALT_MFP1_PD5_Msk        NULL                /*!< No ALT_MFP1 PD.15 mask */
1384:./bsp/inc/SYS.h **** #define SYS_ALT_MFP2_PD15_Msk       NULL                /*!< No ALT_MFP2 PD.15 mask */
1385:./bsp/inc/SYS.h **** #define SYS_ALT_MFP3_PD15_Msk       (1UL<<16)           /*!< ALT_MFP3 PD.15 mask */
1386:./bsp/inc/SYS.h **** #define SYS_ALT_MFP4_PD15_Msk       NULL                /*!< No ALT_MFP4 PD.15 mask */
1387:./bsp/inc/SYS.h **** 
1388:./bsp/inc/SYS.h **** //PE.5
1389:./bsp/inc/SYS.h **** #define SYS_GPE_MFP_PE5_GPIO        0x00000000UL        /*!< GPE_MFP PE.5 setting for GPIO */
1390:./bsp/inc/SYS.h **** #define SYS_ALT_MFP_PE5_GPIO        0x00000000UL        /*!< ALT_MFP PE.5 setting for GPIO */
1391:./bsp/inc/SYS.h **** #define SYS_ALT_MFP1_PE5_GPIO       NULL                /*!< No ALT_MFP1 setting for PE.5 */
1392:./bsp/inc/SYS.h **** #define SYS_ALT_MFP2_PE5_GPIO       0x00000000UL        /*!< ALT_MFP2 PE.5 setting for GPIO */
1393:./bsp/inc/SYS.h **** #define SYS_ALT_MFP3_PE5_GPIO       NULL                /*!< No ALT_MFP3 setting for PE.5 */
1394:./bsp/inc/SYS.h **** #define SYS_ALT_MFP4_PE5_GPIO       NULL                /*!< No ALT_MFP4 setting for PE.5 */
1395:./bsp/inc/SYS.h **** 
1396:./bsp/inc/SYS.h **** #define SYS_GPE_MFP_PE5_PWM0_CH5    (1UL<<5)            /*!< GPE_MFP PE.5 setting for PWM0_CH5 */
1397:./bsp/inc/SYS.h **** #define SYS_ALT_MFP_PE5_PWM0_CH5    0x00000000UL        /*!< ALT_MFP PE.5 setting for PWM0_CH5 */
1398:./bsp/inc/SYS.h **** #define SYS_ALT_MFP1_PE5_PWM0_CH5   NULL                /*!< No ALT_MFP1 setting for PE.5 */
1399:./bsp/inc/SYS.h **** #define SYS_ALT_MFP2_PE5_PWM0_CH5   0x00000000UL        /*!< ALT_MFP2 PE.5 setting for PWM0_CH5 */
1400:./bsp/inc/SYS.h **** #define SYS_ALT_MFP3_PE5_PWM0_CH5   NULL                /*!< No ALT_MFP3 setting for PE.5 */
1401:./bsp/inc/SYS.h **** #define SYS_ALT_MFP4_PE5_PWM0_CH5   NULL                /*!< No ALT_MFP4 setting for PE.5 */
1402:./bsp/inc/SYS.h **** 
1403:./bsp/inc/SYS.h **** #define SYS_GPE_MFP_PE5_TM1         (1UL<<5)            /*!< GPE_MFP PE.5 setting for TM1 */
1404:./bsp/inc/SYS.h **** #define SYS_ALT_MFP_PE5_TM1         0x00000000UL        /*!< ALT_MFP PE.5 setting for TM1 */
1405:./bsp/inc/SYS.h **** #define SYS_ALT_MFP1_PE5_TM1        NULL                /*!< No ALT_MFP1 setting for PE.5 */
1406:./bsp/inc/SYS.h **** #define SYS_ALT_MFP2_PE5_TM1        (1UL<<3)            /*!< ALT_MFP2 PE.5 setting for TM1 */
1407:./bsp/inc/SYS.h **** #define SYS_ALT_MFP3_PE5_TM1        NULL                /*!< No ALT_MFP3 setting for PE.5 */
1408:./bsp/inc/SYS.h **** #define SYS_ALT_MFP4_PE5_TM1        NULL                /*!< No ALT_MFP4 setting for PE.5 */
1409:./bsp/inc/SYS.h **** 
1410:./bsp/inc/SYS.h **** #define SYS_GPE_MFP_PE5_TM1_EXT     (1UL<<5)            /*!< GPE_MFP PE.5 setting for TM1_EXT */
1411:./bsp/inc/SYS.h **** #define SYS_ALT_MFP_PE5_TM1_EXT     (1UL<<25)           /*!< ALT_MFP PE.5 setting for TM1_EXT */
1412:./bsp/inc/SYS.h **** #define SYS_ALT_MFP1_PE5_TM1_EXT    NULL                /*!< No ALT_MFP1 setting for PE.5_EXT */
1413:./bsp/inc/SYS.h **** #define SYS_ALT_MFP2_PE5_TM1_EXT    0x00000000UL        /*!< ALT_MFP2 PE.5 setting for TM1_EXT */
1414:./bsp/inc/SYS.h **** #define SYS_ALT_MFP3_PE5_TM1_EXT    NULL                /*!< No ALT_MFP3 setting for PE.5 */
1415:./bsp/inc/SYS.h **** #define SYS_ALT_MFP4_PE5_TM1_EXT    NULL                /*!< No ALT_MFP4 setting for PE.5 */
1416:./bsp/inc/SYS.h **** 
1417:./bsp/inc/SYS.h **** #define SYS_GPE_MFP_PE5_Msk         (1UL<<5)            /*!< GPE_MFP PE.5 mask */
1418:./bsp/inc/SYS.h **** #define SYS_ALT_MFP_PE5_Msk         (1UL<<25)           /*!< ALT_MFP PE.5 mask */
1419:./bsp/inc/SYS.h **** #define SYS_ALT_MFP1_PE5_Msk        NULL                /*!< No ALT_MFP1 PE.5 mask */
1420:./bsp/inc/SYS.h **** #define SYS_ALT_MFP2_PE5_Msk        (1UL<<3)            /*!< ALT_MFP2 PE.5 mask */
1421:./bsp/inc/SYS.h **** #define SYS_ALT_MFP3_PE5_Msk        NULL                /*!< No ALT_MFP3 PE.5 mask */
1422:./bsp/inc/SYS.h **** #define SYS_ALT_MFP4_PE5_Msk        NULL                /*!< No ALT_MFP4 PE.5 mask */
1423:./bsp/inc/SYS.h **** 
1424:./bsp/inc/SYS.h **** //PF.0
1425:./bsp/inc/SYS.h **** #define SYS_GPF_MFP_PF0_GPIO        0x00000000UL        /*!< GPF_MFP PF.0 setting for GPIO */
1426:./bsp/inc/SYS.h **** #define SYS_ALT_MFP_PF0_GPIO        NULL                /*!< No ALT_MFP setting for PF.0 */
1427:./bsp/inc/SYS.h **** #define SYS_ALT_MFP1_PF0_GPIO       NULL                /*!< No ALT_MFP1 setting for PF.0 */
1428:./bsp/inc/SYS.h **** #define SYS_ALT_MFP2_PF0_GPIO       NULL                /*!< No ALT_MFP2 setting for PF.0 */
1429:./bsp/inc/SYS.h **** #define SYS_ALT_MFP3_PF0_GPIO       0x00000000UL        /*!< ALT_MFP3 PF.0 setting for GPIO */
1430:./bsp/inc/SYS.h **** #define SYS_ALT_MFP4_PF0_GPIO       NULL                /*!< No ALT_MFP4 setting for PF.0 */
1431:./bsp/inc/SYS.h **** 
1432:./bsp/inc/SYS.h **** #define SYS_GPF_MFP_PF0_XT1_OUT     (1UL<<0)            /*!< GPF_MFP PF.0 setting for XT1_OUT */
1433:./bsp/inc/SYS.h **** #define SYS_ALT_MFP_PF0_XT1_OUT     NULL                /*!< No ALT_MFP setting for PF.0 */
1434:./bsp/inc/SYS.h **** #define SYS_ALT_MFP1_PF0_XT1_OUT    NULL                /*!< No ALT_MFP1 setting for PF.0 */
1435:./bsp/inc/SYS.h **** #define SYS_ALT_MFP2_PF0_XT1_OUT    NULL                /*!< No ALT_MFP2 setting for PF.0 */
1436:./bsp/inc/SYS.h **** #define SYS_ALT_MFP3_PF0_XT1_OUT    0x00000000UL        /*!< ALT_MFP3 PF.0 setting for XT1_OUT */
1437:./bsp/inc/SYS.h **** #define SYS_ALT_MFP4_PF0_XT1_OUT    NULL                /*!< No ALT_MFP4 setting for PF.0 */
1438:./bsp/inc/SYS.h **** 
1439:./bsp/inc/SYS.h **** #define SYS_GPF_MFP_PF0_BPWM1_CH4   0x00000000UL        /*!< GPF_MFP PF.0 setting for BPWM1_CH4 */
1440:./bsp/inc/SYS.h **** #define SYS_ALT_MFP_PF0_BPWM1_CH4   NULL                /*!< No ALT_MFP setting for PF.0 */
1441:./bsp/inc/SYS.h **** #define SYS_ALT_MFP1_PF0_BPWM1_CH4  NULL                /*!< No ALT_MFP1 setting for PF.0 */
1442:./bsp/inc/SYS.h **** #define SYS_ALT_MFP2_PF0_BPWM1_CH4  NULL                /*!< No ALT_MFP2 setting for PF.0 */
1443:./bsp/inc/SYS.h **** #define SYS_ALT_MFP3_PF0_BPWM1_CH4  (1UL<<22)           /*!< ALT_MFP3 PF.0 setting for BPWM1_CH4 */
1444:./bsp/inc/SYS.h **** #define SYS_ALT_MFP4_PF0_BPWM1_CH4  NULL                /*!< No ALT_MFP4 setting for PF.0 */
1445:./bsp/inc/SYS.h **** 
1446:./bsp/inc/SYS.h **** #define SYS_GPF_MFP_PF0_Msk         (1UL<<0)            /*!< GPE_MFP PF.0 mask */
1447:./bsp/inc/SYS.h **** #define SYS_ALT_MFP_PF0_Msk         NULL                /*!< No ALT_MFP PF.0 mask */
1448:./bsp/inc/SYS.h **** #define SYS_ALT_MFP1_PF0_Msk        NULL                /*!< No ALT_MFP1 PF.0 mask */
1449:./bsp/inc/SYS.h **** #define SYS_ALT_MFP2_PF0_Msk        NULL                /*!< No ALT_MFP2 PF.0 mask */
1450:./bsp/inc/SYS.h **** #define SYS_ALT_MFP3_PF0_Msk        (1UL<<22)           /*!< ALT_MFP3 PF.0 mask */
1451:./bsp/inc/SYS.h **** #define SYS_ALT_MFP4_PF0_Msk        NULL                /*!< No ALT_MFP4 PF.0 mask */
1452:./bsp/inc/SYS.h **** 
1453:./bsp/inc/SYS.h **** //PF.1
1454:./bsp/inc/SYS.h **** #define SYS_GPF_MFP_PF1_GPIO        0x00000000UL        /*!< GPF_MFP PF.1 setting for GPIO */
1455:./bsp/inc/SYS.h **** #define SYS_ALT_MFP_PF1_GPIO        NULL                /*!< No ALT_MFP setting for PF.1 */
1456:./bsp/inc/SYS.h **** #define SYS_ALT_MFP1_PF1_GPIO       NULL                /*!< No ALT_MFP1 setting for PF.1 */
1457:./bsp/inc/SYS.h **** #define SYS_ALT_MFP2_PF1_GPIO       NULL                /*!< No ALT_MFP2 setting for PF.1 */
1458:./bsp/inc/SYS.h **** #define SYS_ALT_MFP3_PF1_GPIO       0x00000000UL        /*!< ALT_MFP3 PF.1 setting for GPIO */
1459:./bsp/inc/SYS.h **** #define SYS_ALT_MFP4_PF1_GPIO       NULL                /*!< No ALT_MFP4 setting for PF.1 */
1460:./bsp/inc/SYS.h **** 
1461:./bsp/inc/SYS.h **** #define SYS_GPF_MFP_PF1_XT1_IN      (1UL<<1)            /*!< GPF_MFP PF.1 setting for XT1_IN */
1462:./bsp/inc/SYS.h **** #define SYS_ALT_MFP_PF1_XT1_IN      NULL                /*!< No ALT_MFP setting for PF.1 */
1463:./bsp/inc/SYS.h **** #define SYS_ALT_MFP1_PF1_XT1_IN     NULL                /*!< No ALT_MFP1 setting for PF.1 */
1464:./bsp/inc/SYS.h **** #define SYS_ALT_MFP2_PF1_XT1_IN     NULL                /*!< No ALT_MFP2 setting for PF.1 */
1465:./bsp/inc/SYS.h **** #define SYS_ALT_MFP3_PF1_XT1_IN     0x00000000UL        /*!< ALT_MFP3 PF.1 setting for XT1_IN */
1466:./bsp/inc/SYS.h **** #define SYS_ALT_MFP4_PF1_XT1_IN     NULL                /*!< No ALT_MFP4 setting for PF.1 */
1467:./bsp/inc/SYS.h **** 
1468:./bsp/inc/SYS.h **** #define SYS_GPF_MFP_PF1_BPWM1_CH5   0x00000000UL        /*!< GPF_MFP PF.1 setting for BPWM1_CH5 */
1469:./bsp/inc/SYS.h **** #define SYS_ALT_MFP_PF1_BPWM1_CH5   NULL                /*!< No ALT_MFP setting for PF.1 */
1470:./bsp/inc/SYS.h **** #define SYS_ALT_MFP1_PF1_BPWM1_CH5  NULL                /*!< No ALT_MFP1 setting for PF.1 */
1471:./bsp/inc/SYS.h **** #define SYS_ALT_MFP2_PF1_BPWM1_CH5  NULL                /*!< No ALT_MFP2 setting for PF.1 */
1472:./bsp/inc/SYS.h **** #define SYS_ALT_MFP3_PF1_BPWM1_CH5  (1UL<<23)           /*!< ALT_MFP3 PF.1 setting for BPWM1_CH5 */
1473:./bsp/inc/SYS.h **** #define SYS_ALT_MFP4_PF1_BPWM1_CH5  NULL                /*!< No ALT_MFP4 setting for PF.1 */
1474:./bsp/inc/SYS.h **** 
1475:./bsp/inc/SYS.h **** #define SYS_GPF_MFP_PF1_Msk         (1UL<<1)            /*!< GPE_MFP PF.1 mask */
1476:./bsp/inc/SYS.h **** #define SYS_ALT_MFP_PF1_Msk         NULL                /*!< No ALT_MFP PF.1 mask */
1477:./bsp/inc/SYS.h **** #define SYS_ALT_MFP1_PF1_Msk        NULL                /*!< No ALT_MFP1 PF.1 mask */
1478:./bsp/inc/SYS.h **** #define SYS_ALT_MFP2_PF1_Msk        NULL                /*!< No ALT_MFP2 PF.1 mask */
1479:./bsp/inc/SYS.h **** #define SYS_ALT_MFP3_PF1_Msk        (1UL<<23)           /*!< ALT_MFP3 PF.1 mask */
1480:./bsp/inc/SYS.h **** #define SYS_ALT_MFP4_PF1_Msk        NULL                /*!< No ALT_MFP4 PF.1 mask */
1481:./bsp/inc/SYS.h **** 
1482:./bsp/inc/SYS.h **** //PF.4
1483:./bsp/inc/SYS.h **** #define SYS_GPF_MFP_PF4_GPIO        0x00000000UL        /*!< GPF_MFP PF.4 setting for GPIO */
1484:./bsp/inc/SYS.h **** #define SYS_ALT_MFP_PF4_GPIO        NULL                /*!< No ALT_MFP setting for PF.4 */
1485:./bsp/inc/SYS.h **** #define SYS_ALT_MFP1_PF4_GPIO       NULL                /*!< No ALT_MFP1 setting for PF.4 */
1486:./bsp/inc/SYS.h **** #define SYS_ALT_MFP2_PF4_GPIO       NULL                /*!< No ALT_MFP2 setting for PF.4 */
1487:./bsp/inc/SYS.h **** #define SYS_ALT_MFP3_PF4_GPIO       0x00000000UL        /*!< ALT_MFP3 PF.4 setting for GPIO */
1488:./bsp/inc/SYS.h **** #define SYS_ALT_MFP4_PF4_GPIO       NULL                /*!< No ALT_MFP4 setting for PF.4 */
1489:./bsp/inc/SYS.h **** 
1490:./bsp/inc/SYS.h **** #define SYS_GPF_MFP_PF4_I2C0_SDA    (1UL<<4)            /*!< GPF_MFP PF.4 setting for I2C0_SDA */
1491:./bsp/inc/SYS.h **** #define SYS_ALT_MFP_PF4_I2C0_SDA    NULL                /*!< No ALT_MFP setting for PF.4 */
1492:./bsp/inc/SYS.h **** #define SYS_ALT_MFP1_PF4_I2C0_SDA   NULL                /*!< No ALT_MFP1 setting for PF.4 */
1493:./bsp/inc/SYS.h **** #define SYS_ALT_MFP2_PF4_I2C0_SDA   NULL                /*!< No ALT_MFP2 setting for PF.4 */
1494:./bsp/inc/SYS.h **** #define SYS_ALT_MFP3_PF4_I2C0_SDA   0x00000000UL        /*!< ALT_MFP3 PF.4 setting for I2C0_SDA */
1495:./bsp/inc/SYS.h **** #define SYS_ALT_MFP4_PF4_I2C0_SDA   NULL                /*!< No ALT_MFP4 setting for PF.4 */
1496:./bsp/inc/SYS.h **** 
1497:./bsp/inc/SYS.h **** #define SYS_GPF_MFP_PF4_PWM1_CH4    (1UL<<4)            /*!< GPF_MFP PF.4 setting for PWM1_CH4 */
1498:./bsp/inc/SYS.h **** #define SYS_ALT_MFP_PF4_PWM1_CH4    NULL                /*!< No ALT_MFP setting for PF.4 */
1499:./bsp/inc/SYS.h **** #define SYS_ALT_MFP1_PF4_PWM1_CH4   NULL                /*!< No ALT_MFP1 setting for PF.4 */
1500:./bsp/inc/SYS.h **** #define SYS_ALT_MFP2_PF4_PWM1_CH4   NULL                /*!< No ALT_MFP2 setting for PF.4 */
1501:./bsp/inc/SYS.h **** #define SYS_ALT_MFP3_PF4_PWM1_CH4   (1UL<<10)           /*!< ALT_MFP3 PF.4 setting for PWM1_CH4 */
1502:./bsp/inc/SYS.h **** #define SYS_ALT_MFP4_PF4_PWM1_CH4   NULL                /*!< No ALT_MFP4 setting for PF.4 */
1503:./bsp/inc/SYS.h **** 
1504:./bsp/inc/SYS.h **** #define SYS_GPF_MFP_PF4_Msk         (1UL<<4)            /*!< GPF_MFP PF.4 mask */
1505:./bsp/inc/SYS.h **** #define SYS_ALT_MFP_PF4_Msk         NULL                /*!< No ALT_MFP PF.4 mask */
1506:./bsp/inc/SYS.h **** #define SYS_ALT_MFP1_PF4_Msk        NULL                /*!< No ALT_MFP1 PF.4 mask */
1507:./bsp/inc/SYS.h **** #define SYS_ALT_MFP2_PF4_Msk        NULL                /*!< No ALT_MFP2 PF.4 mask */
1508:./bsp/inc/SYS.h **** #define SYS_ALT_MFP3_PF4_Msk        (1UL<<10)           /*!< ALT_MFP3 PF.4 mask */
1509:./bsp/inc/SYS.h **** #define SYS_ALT_MFP4_PF4_Msk        NULL                /*!< No ALT_MFP4 PF.4 mask */
1510:./bsp/inc/SYS.h **** 
1511:./bsp/inc/SYS.h **** //PF.5
1512:./bsp/inc/SYS.h **** #define SYS_GPF_MFP_PF5_GPIO        0x00000000UL        /*!< GPF_MFP PF.5 setting for GPIO */
1513:./bsp/inc/SYS.h **** #define SYS_ALT_MFP_PF5_GPIO        NULL                /*!< No ALT_MFP setting for PF.5 */
1514:./bsp/inc/SYS.h **** #define SYS_ALT_MFP1_PF5_GPIO       NULL                /*!< No ALT_MFP1 setting for PF.5 */
1515:./bsp/inc/SYS.h **** #define SYS_ALT_MFP2_PF5_GPIO       NULL                /*!< No ALT_MFP2 setting for PF.5 */
1516:./bsp/inc/SYS.h **** #define SYS_ALT_MFP3_PF5_GPIO       0x00000000UL        /*!< ALT_MFP3 PF.5 setting for GPIO */
1517:./bsp/inc/SYS.h **** #define SYS_ALT_MFP4_PF5_GPIO       NULL                /*!< No ALT_MFP4 setting for PF.5 */
1518:./bsp/inc/SYS.h **** 
1519:./bsp/inc/SYS.h **** #define SYS_GPF_MFP_PF5_I2C0_SCL    (1UL<<5)            /*!< GPF_MFP PF.5 setting for I2C0_SCL */
1520:./bsp/inc/SYS.h **** #define SYS_ALT_MFP_PF5_I2C0_SCL    NULL                /*!< No ALT_MFP setting for PF.5 */
1521:./bsp/inc/SYS.h **** #define SYS_ALT_MFP1_PF5_I2C0_SCL   NULL                /*!< No ALT_MFP1 setting for PF.5 */
1522:./bsp/inc/SYS.h **** #define SYS_ALT_MFP2_PF5_I2C0_SCL   NULL                /*!< No ALT_MFP2 setting for PF.5 */
1523:./bsp/inc/SYS.h **** #define SYS_ALT_MFP3_PF5_I2C0_SCL   0x00000000UL        /*!< ALT_MFP3 PF.5 setting for I2C0_SCL */
1524:./bsp/inc/SYS.h **** #define SYS_ALT_MFP4_PF5_I2C0_SCL   NULL                /*!< No ALT_MFP4 setting for PF.5 */
1525:./bsp/inc/SYS.h **** 
1526:./bsp/inc/SYS.h **** #define SYS_GPF_MFP_PF5_PWM1_CH5    (1UL<<5)            /*!< GPF_MFP PF.5 setting for PWM1_CH5 */
1527:./bsp/inc/SYS.h **** #define SYS_ALT_MFP_PF5_PWM1_CH5    NULL                /*!< No ALT_MFP setting for PF.6 */
1528:./bsp/inc/SYS.h **** #define SYS_ALT_MFP1_PF5_PWM1_CH5   NULL                /*!< No ALT_MFP1 setting for PF.5 */
1529:./bsp/inc/SYS.h **** #define SYS_ALT_MFP2_PF5_PWM1_CH5   NULL                /*!< No ALT_MFP2 setting for PF.5 */
1530:./bsp/inc/SYS.h **** #define SYS_ALT_MFP3_PF5_PWM1_CH5   (1UL<<11)           /*!< ALT_MFP3 PF.5 setting for PWM1_CH5 */
1531:./bsp/inc/SYS.h **** #define SYS_ALT_MFP4_PF5_PWM1_CH5   NULL                /*!< No ALT_MFP4 setting for PF.5 */
1532:./bsp/inc/SYS.h **** 
1533:./bsp/inc/SYS.h **** #define SYS_GPF_MFP_PF5_Msk         (1UL<<5)            /*!< GPF_MFP PF.5 mask */
1534:./bsp/inc/SYS.h **** #define SYS_ALT_MFP_PF5_Msk         NULL                /*!< No ALT_MFP PF.5 mask */
1535:./bsp/inc/SYS.h **** #define SYS_ALT_MFP1_PF5_Msk        NULL                /*!< No ALT_MFP1 PF.5 mask */
1536:./bsp/inc/SYS.h **** #define SYS_ALT_MFP2_PF5_Msk        NULL                /*!< No ALT_MFP2 PF.5 mask */
1537:./bsp/inc/SYS.h **** #define SYS_ALT_MFP3_PF5_Msk        (1UL<<11)           /*!< ALT_MFP3 PF.5 mask */
1538:./bsp/inc/SYS.h **** #define SYS_ALT_MFP4_PF5_Msk        NULL                /*!< No ALT_MFP4 PF.5 mask */
1539:./bsp/inc/SYS.h **** 
1540:./bsp/inc/SYS.h **** //PF.6
1541:./bsp/inc/SYS.h **** #define SYS_GPF_MFP_PF6_GPIO        0x00000000UL        /*!< GPF_MFP PF.6 setting for GPIO */
1542:./bsp/inc/SYS.h **** #define SYS_ALT_MFP_PF6_GPIO        NULL                /*!< No ALT_MFP setting for PF.6 */
1543:./bsp/inc/SYS.h **** #define SYS_ALT_MFP1_PF6_GPIO       NULL                /*!< No ALT_MFP1 setting for PF.6 */
1544:./bsp/inc/SYS.h **** #define SYS_ALT_MFP2_PF6_GPIO       NULL                /*!< No ALT_MFP2 setting for PF.6 */
1545:./bsp/inc/SYS.h **** #define SYS_ALT_MFP3_PF6_GPIO       NULL                /*!< No ALT_MFP3 setting for PF.6 */
1546:./bsp/inc/SYS.h **** #define SYS_ALT_MFP4_PF6_GPIO       NULL                /*!< No ALT_MFP4 setting for PF.6 */
1547:./bsp/inc/SYS.h **** 
1548:./bsp/inc/SYS.h **** #define SYS_GPF_MFP_PF6_ICE_CLK     (1UL<<6)            /*!< GPF_MFP PF.6 setting for ICE_CLK */
1549:./bsp/inc/SYS.h **** #define SYS_ALT_MFP_PF6_ICE_CLK     NULL                /*!< No ALT_MFP setting for PF.6 */
1550:./bsp/inc/SYS.h **** #define SYS_ALT_MFP1_PF6_ICE_CLK    NULL                /*!< No ALT_MFP1 setting for PF.6 */
1551:./bsp/inc/SYS.h **** #define SYS_ALT_MFP2_PF6_ICE_CLK    NULL                /*!< No ALT_MFP2 setting for PF.6 */
1552:./bsp/inc/SYS.h **** #define SYS_ALT_MFP3_PF6_ICE_CLK    NULL                /*!< No ALT_MFP3 setting for PF.6 */
1553:./bsp/inc/SYS.h **** #define SYS_ALT_MFP4_PF6_ICE_CLK    NULL                /*!< No ALT_MFP4 setting for PF.6 */
1554:./bsp/inc/SYS.h **** 
1555:./bsp/inc/SYS.h **** #define SYS_GPF_MFP_PF6_Msk         (1UL<<6)            /*!< GPF_MFP PF.6 mask */
1556:./bsp/inc/SYS.h **** #define SYS_ALT_MFP_PF6_Msk         NULL                /*!< No ALT_MFP PF.6 mask */
1557:./bsp/inc/SYS.h **** #define SYS_ALT_MFP1_PF6_Msk        NULL                /*!< No ALT_MFP1 PF.6 mask */
1558:./bsp/inc/SYS.h **** #define SYS_ALT_MFP2_PF6_Msk        NULL                /*!< No ALT_MFP2 PF.6 mask */
1559:./bsp/inc/SYS.h **** #define SYS_ALT_MFP3_PF6_Msk        NuLL                /*!< No ALT_MFP3 PF.6 mask */
1560:./bsp/inc/SYS.h **** #define SYS_ALT_MFP4_PF6_Msk        NULL                /*!< No ALT_MFP4 PF.6 mask */
1561:./bsp/inc/SYS.h **** 
1562:./bsp/inc/SYS.h **** //PF.7
1563:./bsp/inc/SYS.h **** #define SYS_GPF_MFP_PF7_GPIO        0x00000000UL        /*!< GPF_MFP PF.7 setting for GPIO */
1564:./bsp/inc/SYS.h **** #define SYS_ALT_MFP_PF7_GPIO        NULL                /*!< No ALT_MFP setting for PF.7 */
1565:./bsp/inc/SYS.h **** #define SYS_ALT_MFP1_PF7_GPIO       NULL                /*!< No ALT_MFP1 setting for PF.7 */
1566:./bsp/inc/SYS.h **** #define SYS_ALT_MFP2_PF7_GPIO       NULL                /*!< No ALT_MFP2 setting for PF.7 */
1567:./bsp/inc/SYS.h **** #define SYS_ALT_MFP3_PF7_GPIO       NULL                /*!< No ALT_MFP3 setting for PF.7 */
1568:./bsp/inc/SYS.h **** #define SYS_ALT_MFP4_PF7_GPIO       NULL                /*!< No ALT_MFP4 setting for PF.7 */
1569:./bsp/inc/SYS.h **** 
1570:./bsp/inc/SYS.h **** #define SYS_GPF_MFP_PF7_ICE_DAT     (1UL<<7)            /*!< GPF_MFP PF.7 setting for ICE_DAT */
1571:./bsp/inc/SYS.h **** #define SYS_ALT_MFP_PF7_ICE_DAT     NULL                /*!< No ALT_MFP setting for PF.7 */
1572:./bsp/inc/SYS.h **** #define SYS_ALT_MFP1_PF7_ICE_DAT    NULL                /*!< No ALT_MFP1 setting for PF.7 */
1573:./bsp/inc/SYS.h **** #define SYS_ALT_MFP2_PF7_ICE_DAT    NULL                /*!< No ALT_MFP2 setting for PF.7 */
1574:./bsp/inc/SYS.h **** #define SYS_ALT_MFP3_PF7_ICE_DAT    NULL                /*!< No ALT_MFP3 setting for PF.7 */
1575:./bsp/inc/SYS.h **** #define SYS_ALT_MFP4_PF7_ICE_DAT    NULL                /*!< No ALT_MFP4 setting for PF.7 */
1576:./bsp/inc/SYS.h **** 
1577:./bsp/inc/SYS.h **** #define SYS_GPF_MFP_PF7_Msk         (1UL<<7)            /*!< GPF_MFP PF.7 mask */
1578:./bsp/inc/SYS.h **** #define SYS_ALT_MFP_PF7_Msk         NULL                /*!< No ALT_MFP PF.7 mask */
1579:./bsp/inc/SYS.h **** #define SYS_ALT_MFP1_PF7_Msk        NULL                /*!< No ALT_MFP1 PF.7 mask */
1580:./bsp/inc/SYS.h **** #define SYS_ALT_MFP2_PF7_Msk        NULL                /*!< No ALT_MFP2 PF.7 mask */
1581:./bsp/inc/SYS.h **** #define SYS_ALT_MFP3_PF7_Msk        NuLL                /*!< No ALT_MFP3 PF.7 mask */
1582:./bsp/inc/SYS.h **** #define SYS_ALT_MFP4_PF7_Msk        NULL                /*!< No ALT_MFP4 PF.7 mask */
1583:./bsp/inc/SYS.h **** 
1584:./bsp/inc/SYS.h **** //PF.8
1585:./bsp/inc/SYS.h **** #define SYS_GPF_MFP_PF8_GPIO        0x00000000UL        /*!< GPF_MFP PF.8 setting for GPIO */
1586:./bsp/inc/SYS.h **** #define SYS_ALT_MFP_PF8_GPIO        NULL                /*!< No ALT_MFP setting for PF.8 */
1587:./bsp/inc/SYS.h **** #define SYS_ALT_MFP1_PF8_GPIO       NULL                /*!< No ALT_MFP1 setting for PF.8 */
1588:./bsp/inc/SYS.h **** #define SYS_ALT_MFP2_PF8_GPIO       NULL                /*!< No ALT_MFP2 setting for PF.8 */
1589:./bsp/inc/SYS.h **** #define SYS_ALT_MFP3_PF8_GPIO       NULL                /*!< No ALT_MFP3 setting for PF.8 */
1590:./bsp/inc/SYS.h **** #define SYS_ALT_MFP4_PF8_GPIO       NULL                /*!< No ALT_MFP4 setting for PF.8 */
1591:./bsp/inc/SYS.h **** 
1592:./bsp/inc/SYS.h **** #define SYS_GPF_MFP_PF8_CLKO        0x00000000UL        /*!< GPF_MFP PF.8 setting for CLKO */
1593:./bsp/inc/SYS.h **** #define SYS_ALT_MFP_PF8_CLKO        NULL                /*!< No ALT_MFP setting for PF.8 */
1594:./bsp/inc/SYS.h **** #define SYS_ALT_MFP1_PF8_CLKO       NULL                /*!< No ALT_MFP1 setting for PF.8 */
1595:./bsp/inc/SYS.h **** #define SYS_ALT_MFP2_PF8_CLKO       NULL                /*!< No ALT_MFP2 setting for PF.8 */
1596:./bsp/inc/SYS.h **** #define SYS_ALT_MFP3_PF8_CLKO       NULL                /*!< No ALT_MFP3 setting for PF.8 */
1597:./bsp/inc/SYS.h **** #define SYS_ALT_MFP4_PF8_CLKO       NULL                /*!< No ALT_MFP4 setting for PF.8 */
1598:./bsp/inc/SYS.h **** 
1599:./bsp/inc/SYS.h **** #define SYS_GPF_MFP_PF8_Msk         (1UL<<8)            /*!< GPF_MFP PF.8 mask */
1600:./bsp/inc/SYS.h **** #define SYS_ALT_MFP_PF8_Msk         NULL                /*!< No ALT_MFP PF.8 mask */
1601:./bsp/inc/SYS.h **** #define SYS_ALT_MFP1_PF8_Msk        NULL                /*!< No ALT_MFP1 PF.8 mask */
1602:./bsp/inc/SYS.h **** #define SYS_ALT_MFP2_PF8_Msk        NULL                /*!< No ALT_MFP2 PF.8 mask */
1603:./bsp/inc/SYS.h **** #define SYS_ALT_MFP3_PF8_Msk        NuLL                /*!< No ALT_MFP3 PF.8 mask */
1604:./bsp/inc/SYS.h **** #define SYS_ALT_MFP4_PF8_Msk        NULL                /*!< No ALT_MFP4 PF.8 mask */
1605:./bsp/inc/SYS.h **** 
1606:./bsp/inc/SYS.h **** 
1607:./bsp/inc/SYS.h **** /*@}*/ /* end of group NUC131_SYS_EXPORTED_CONSTANTS */
1608:./bsp/inc/SYS.h **** 
1609:./bsp/inc/SYS.h **** /** @addtogroup NUC131_SYS_EXPORTED_FUNCTIONS SYS Exported Functions
1610:./bsp/inc/SYS.h ****   @{
1611:./bsp/inc/SYS.h **** */
1612:./bsp/inc/SYS.h **** 
1613:./bsp/inc/SYS.h **** 
1614:./bsp/inc/SYS.h **** /**
1615:./bsp/inc/SYS.h ****   * @brief      Clear Brown-out detector interrupt flag
1616:./bsp/inc/SYS.h ****   * @param      None
1617:./bsp/inc/SYS.h ****   * @return     None
1618:./bsp/inc/SYS.h ****   * @details    This macro clear Brown-out detector interrupt flag.
1619:./bsp/inc/SYS.h ****   */
1620:./bsp/inc/SYS.h **** #define SYS_CLEAR_BOD_INT_FLAG()        (SYS->BODCR |= SYS_BODCR_BOD_INTF_Msk)
1621:./bsp/inc/SYS.h **** 
1622:./bsp/inc/SYS.h **** /**
1623:./bsp/inc/SYS.h ****   * @brief      Set Brown-out detector function to normal mode
1624:./bsp/inc/SYS.h ****   * @param      None
1625:./bsp/inc/SYS.h ****   * @return     None
1626:./bsp/inc/SYS.h ****   * @details    This macro set Brown-out detector to normal mode.
1627:./bsp/inc/SYS.h ****   *             The register write-protection function should be disabled before using this macro.
1628:./bsp/inc/SYS.h ****   */
1629:./bsp/inc/SYS.h **** #define SYS_CLEAR_BOD_LPM()             (SYS->BODCR &= ~SYS_BODCR_BOD_LPM_Msk)
1630:./bsp/inc/SYS.h **** 
1631:./bsp/inc/SYS.h **** /**
1632:./bsp/inc/SYS.h ****   * @brief      Disable Brown-out detector function
1633:./bsp/inc/SYS.h ****   * @param      None
1634:./bsp/inc/SYS.h ****   * @return     None
1635:./bsp/inc/SYS.h ****   * @details    This macro disable Brown-out detector function.
1636:./bsp/inc/SYS.h ****   *             The register write-protection function should be disabled before using this macro.
1637:./bsp/inc/SYS.h ****   */
1638:./bsp/inc/SYS.h **** #define SYS_DISABLE_BOD()               (SYS->BODCR &= ~SYS_BODCR_BOD_EN_Msk)
1639:./bsp/inc/SYS.h **** 
1640:./bsp/inc/SYS.h **** /**
1641:./bsp/inc/SYS.h ****   * @brief      Enable Brown-out detector function
1642:./bsp/inc/SYS.h ****   * @param      None
1643:./bsp/inc/SYS.h ****   * @return     None
1644:./bsp/inc/SYS.h ****   * @details    This macro enable Brown-out detector function.
1645:./bsp/inc/SYS.h ****   *             The register write-protection function should be disabled before using this macro.
1646:./bsp/inc/SYS.h ****   */
1647:./bsp/inc/SYS.h **** #define SYS_ENABLE_BOD()                (SYS->BODCR |= SYS_BODCR_BOD_EN_Msk)
1648:./bsp/inc/SYS.h **** 
1649:./bsp/inc/SYS.h **** /**
1650:./bsp/inc/SYS.h ****   * @brief      Get Brown-out detector interrupt flag
1651:./bsp/inc/SYS.h ****   * @param      None
1652:./bsp/inc/SYS.h ****   * @retval     0   Brown-out detect interrupt flag is not set.
1653:./bsp/inc/SYS.h ****   * @retval     >=1 Brown-out detect interrupt flag is set.
1654:./bsp/inc/SYS.h ****   * @details    This macro get Brown-out detector interrupt flag.
1655:./bsp/inc/SYS.h ****   */
1656:./bsp/inc/SYS.h **** #define SYS_GET_BOD_INT_FLAG()          (SYS->BODCR & SYS_BODCR_BOD_INTF_Msk)
1657:./bsp/inc/SYS.h **** 
1658:./bsp/inc/SYS.h **** /**
1659:./bsp/inc/SYS.h ****   * @brief      Get Brown-out detector status
1660:./bsp/inc/SYS.h ****   * @param      None
1661:./bsp/inc/SYS.h ****   * @retval     0   System voltage is higher than BOD threshold voltage setting or BOD function is 
1662:./bsp/inc/SYS.h ****   * @retval     >=1 System voltage is lower than BOD threshold voltage setting.
1663:./bsp/inc/SYS.h ****   * @details    This macro get Brown-out detector output status.
1664:./bsp/inc/SYS.h ****   *             If the BOD function is disabled, this function always return 0.
1665:./bsp/inc/SYS.h ****   */
1666:./bsp/inc/SYS.h **** #define SYS_GET_BOD_OUTPUT()            (SYS->BODCR & SYS_BODCR_BOD_OUT_Msk)
1667:./bsp/inc/SYS.h **** 
1668:./bsp/inc/SYS.h **** /**
1669:./bsp/inc/SYS.h ****   * @brief      Enable Brown-out detector interrupt function
1670:./bsp/inc/SYS.h ****   * @param      None
1671:./bsp/inc/SYS.h ****   * @return     None
1672:./bsp/inc/SYS.h ****   * @details    This macro enable Brown-out detector interrupt function.
1673:./bsp/inc/SYS.h ****   *             The register write-protection function should be disabled before using this macro.
1674:./bsp/inc/SYS.h ****   */
1675:./bsp/inc/SYS.h **** #define SYS_DISABLE_BOD_RST()           (SYS->BODCR &= ~SYS_BODCR_BOD_RSTEN_Msk)
1676:./bsp/inc/SYS.h **** 
1677:./bsp/inc/SYS.h **** /**
1678:./bsp/inc/SYS.h ****   * @brief      Enable Brown-out detector reset function
1679:./bsp/inc/SYS.h ****   * @param      None
1680:./bsp/inc/SYS.h ****   * @return     None
1681:./bsp/inc/SYS.h ****   * @details    This macro enable Brown-out detect reset function.
1682:./bsp/inc/SYS.h ****   *             The register write-protection function should be disabled before using this macro.
1683:./bsp/inc/SYS.h ****   */
1684:./bsp/inc/SYS.h **** #define SYS_ENABLE_BOD_RST()            (SYS->BODCR |= SYS_BODCR_BOD_RSTEN_Msk)
1685:./bsp/inc/SYS.h **** 
1686:./bsp/inc/SYS.h **** /**
1687:./bsp/inc/SYS.h ****   * @brief      Set Brown-out detector function low power mode
1688:./bsp/inc/SYS.h ****   * @param      None
1689:./bsp/inc/SYS.h ****   * @return     None
1690:./bsp/inc/SYS.h ****   * @details    This macro set Brown-out detector to low power mode.
1691:./bsp/inc/SYS.h ****   *             The register write-protection function should be disabled before using this macro.
1692:./bsp/inc/SYS.h ****   */
1693:./bsp/inc/SYS.h **** #define SYS_SET_BOD_LPM()               (SYS->BODCR |= SYS_BODCR_BOD_LPM_Msk)
1694:./bsp/inc/SYS.h **** 
1695:./bsp/inc/SYS.h **** /**
1696:./bsp/inc/SYS.h ****   * @brief      Set Brown-out detector voltage level
1697:./bsp/inc/SYS.h ****   * @param[in]  u32Level is Brown-out voltage level. Including :
1698:./bsp/inc/SYS.h ****   *             - \ref SYS_BODCR_BOD_VL_4_4V
1699:./bsp/inc/SYS.h ****   *             - \ref SYS_BODCR_BOD_VL_3_7V
1700:./bsp/inc/SYS.h ****   *             - \ref SYS_BODCR_BOD_VL_2_7V
1701:./bsp/inc/SYS.h ****   *             - \ref SYS_BODCR_BOD_VL_2_2V
1702:./bsp/inc/SYS.h ****   * @return     None
1703:./bsp/inc/SYS.h ****   * @details    This macro set Brown-out detector voltage level.
1704:./bsp/inc/SYS.h ****   *             The write-protection function should be disabled before using this macro.
1705:./bsp/inc/SYS.h ****   */
1706:./bsp/inc/SYS.h **** #define SYS_SET_BOD_LEVEL(u32Level)     (SYS->BODCR = (SYS->BODCR & ~SYS_BODCR_BOD_VL_Msk) | (u32Le
1707:./bsp/inc/SYS.h **** 
1708:./bsp/inc/SYS.h **** /**
1709:./bsp/inc/SYS.h ****   * @brief      Get reset source is from Brown-out detector reset
1710:./bsp/inc/SYS.h ****   * @param      None
1711:./bsp/inc/SYS.h ****   * @retval     0   Previous reset source is not from Brown-out detector reset
1712:./bsp/inc/SYS.h ****   * @retval     >=1 Previous reset source is from Brown-out detector reset
1713:./bsp/inc/SYS.h ****   * @details    This macro get previous reset source is from Brown-out detect reset or not.
1714:./bsp/inc/SYS.h ****   */
1715:./bsp/inc/SYS.h **** #define SYS_IS_BOD_RST()                (SYS->RSTSRC & SYS_RSTSRC_RSTS_BOD_Msk)
1716:./bsp/inc/SYS.h **** 
1717:./bsp/inc/SYS.h **** /**
1718:./bsp/inc/SYS.h ****   * @brief      Get reset source is from CPU reset
1719:./bsp/inc/SYS.h ****   * @param      None
1720:./bsp/inc/SYS.h ****   * @retval     0   Previous reset source is not from CPU reset
1721:./bsp/inc/SYS.h ****   * @retval     >=1 Previous reset source is from CPU reset
1722:./bsp/inc/SYS.h ****   * @details    This macro get previous reset source is from CPU reset.
1723:./bsp/inc/SYS.h ****   */
1724:./bsp/inc/SYS.h **** #define SYS_IS_CPU_RST()                (SYS->RSTSRC & SYS_RSTSRC_RSTS_CPU_Msk)
1725:./bsp/inc/SYS.h **** 
1726:./bsp/inc/SYS.h **** /**
1727:./bsp/inc/SYS.h ****   * @brief      Get reset source is from Power-on Reset
1728:./bsp/inc/SYS.h ****   * @param      None
1729:./bsp/inc/SYS.h ****   * @retval     0   Previous reset source is not from Power-on Reset
1730:./bsp/inc/SYS.h ****   * @retval     >=1 Previous reset source is from Power-on Reset
1731:./bsp/inc/SYS.h ****   * @details    This macro get previous reset source is from Power-on Reset.
1732:./bsp/inc/SYS.h ****   */
1733:./bsp/inc/SYS.h **** #define SYS_IS_POR_RST()                (SYS->RSTSRC & SYS_RSTSRC_RSTS_POR_Msk)
1734:./bsp/inc/SYS.h **** 
1735:./bsp/inc/SYS.h **** /**
1736:./bsp/inc/SYS.h ****   * @brief      Get reset source is from reset pin reset
1737:./bsp/inc/SYS.h ****   * @param      None
1738:./bsp/inc/SYS.h ****   * @retval     0   Previous reset source is not from reset pin reset
1739:./bsp/inc/SYS.h ****   * @retval     >=1 Previous reset source is from reset pin reset
1740:./bsp/inc/SYS.h ****   * @details    This macro get previous reset source is from reset pin reset.
1741:./bsp/inc/SYS.h ****   */
1742:./bsp/inc/SYS.h **** #define SYS_IS_RSTPIN_RST()             (SYS->RSTSRC & SYS_RSTSRC_RSTS_RESET_Msk)
1743:./bsp/inc/SYS.h **** 
1744:./bsp/inc/SYS.h **** /**
1745:./bsp/inc/SYS.h ****   * @brief      Get reset source is from system reset
1746:./bsp/inc/SYS.h ****   * @param      None
1747:./bsp/inc/SYS.h ****   * @retval     0   Previous reset source is not from system reset
1748:./bsp/inc/SYS.h ****   * @retval     >=1 Previous reset source is from system reset
1749:./bsp/inc/SYS.h ****   * @details    This macro get previous reset source is from system reset.
1750:./bsp/inc/SYS.h ****   */
1751:./bsp/inc/SYS.h **** #define SYS_IS_SYSTEM_RST()             (SYS->RSTSRC & SYS_RSTSRC_RSTS_MCU_Msk)
1752:./bsp/inc/SYS.h **** 
1753:./bsp/inc/SYS.h **** /**
1754:./bsp/inc/SYS.h ****   * @brief      Get reset source is from window watch dog reset
1755:./bsp/inc/SYS.h ****   * @param      None
1756:./bsp/inc/SYS.h ****   * @retval     0   Previous reset source is not from window watch dog reset
1757:./bsp/inc/SYS.h ****   * @retval     >=1 Previous reset source is from window watch dog reset
1758:./bsp/inc/SYS.h ****   * @details    This macro get previous reset source is from window watch dog reset.
1759:./bsp/inc/SYS.h ****   */
1760:./bsp/inc/SYS.h **** #define SYS_IS_WDT_RST()                (SYS->RSTSRC & SYS_RSTSRC_RSTS_WDT_Msk)
1761:./bsp/inc/SYS.h **** 
1762:./bsp/inc/SYS.h **** /**
1763:./bsp/inc/SYS.h ****   * @brief      Disable Low-Voltage-Reset function
1764:./bsp/inc/SYS.h ****   * @param      None
1765:./bsp/inc/SYS.h ****   * @return     None
1766:./bsp/inc/SYS.h ****   * @details    This macro disable Low-Voltage-Reset function.
1767:./bsp/inc/SYS.h ****   *             The register write-protection function should be disabled before using this macro.
1768:./bsp/inc/SYS.h ****   */
1769:./bsp/inc/SYS.h **** #define SYS_DISABLE_LVR()               (SYS->BODCR &= ~SYS_BODCR_LVR_EN_Msk)
1770:./bsp/inc/SYS.h **** 
1771:./bsp/inc/SYS.h **** /**
1772:./bsp/inc/SYS.h ****   * @brief      Enable Low-Voltage-Reset function
1773:./bsp/inc/SYS.h ****   * @param      None
1774:./bsp/inc/SYS.h ****   * @return     None
1775:./bsp/inc/SYS.h ****   * @details    This macro enable Low-Voltage-Reset function.
1776:./bsp/inc/SYS.h ****   *             The register write-protection function should be disabled before using this macro.
1777:./bsp/inc/SYS.h ****   */
1778:./bsp/inc/SYS.h **** #define SYS_ENABLE_LVR()                (SYS->BODCR |= SYS_BODCR_LVR_EN_Msk)
1779:./bsp/inc/SYS.h **** 
1780:./bsp/inc/SYS.h **** /**
1781:./bsp/inc/SYS.h ****   * @brief      Disable Power-on Reset function
1782:./bsp/inc/SYS.h ****   * @param      None
1783:./bsp/inc/SYS.h ****   * @return     None
1784:./bsp/inc/SYS.h ****   * @details    This macro disable Power-on Reset function.
1785:./bsp/inc/SYS.h ****   *             The register write-protection function should be disabled before using this macro.
1786:./bsp/inc/SYS.h ****   */
1787:./bsp/inc/SYS.h **** #define SYS_DISABLE_POR()               (SYS->PORCR = 0x5AA5)
1788:./bsp/inc/SYS.h **** 
1789:./bsp/inc/SYS.h **** /**
1790:./bsp/inc/SYS.h ****   * @brief      Enable Power-on Reset function
1791:./bsp/inc/SYS.h ****   * @param      None
1792:./bsp/inc/SYS.h ****   * @return     None
1793:./bsp/inc/SYS.h ****   * @details    This macro enable Power-on Reset function.
1794:./bsp/inc/SYS.h ****   *             The register write-protection function should be disabled before using this macro.
1795:./bsp/inc/SYS.h ****   */
1796:./bsp/inc/SYS.h **** #define SYS_ENABLE_POR()                (SYS->PORCR = 0)
1797:./bsp/inc/SYS.h **** 
1798:./bsp/inc/SYS.h **** /**
1799:./bsp/inc/SYS.h ****   * @brief      Clear reset source flag
1800:./bsp/inc/SYS.h ****   * @param[in]  u32RstSrc is reset source. Including:
1801:./bsp/inc/SYS.h ****   *             - \ref SYS_RSTSRC_RSTS_CPU_Msk
1802:./bsp/inc/SYS.h ****   *             - \ref SYS_RSTSRC_RSTS_SYS_Msk
1803:./bsp/inc/SYS.h ****   *             - \ref SYS_RSTSRC_RSTS_BOD_Msk
1804:./bsp/inc/SYS.h ****   *             - \ref SYS_RSTSRC_RSTS_LVR_Msk
1805:./bsp/inc/SYS.h ****   *             - \ref SYS_RSTSRC_RSTS_WDT_Msk
1806:./bsp/inc/SYS.h ****   *             - \ref SYS_RSTSRC_RSTS_RESET_Msk
1807:./bsp/inc/SYS.h ****   *             - \ref SYS_RSTSRC_RSTS_POR_Msk
1808:./bsp/inc/SYS.h ****   * @return     None
1809:./bsp/inc/SYS.h ****   * @details    This macro clear reset source flag.
1810:./bsp/inc/SYS.h ****   */
1811:./bsp/inc/SYS.h **** #define SYS_CLEAR_RST_SOURCE(u32RstSrc) (SYS->RSTSRC | (u32RstSrc) )
1812:./bsp/inc/SYS.h **** 
1813:./bsp/inc/SYS.h **** 
1814:./bsp/inc/SYS.h **** /**
1815:./bsp/inc/SYS.h ****   * @brief      Enable register write-protection function
1816:./bsp/inc/SYS.h ****   * @param      None
1817:./bsp/inc/SYS.h ****   * @return     None
1818:./bsp/inc/SYS.h ****   * @details    This function enable register write-protection function.
1819:./bsp/inc/SYS.h ****   *             To lock the protected register to forbid write access.
1820:./bsp/inc/SYS.h ****   */
1821:./bsp/inc/SYS.h **** static __INLINE void SYS_LockReg(void)
1822:./bsp/inc/SYS.h **** {
1823:./bsp/inc/SYS.h ****     SYS->REGWRPROT = 0;
1824:./bsp/inc/SYS.h **** }
1825:./bsp/inc/SYS.h **** 
1826:./bsp/inc/SYS.h **** /**
1827:./bsp/inc/SYS.h ****   * @brief      Disable register write-protection function
1828:./bsp/inc/SYS.h ****   * @param      None
1829:./bsp/inc/SYS.h ****   * @return     None
1830:./bsp/inc/SYS.h ****   * @details    This function disable register write-protection function.
1831:./bsp/inc/SYS.h ****   *             To unlock the protected register to allow write access.
1832:./bsp/inc/SYS.h ****   *
1833:./bsp/inc/SYS.h ****   */
1834:./bsp/inc/SYS.h **** static __INLINE void SYS_UnlockReg(void)
1835:./bsp/inc/SYS.h **** {
1836:./bsp/inc/SYS.h ****     while(SYS->REGWRPROT != SYS_REGWRPROT_REGPROTDIS_Msk)
1837:./bsp/inc/SYS.h ****     {
1838:./bsp/inc/SYS.h ****         SYS->REGWRPROT = 0x59;
 184              		.loc 3 1838 0
 185 0002 5921     		movs	r1, #89
1839:./bsp/inc/SYS.h ****         SYS->REGWRPROT = 0x16;
 186              		.loc 3 1839 0
 187 0004 1620     		movs	r0, #22
1840:./bsp/inc/SYS.h ****         SYS->REGWRPROT = 0x88;
 188              		.loc 3 1840 0
 189 0006 8824     		movs	r4, #136
1836:./bsp/inc/SYS.h ****     {
 190              		.loc 3 1836 0
 191 0008 164B     		ldr	r3, .L27
 192              	.L14:
 193 000a 5A68     		ldr	r2, [r3, #4]
 194 000c 012A     		cmp	r2, #1
 195 000e 03D0     		beq	.L26
1838:./bsp/inc/SYS.h ****         SYS->REGWRPROT = 0x16;
 196              		.loc 3 1838 0
 197 0010 5960     		str	r1, [r3, #4]
1839:./bsp/inc/SYS.h ****         SYS->REGWRPROT = 0x88;
 198              		.loc 3 1839 0
 199 0012 5860     		str	r0, [r3, #4]
 200              		.loc 3 1840 0
 201 0014 5C60     		str	r4, [r3, #4]
 202 0016 F8E7     		b	.L14
 203              	.L26:
 204              	.LBE13:
 205              	.LBE12:
  87:./bsp/system_NUC131.c ****     /* Unlock protected registers */
  88:./bsp/system_NUC131.c ****     SYS_UnlockReg();
  89:./bsp/system_NUC131.c **** 
  90:./bsp/system_NUC131.c ****     /* Init System, IP clock and multi-function I/O */
  91:./bsp/system_NUC131.c **** //    SYS_Init();
  92:./bsp/system_NUC131.c **** 
  93:./bsp/system_NUC131.c **** 	//SYS->GPF_MFP = 0xC3;
  94:./bsp/system_NUC131.c **** 	CLK->PWRCON = 0x15;
 206              		.loc 1 94 0
 207 0018 134B     		ldr	r3, .L27+4
 208 001a 1432     		adds	r2, r2, #20
 209 001c 1A60     		str	r2, [r3]
  95:./bsp/system_NUC131.c **** 	
  96:./bsp/system_NUC131.c ****     /* Enable Internal RC 22.1184MHz clock */
  97:./bsp/system_NUC131.c ****     //CLK->PWRCON |= CLK_PWRCON_OSC22M_EN_Msk;
  98:./bsp/system_NUC131.c ****     /* Waiting for Internal RC clock ready */
  99:./bsp/system_NUC131.c ****     while(!(CLK->CLKSTATUS & CLK_CLKSTATUS_OSC22M_STB_Msk));
 210              		.loc 1 99 0
 211 001e 053A     		subs	r2, r2, #5
 212              	.L16:
 213              		.loc 1 99 0 is_stmt 0 discriminator 1
 214 0020 D968     		ldr	r1, [r3, #12]
 215 0022 1142     		tst	r1, r2
 216 0024 FCD0     		beq	.L16
 100:./bsp/system_NUC131.c **** 	
 101:./bsp/system_NUC131.c ****     /* Enable external XTAL 12MHz clock */
 102:./bsp/system_NUC131.c ****     //CLK->PWRCON |= CLK_PWRCON_XTL12M_EN_Msk;
 103:./bsp/system_NUC131.c ****     /* Waiting for external XTAL clock ready */
 104:./bsp/system_NUC131.c ****     while(!(CLK->CLKSTATUS & CLK_CLKSTATUS_XTL12M_STB_Msk));
 217              		.loc 1 104 0 is_stmt 1 discriminator 1
 218 0026 0122     		movs	r2, #1
 219              	.L22:
 220 0028 D968     		ldr	r1, [r3, #12]
 221 002a 1142     		tst	r1, r2
 222 002c FCD0     		beq	.L22
 105:./bsp/system_NUC131.c **** 
 106:./bsp/system_NUC131.c **** 
 107:./bsp/system_NUC131.c ****     /* Switch HCLK clock source to Internal RC */
 108:./bsp/system_NUC131.c ****     //CLK->CLKSEL0 &= ~CLK_CLKSEL0_HCLK_S_Msk;
 109:./bsp/system_NUC131.c ****     //CLK->CLKSEL0 |= CLK_CLKSEL0_HCLK_S_HIRC;
 110:./bsp/system_NUC131.c **** 
 111:./bsp/system_NUC131.c ****     /* Set core clock as PLL_CLOCK from PLL */
 112:./bsp/system_NUC131.c ****     CLK->PLLCON = PLLCON_SETTING;
 223              		.loc 1 112 0
 224 002e 0F49     		ldr	r1, .L27+8
 225 0030 0D4A     		ldr	r2, .L27+4
 226 0032 1162     		str	r1, [r2, #32]
 113:./bsp/system_NUC131.c ****     while(!(CLK->CLKSTATUS & CLK_CLKSTATUS_PLL_STB_Msk));
 227              		.loc 1 113 0
 228 0034 0421     		movs	r1, #4
 229              	.L18:
 230              		.loc 1 113 0 is_stmt 0 discriminator 1
 231 0036 D868     		ldr	r0, [r3, #12]
 232 0038 0B4A     		ldr	r2, .L27+4
 233 003a 0842     		tst	r0, r1
 234 003c FBD0     		beq	.L18
 114:./bsp/system_NUC131.c ****     CLK->CLKSEL0 &= (~CLK_CLKSEL0_HCLK_S_Msk);
 235              		.loc 1 114 0 is_stmt 1
 236 003e 0721     		movs	r1, #7
 237 0040 1369     		ldr	r3, [r2, #16]
 115:./bsp/system_NUC131.c ****     CLK->CLKSEL0 |= CLK_CLKSEL0_HCLK_S_PLL;
 116:./bsp/system_NUC131.c **** 
 117:./bsp/system_NUC131.c ****     /* Update System Core Clock */
 118:./bsp/system_NUC131.c ****     /* User can use SystemCoreClockUpdate() to calculate PllClock, SystemCoreClock and CycylesPerUs
 119:./bsp/system_NUC131.c ****     //SystemCoreClockUpdate();
 120:./bsp/system_NUC131.c ****     PllClock        = PLL_CLOCK;            // PLL
 121:./bsp/system_NUC131.c ****     SystemCoreClock = PLL_CLOCK / 1;        // HCLK
 122:./bsp/system_NUC131.c ****     CyclesPerUs     = PLL_CLOCK / 1000000;  // For SYS_SysTickDelay()
 123:./bsp/system_NUC131.c **** 
 124:./bsp/system_NUC131.c ****     /* Lock protected registers */
 125:./bsp/system_NUC131.c ****     SYS_LockReg();
 126:./bsp/system_NUC131.c **** }
 238              		.loc 1 126 0
 239              		@ sp needed
 114:./bsp/system_NUC131.c ****     CLK->CLKSEL0 &= (~CLK_CLKSEL0_HCLK_S_Msk);
 240              		.loc 1 114 0
 241 0042 8B43     		bics	r3, r1
 242 0044 1361     		str	r3, [r2, #16]
 115:./bsp/system_NUC131.c ****     CLK->CLKSEL0 |= CLK_CLKSEL0_HCLK_S_PLL;
 243              		.loc 1 115 0
 244 0046 1369     		ldr	r3, [r2, #16]
 245 0048 0539     		subs	r1, r1, #5
 246 004a 0B43     		orrs	r3, r1
 247 004c 1361     		str	r3, [r2, #16]
 120:./bsp/system_NUC131.c ****     SystemCoreClock = PLL_CLOCK / 1;        // HCLK
 248              		.loc 1 120 0
 249 004e 084B     		ldr	r3, .L27+12
 250 0050 084A     		ldr	r2, .L27+16
 251 0052 1A60     		str	r2, [r3]
 121:./bsp/system_NUC131.c ****     CyclesPerUs     = PLL_CLOCK / 1000000;  // For SYS_SysTickDelay()
 252              		.loc 1 121 0
 253 0054 5A62     		str	r2, [r3, #36]
 122:./bsp/system_NUC131.c **** 
 254              		.loc 1 122 0
 255 0056 3022     		movs	r2, #48
 256 0058 9A62     		str	r2, [r3, #40]
 257              	.LBB14:
 258              	.LBB15:
1823:./bsp/inc/SYS.h **** }
 259              		.loc 3 1823 0
 260 005a 0022     		movs	r2, #0
 261 005c 014B     		ldr	r3, .L27
 262 005e 5A60     		str	r2, [r3, #4]
 263              	.LBE15:
 264              	.LBE14:
 265              		.loc 1 126 0
 266 0060 10BD     		pop	{r4, pc}
 267              	.L28:
 268 0062 C046     		.align	2
 269              	.L27:
 270 0064 FC000050 		.word	1342177532
 271 0068 00020050 		.word	1342177792
 272 006c 6ECA0000 		.word	51822
 273 0070 00000000 		.word	.LANCHOR1
 274 0074 006CDC02 		.word	48000000
 275              		.cfi_endproc
 276              	.LFE61:
 278              		.global	gau32ClkSrcTbl
 279              		.global	PllClock
 280              		.global	CyclesPerUs
 281              		.global	SystemCoreClock
 282              		.section	.rodata
 283              		.set	.LANCHOR0,. + 0
 284              	.LC0:
 285 0000 01       		.byte	1
 286 0001 02       		.byte	2
 287 0002 02       		.byte	2
 288 0003 04       		.byte	4
 289              		.data
 290              		.align	2
 291              		.set	.LANCHOR1,. + 0
 294              	PllClock:
 295 0000 80F0FA02 		.word	50000000
 298              	gau32ClkSrcTbl:
 299 0004 001BB700 		.word	12000000
 300 0008 00000000 		.word	0
 301 000c 80F0FA02 		.word	50000000
 302 0010 10270000 		.word	10000
 303 0014 00000000 		.word	0
 304 0018 00000000 		.word	0
 305 001c 00000000 		.word	0
 306 0020 00805101 		.word	22118400
 309              	SystemCoreClock:
 310 0024 80F0FA02 		.word	50000000
 313              	CyclesPerUs:
 314 0028 32000000 		.word	50
 315              		.text
 316              	.Letext0:
 317              		.file 4 "d:\\wingcc\\arm-none-eabi\\include\\machine\\_default_types.h"
 318              		.file 5 "d:\\wingcc\\arm-none-eabi\\include\\sys\\_stdint.h"
 319              		.file 6 "./bsp/NUC131.h"